EXPORTS
 "_Z11CppDistanceRKSt6vectorIdSaIdEES3_bb"
 "_Z12CppKNNIndiceRKSt6vectorIS_IdSaIdEESaIS1_EEyyRKS_IySaIyEEb"
 "_Z14CppMatDistanceRKSt6vectorIS_IdSaIdEESaIS1_EEbb"
 "_Z15CppNeighborsNumRKSt6vectorIdSaIdEES3_bbb"
 "_Z16CppDistKNNIndiceRKSt6vectorIS_IdSaIdEESaIS1_EEyyRKS_IySaIyEEb"
 "_Z17CppMatKNNeighborsRKSt6vectorIS_IdSaIdEESaIS1_EERKS_IySaIyEEyybb"
 "_Z17doubleNearlyEqualdddd"
 "_Z18CppMatNeighborsNumRKSt6vectorIS_IdSaIdEESaIS1_EERKS1_bb"
 "_Z19CppDistSortedIndiceRKSt6vectorIS_IdSaIdEESaIS1_EERKS_IySaIyEEyb"
 "_Z19CppKNearestDistanceRKSt6vectorIdSaIdEEybb"
 "_Z20CppChebyshevDistanceRKSt6vectorIdSaIdEES3_b"
 "_Z22CppMatKNearestDistanceRKSt6vectorIS_IdSaIdEESaIS1_EEyb"
 "_Z23CppMatChebyshevDistanceRKSt6vectorIS_IdSaIdEESaIS1_EEb"
 "_ZdlPvS_"
 "_ZGVZN10RcppThread10ThreadPool14globalInstanceEvE3ptr"
 "_ZGVZN10RcppThread8RMonitor8instanceEvE9instance_"
 "_ZN10RcppThread10ThreadPool13setNumThreadsEy"
 "_ZN10RcppThread10ThreadPool14globalInstanceEv"
 "_ZN10RcppThread10ThreadPool4waitEv"
 "_ZN10RcppThread10ThreadPoolC1Ev"
 "_ZN10RcppThread10ThreadPoolC1Ey"
 "_ZN10RcppThread11RErrPrinterlsIA1_cEERS0_RKT_"
 "_ZN10RcppThread18checkUserInterruptEb"
 "_ZN10RcppThread22UserInterruptExceptionC1Ev"
 "_ZN10RcppThread22UserInterruptExceptionD0Ev"
 "_ZN10RcppThread22UserInterruptExceptionD1Ev"
 "_ZN10RcppThread8RMonitor10callRCheckEPv"
 "_ZN10RcppThread8RMonitor11safelyPrintIA1_cEEvRKT_b"
 "_ZN10RcppThread8RMonitor13isInterruptedEv"
 "_ZN10RcppThread8RMonitor14safelyPrintErrIA1_cEEvRKT_"
 "_ZN10RcppThread8RMonitor19safelyIsInterruptedEv"
 "_ZN10RcppThread8RMonitor20calledFromMainThreadEv"
 "_ZN10RcppThread8RMonitor24safelycheckUserInterruptEv"
 "_ZN10RcppThread8RMonitor5printEPv"
 "_ZN10RcppThread8RMonitor8instanceEv"
 "_ZN10RcppThread8RMonitor8printErrEPv"
 "_ZN10RcppThread8RMonitorC1Ev"
 "_ZN10RcppThread8RMonitorD1Ev"
 "_ZN10RcppThread8RPrinterlsIA1_cEERS0_RKT_"
 "_ZN9__gnu_cxx11char_traitsIcE2eqERKcS3_"
 "_ZN9__gnu_cxx11char_traitsIcE6lengthEPKc"
 "_ZN9__gnu_cxx17__normal_iteratorIPdSt6vectorIdSaIdEEEC1ERKS1_"
 "_ZN9__gnu_cxx17__normal_iteratorIPdSt6vectorIdSaIdEEEmmEv"
 "_ZN9__gnu_cxx17__normal_iteratorIPdSt6vectorIdSaIdEEEppEv"
 "_ZN9__gnu_cxx17__normal_iteratorIPKdSt6vectorIdSaIdEEEC1ERKS2_"
 "_ZN9__gnu_cxx17__normal_iteratorIPKdSt6vectorIdSaIdEEEppEv"
 "_ZN9__gnu_cxx17__normal_iteratorIPKySt6vectorIySaIyEEEC1ERKS2_"
 "_ZN9__gnu_cxx17__normal_iteratorIPKySt6vectorIySaIyEEEppEv"
 "_ZN9__gnu_cxx17__normal_iteratorIPN9quickpool5sched9TaskQueueESt6vectorIS3_NS1_3mem7aligned9allocatorIS3_Ly64EEEEEC1ERKS4_"
 "_ZN9__gnu_cxx17__normal_iteratorIPN9quickpool5sched9TaskQueueESt6vectorIS3_NS1_3mem7aligned9allocatorIS3_Ly64EEEEEppEv"
 "_ZN9__gnu_cxx17__normal_iteratorIPSt10unique_ptrIN9quickpool5sched10RingBufferIPSt8functionIFvvEEEESt14default_deleteIS9_EESt6vectorISC_SaISC_EEEC1ERKSD_"
 "_ZN9__gnu_cxx17__normal_iteratorIPSt4pairIdyESt6vectorIS2_SaIS2_EEEC1ERKS3_"
 "_ZN9__gnu_cxx17__normal_iteratorIPSt4pairIdyESt6vectorIS2_SaIS2_EEEmmEv"
 "_ZN9__gnu_cxx17__normal_iteratorIPSt4pairIdyESt6vectorIS2_SaIS2_EEEppEv"
 "_ZN9__gnu_cxx17__normal_iteratorIPSt6threadSt6vectorIS1_SaIS1_EEEC1ERKS2_"
 "_ZN9__gnu_cxx17__normal_iteratorIPSt6threadSt6vectorIS1_SaIS1_EEEppEv"
 "_ZN9__gnu_cxx17__normal_iteratorIPySt6vectorIySaIyEEEC1ERKS1_"
 "_ZN9__gnu_cxx17__normal_iteratorIPySt6vectorIySaIyEEEppEv"
 "_ZN9__gnu_cxx5__ops14_Iter_less_valC1ENS0_15_Iter_less_iterE"
 "_ZN9__gnu_cxx5__ops15__val_comp_iterENS0_15_Iter_less_iterE"
 "_ZN9__gnu_cxx5__ops16__iter_less_iterEv"
 "_ZN9__gnu_cxxeqIPdSt6vectorIdSaIdEEEEbRKNS_17__normal_iteratorIT_T0_EESA_"
 "_ZN9__gnu_cxxeqIPKdSt6vectorIdSaIdEEEEbRKNS_17__normal_iteratorIT_T0_EESB_"
 "_ZN9__gnu_cxxeqIPySt6vectorIySaIyEEEEbRKNS_17__normal_iteratorIT_T0_EESA_"
 "_ZN9__gnu_cxxleIPdSt6vectorIdSaIdEEEEbRKNS_17__normal_iteratorIT_T0_EESA_"
 "_ZN9__gnu_cxxltIPdSt6vectorIdSaIdEEEEbRKNS_17__normal_iteratorIT_T0_EESA_"
 "_ZN9__gnu_cxxltIPSt4pairIdyESt6vectorIS2_SaIS2_EEEEbRKNS_17__normal_iteratorIT_T0_EESC_"
 "_ZN9__gnu_cxxmiIPdSt6vectorIdSaIdEEEENS_17__normal_iteratorIT_T0_E15difference_typeERKS8_SB_"
 "_ZN9__gnu_cxxmiIPKdSt6vectorIdSaIdEEEENS_17__normal_iteratorIT_T0_E15difference_typeERKS9_SC_"
 "_ZN9__gnu_cxxmiIPSt10unique_ptrIN9quickpool5sched10RingBufferIPSt8functionIFvvEEEESt14default_deleteIS9_EESt6vectorISC_SaISC_EEEENS_17__normal_iteratorIT_T0_E15difference_typeERKSK_SN_"
 "_ZN9__gnu_cxxmiIPSt4pairIdyESt6vectorIS2_SaIS2_EEEENS_17__normal_iteratorIT_T0_E15difference_typeERKSA_SD_"
 "_ZN9__gnu_cxxmiIPySt6vectorIySaIyEEEENS_17__normal_iteratorIT_T0_E15difference_typeERKS8_SB_"
 "_ZN9__gnu_cxxneIPdSt6vectorIdSaIdEEEEbRKNS_17__normal_iteratorIT_T0_EESA_"
 "_ZN9__gnu_cxxneIPKySt6vectorIySaIyEEEEbRKNS_17__normal_iteratorIT_T0_EESB_"
 "_ZN9__gnu_cxxneIPN9quickpool5sched9TaskQueueESt6vectorIS3_NS1_3mem7aligned9allocatorIS3_Ly64EEEEEEbRKNS_17__normal_iteratorIT_T0_EESG_"
 "_ZN9__gnu_cxxneIPSt6threadSt6vectorIS1_SaIS1_EEEEbRKNS_17__normal_iteratorIT_T0_EESB_"
 "_ZN9__gnu_cxxneIPySt6vectorIySaIyEEEEbRKNS_17__normal_iteratorIT_T0_EESA_"
 "_ZN9quickpool10ThreadPool10add_workerEy"
 "_ZN9quickpool10ThreadPool12join_threadsEv"
 "_ZN9quickpool10ThreadPool14execute_safelyERSt8functionIFvvEE"
 "_ZN9quickpool10ThreadPool14stop_and_resetEv"
 "_ZN9quickpool10ThreadPool18set_active_threadsEy"
 "_ZN9quickpool10ThreadPool4waitEy"
 "_ZN9quickpool10ThreadPoolC1Ey"
 "_ZN9quickpool10ThreadPooldlEPv"
 "_ZN9quickpool10ThreadPoolnwEy"
 "_ZN9quickpool3mem7aligned14relaxed_atomicINS_4loop5StateEEaSES4_"
 "_ZN9quickpool3mem7aligned14relaxed_atomicINS_4loop5StateEEC1ES4_"
 "_ZN9quickpool3mem7aligned14relaxed_atomicIyEaSEy"
 "_ZN9quickpool3mem7aligned14relaxed_atomicIyEC1Ey"
 "_ZN9quickpool3mem7aligned4freeEPv"
 "_ZN9quickpool3mem7aligned5allocEyy"
 "_ZN9quickpool3mem7aligned6atomicIiLy64EEaSEi"
 "_ZN9quickpool3mem7aligned6atomicIiLy64EEC1Ei"
 "_ZN9quickpool3mem7aligned6atomicINS_4loop5StateELy64EEC2ES4_"
 "_ZN9quickpool3mem7aligned6atomicINS_5sched11TaskManager6StatusELy64EEaSES5_"
 "_ZN9quickpool3mem7aligned6atomicINS_5sched11TaskManager6StatusELy64EEC1ES5_"
 "_ZN9quickpool3mem7aligned6atomicIyLy64EEC2Ey"
 "_ZN9quickpool3mem7aligned9allocatorINS_5sched9TaskQueueELy64EE10deallocateEPS4_y"
 "_ZN9quickpool3mem7aligned9allocatorINS_5sched9TaskQueueELy64EE7destroyIS4_EEvPT_"
 "_ZN9quickpool3mem7aligned9allocatorINS_5sched9TaskQueueELy64EE8allocateEyPKv"
 "_ZN9quickpool3mem7aligned9allocatorINS_5sched9TaskQueueELy64EE9constructIS4_JEEEvPT_DpOT0_"
 "_ZN9quickpool3mem7aligned9allocatorINS_5sched9TaskQueueELy64EEC1ERKS5_"
 "_ZN9quickpool3mem7aligned9allocatorINS_5sched9TaskQueueELy64EEC1Ev"
 "_ZN9quickpool3mem7aligned9allocatorINS_5sched9TaskQueueELy64EEC2ERKS5_"
 "_ZN9quickpool3mem7aligned9allocatorINS_5sched9TaskQueueELy64EED1Ev"
 "_ZN9quickpool3mem7aligned9allocatorINS_5sched9TaskQueueELy64EED2Ev"
 "_ZN9quickpool5sched10RingBufferIPSt8functionIFvvEEE9set_entryEyS5_"
 "_ZN9quickpool5sched10RingBufferIPSt8functionIFvvEEEC1Ey"
 "_ZN9quickpool5sched10RingBufferIPSt8functionIFvvEEED1Ev"
 "_ZN9quickpool5sched11TaskManager11report_failENSt15__exception_ptr13exception_ptrE"
 "_ZN9quickpool5sched11TaskManager13wait_for_jobsEy"
 "_ZN9quickpool5sched11TaskManager14report_successEv"
 "_ZN9quickpool5sched11TaskManager15wait_for_finishEy"
 "_ZN9quickpool5sched11TaskManager17rethrow_exceptionEv"
 "_ZN9quickpool5sched11TaskManager4stopEv"
 "_ZN9quickpool5sched11TaskManager6resizeEy"
 "_ZN9quickpool5sched11TaskManager7try_popISt8functionIFvvEEEEbRT_y"
 "_ZN9quickpool5sched11TaskManageraSEOS1_"
 "_ZN9quickpool5sched11TaskManagerC1Ey"
 "_ZN9quickpool5sched11TaskManagerD1Ev"
 "_ZN9quickpool5sched9TaskQueue4pushEOSt8functionIFvvEE"
 "_ZN9quickpool5sched9TaskQueue4stopEv"
 "_ZN9quickpool5sched9TaskQueue4waitEv"
 "_ZN9quickpool5sched9TaskQueue7try_popERSt8functionIFvvEE"
 "_ZN9quickpool5sched9TaskQueueC1Ey"
 "_ZN9quickpool5sched9TaskQueueD1Ev"
 "_ZNK10RcppThread10ThreadPool13getNumThreadsEv"
 "_ZNK10RcppThread22UserInterruptException4whatEv"
 "_ZNK9__gnu_cxx17__normal_iteratorIPdSt6vectorIdSaIdEEE4baseEv"
 "_ZNK9__gnu_cxx17__normal_iteratorIPdSt6vectorIdSaIdEEEdeEv"
 "_ZNK9__gnu_cxx17__normal_iteratorIPdSt6vectorIdSaIdEEEmiEx"
 "_ZNK9__gnu_cxx17__normal_iteratorIPdSt6vectorIdSaIdEEEplEx"
 "_ZNK9__gnu_cxx17__normal_iteratorIPKdSt6vectorIdSaIdEEE4baseEv"
 "_ZNK9__gnu_cxx17__normal_iteratorIPKdSt6vectorIdSaIdEEEdeEv"
 "_ZNK9__gnu_cxx17__normal_iteratorIPKySt6vectorIySaIyEEE4baseEv"
 "_ZNK9__gnu_cxx17__normal_iteratorIPKySt6vectorIySaIyEEEdeEv"
 "_ZNK9__gnu_cxx17__normal_iteratorIPN9quickpool5sched9TaskQueueESt6vectorIS3_NS1_3mem7aligned9allocatorIS3_Ly64EEEEE4baseEv"
 "_ZNK9__gnu_cxx17__normal_iteratorIPN9quickpool5sched9TaskQueueESt6vectorIS3_NS1_3mem7aligned9allocatorIS3_Ly64EEEEEdeEv"
 "_ZNK9__gnu_cxx17__normal_iteratorIPSt10unique_ptrIN9quickpool5sched10RingBufferIPSt8functionIFvvEEEESt14default_deleteIS9_EESt6vectorISC_SaISC_EEE4baseEv"
 "_ZNK9__gnu_cxx17__normal_iteratorIPSt10unique_ptrIN9quickpool5sched10RingBufferIPSt8functionIFvvEEEESt14default_deleteIS9_EESt6vectorISC_SaISC_EEEdeEv"
 "_ZNK9__gnu_cxx17__normal_iteratorIPSt10unique_ptrIN9quickpool5sched10RingBufferIPSt8functionIFvvEEEESt14default_deleteIS9_EESt6vectorISC_SaISC_EEEmiEx"
 "_ZNK9__gnu_cxx17__normal_iteratorIPSt4pairIdyESt6vectorIS2_SaIS2_EEE4baseEv"
 "_ZNK9__gnu_cxx17__normal_iteratorIPSt4pairIdyESt6vectorIS2_SaIS2_EEEdeEv"
 "_ZNK9__gnu_cxx17__normal_iteratorIPSt4pairIdyESt6vectorIS2_SaIS2_EEEmiEx"
 "_ZNK9__gnu_cxx17__normal_iteratorIPSt4pairIdyESt6vectorIS2_SaIS2_EEEplEx"
 "_ZNK9__gnu_cxx17__normal_iteratorIPSt6threadSt6vectorIS1_SaIS1_EEE4baseEv"
 "_ZNK9__gnu_cxx17__normal_iteratorIPSt6threadSt6vectorIS1_SaIS1_EEEdeEv"
 "_ZNK9__gnu_cxx17__normal_iteratorIPySt6vectorIySaIyEEE4baseEv"
 "_ZNK9__gnu_cxx17__normal_iteratorIPySt6vectorIySaIyEEEdeEv"
 "_ZNK9__gnu_cxx17__normal_iteratorIPySt6vectorIySaIyEEEmiEx"
 "_ZNK9__gnu_cxx17__normal_iteratorIPySt6vectorIySaIyEEEplEx"
 "_ZNK9__gnu_cxx5__ops14_Iter_less_valclINS_17__normal_iteratorIPdSt6vectorIdSaIdEEEEdEEbT_RT0_"
 "_ZNK9__gnu_cxx5__ops14_Iter_less_valclINS_17__normal_iteratorIPSt4pairIdyESt6vectorIS5_SaIS5_EEEES5_EEbT_RT0_"
 "_ZNK9__gnu_cxx5__ops14_Val_less_iterclIdNS_17__normal_iteratorIPdSt6vectorIdSaIdEEEEEEbRT_T0_"
 "_ZNK9__gnu_cxx5__ops15_Iter_less_iterclINS_17__normal_iteratorIPdSt6vectorIdSaIdEEEES8_EEbT_T0_"
 "_ZNK9__gnu_cxx5__ops15_Iter_less_iterclINS_17__normal_iteratorIPSt4pairIdyESt6vectorIS5_SaIS5_EEEESA_EEbT_T0_"
 "_ZNK9__gnu_cxx5__ops15_Iter_less_iterclINS_17__normal_iteratorIPySt6vectorIySaIyEEEES8_EEbT_T0_"
 "_ZNK9__gnu_cxx5__ops15_Iter_less_iterclIPKdS4_EEbT_T0_"
 "_ZNK9quickpool10ThreadPool18get_active_threadsEv"
 "_ZNK9quickpool10ThreadPool4doneEv"
 "_ZNK9quickpool3mem7aligned14relaxed_atomicIyEcvyEv"
 "_ZNK9quickpool5sched10RingBufferIPSt8functionIFvvEEE13enlarged_copyEyy"
 "_ZNK9quickpool5sched10RingBufferIPSt8functionIFvvEEE8capacityEv"
 "_ZNK9quickpool5sched10RingBufferIPSt8functionIFvvEEE9get_entryEy"
 "_ZNK9quickpool5sched11TaskManager10is_runningEv"
 "_ZNK9quickpool5sched11TaskManager11has_erroredEv"
 "_ZNK9quickpool5sched11TaskManager24called_from_owner_threadEv"
 "_ZNK9quickpool5sched11TaskManager4doneEv"
 "_ZNK9quickpool5sched11TaskManager7stoppedEv"
 "_ZNK9quickpool5sched9TaskQueue5emptyEv"
 "_ZNKSt10unique_ptrIA_PSt8functionIFvvEESt14default_deleteIS4_EE3getEv"
 "_ZNKSt10unique_ptrIA_PSt8functionIFvvEESt14default_deleteIS4_EEixEy"
 "_ZNKSt10unique_ptrIN9quickpool10ThreadPoolESt14default_deleteIS1_EE3getEv"
 "_ZNKSt10unique_ptrIN9quickpool10ThreadPoolESt14default_deleteIS1_EEptEv"
 "_ZNKSt11unique_lockISt5mutexE5mutexEv"
 "_ZNKSt12_Vector_baseIdSaIdEE19_M_get_Tp_allocatorEv"
 "_ZNKSt12_Vector_baseIN9quickpool5sched9TaskQueueENS0_3mem7aligned9allocatorIS2_Ly64EEEE13get_allocatorEv"
 "_ZNKSt12_Vector_baseIN9quickpool5sched9TaskQueueENS0_3mem7aligned9allocatorIS2_Ly64EEEE19_M_get_Tp_allocatorEv"
 "_ZNKSt12_Vector_baseISt10unique_ptrIN9quickpool5sched10RingBufferIPSt8functionIFvvEEEESt14default_deleteIS8_EESaISB_EE19_M_get_Tp_allocatorEv"
 "_ZNKSt12_Vector_baseISt4pairIdyESaIS1_EE19_M_get_Tp_allocatorEv"
 "_ZNKSt12_Vector_baseISt6threadSaIS0_EE13get_allocatorEv"
 "_ZNKSt12_Vector_baseISt6threadSaIS0_EE19_M_get_Tp_allocatorEv"
 "_ZNKSt12_Vector_baseIySaIyEE19_M_get_Tp_allocatorEv"
 "_ZNKSt13__atomic_baseIiEcviEv"
 "_ZNKSt13__atomic_baseIyEcvyEv"
 "_ZNKSt14_Function_base8_M_emptyEv"
 "_ZNKSt14default_deleteIA_PSt8functionIFvvEEEclIS3_EENSt9enable_ifIXsrSt14is_convertibleIPA_T_PS4_E5valueEvE4typeEPS9_"
 "_ZNKSt14default_deleteIN9quickpool5sched10RingBufferIPSt8functionIFvvEEEEEclEPS7_"
 "_ZNKSt14default_deleteINSt6thread6_StateEEclEPS1_"
 "_ZNKSt15__uniq_ptr_implIN9quickpool10ThreadPoolESt14default_deleteIS1_EE6_M_ptrEv"
 "_ZNKSt15__uniq_ptr_implIPSt8functionIFvvEESt14default_deleteIA_S3_EE6_M_ptrEv"
 "_ZNKSt16initializer_listIdE3endEv"
 "_ZNKSt16initializer_listIdE4sizeEv"
 "_ZNKSt16initializer_listIdE5beginEv"
 "_ZNKSt16initializer_listIyE3endEv"
 "_ZNKSt16initializer_listIyE4sizeEv"
 "_ZNKSt16initializer_listIyE5beginEv"
 "_ZNKSt6atomicIbEcvbEv"
 "_ZNKSt6atomicIN9quickpool4loop5StateEE4loadESt12memory_order"
 "_ZNKSt6atomicIN9quickpool5sched11TaskManager6StatusEE4loadESt12memory_order"
 "_ZNKSt6atomicIPN9quickpool5sched10RingBufferIPSt8functionIFvvEEEEE4loadESt12memory_order"
 "_ZNKSt6chrono10time_pointINS_3_V212steady_clockENS_8durationIxSt5ratioILx1ELx1000000000EEEEE16time_since_epochEv"
 "_ZNKSt6chrono10time_pointINS_3_V212system_clockENS_8durationIxSt5ratioILx1ELx1000000000EEEEE16time_since_epochEv"
 "_ZNKSt6chrono10time_pointINS_3_V212system_clockENS_8durationIxSt5ratioILx1ELx1EEEEE16time_since_epochEv"
 "_ZNKSt6chrono8durationIxSt5ratioILx1ELx1000000000EEE5countEv"
 "_ZNKSt6chrono8durationIxSt5ratioILx1ELx1000EEE5countEv"
 "_ZNKSt6chrono8durationIxSt5ratioILx1ELx1EEE5countEv"
 "_ZNKSt6thread8joinableEv"
 "_ZNKSt6vectorIdSaIdEE12_M_check_lenEyPKc"
 "_ZNKSt6vectorIdSaIdEE3endEv"
 "_ZNKSt6vectorIdSaIdEE4sizeEv"
 "_ZNKSt6vectorIdSaIdEE5beginEv"
 "_ZNKSt6vectorIdSaIdEE5emptyEv"
 "_ZNKSt6vectorIdSaIdEE8capacityEv"
 "_ZNKSt6vectorIdSaIdEE8max_sizeEv"
 "_ZNKSt6vectorIdSaIdEEixEy"
 "_ZNKSt6vectorIN9quickpool5sched9TaskQueueENS0_3mem7aligned9allocatorIS2_Ly64EEEE4sizeEv"
 "_ZNKSt6vectorIS_IdSaIdEESaIS1_EE4sizeEv"
 "_ZNKSt6vectorIS_IdSaIdEESaIS1_EEixEy"
 "_ZNKSt6vectorISt10unique_ptrIN9quickpool5sched10RingBufferIPSt8functionIFvvEEEESt14default_deleteIS8_EESaISB_EE12_M_check_lenEyPKc"
 "_ZNKSt6vectorISt10unique_ptrIN9quickpool5sched10RingBufferIPSt8functionIFvvEEEESt14default_deleteIS8_EESaISB_EE4sizeEv"
 "_ZNKSt6vectorISt10unique_ptrIN9quickpool5sched10RingBufferIPSt8functionIFvvEEEESt14default_deleteIS8_EESaISB_EE8max_sizeEv"
 "_ZNKSt6vectorISt4pairIdyESaIS1_EE12_M_check_lenEyPKc"
 "_ZNKSt6vectorISt4pairIdyESaIS1_EE4sizeEv"
 "_ZNKSt6vectorISt4pairIdyESaIS1_EE8max_sizeEv"
 "_ZNKSt6vectorISt6threadSaIS0_EE4sizeEv"
 "_ZNKSt6vectorIySaIyEE12_M_check_lenEyPKc"
 "_ZNKSt6vectorIySaIyEE3endEv"
 "_ZNKSt6vectorIySaIyEE4sizeEv"
 "_ZNKSt6vectorIySaIyEE5beginEv"
 "_ZNKSt6vectorIySaIyEE8capacityEv"
 "_ZNKSt6vectorIySaIyEE8max_sizeEv"
 "_ZNKSt6vectorIySaIyEEixEy"
 "_ZNKSt8functionIFvvEEclEv"
 "_ZNKSt8functionIFvvEEcvbEv"
 "_ZNKSt9_Any_data9_M_accessEv"
 "_ZNSt10_Head_baseILy0EPN9quickpool10ThreadPoolELb0EE7_M_headERKS3_"
 "_ZNSt10_Head_baseILy0EPN9quickpool10ThreadPoolELb0EE7_M_headERS3_"
 "_ZNSt10_Head_baseILy0EPN9quickpool10ThreadPoolELb0EEC2Ev"
 "_ZNSt10_Head_baseILy0EPN9quickpool5sched10RingBufferIPSt8functionIFvvEEEELb0EE7_M_headERS9_"
 "_ZNSt10_Head_baseILy0EPN9quickpool5sched10RingBufferIPSt8functionIFvvEEEELb0EEC2Ev"
 "_ZNSt10_Head_baseILy0EPNSt6thread6_StateELb0EE7_M_headERS3_"
 "_ZNSt10_Head_baseILy0EPNSt6thread6_StateELb0EEC2Ev"
 "_ZNSt10_Head_baseILy0EPPSt8functionIFvvEELb0EE7_M_headERKS5_"
 "_ZNSt10_Head_baseILy0EPPSt8functionIFvvEELb0EE7_M_headERS5_"
 "_ZNSt10_Head_baseILy0EPPSt8functionIFvvEELb0EEC2Ev"
 "_ZNSt10_Head_baseILy0EZN9quickpool10ThreadPool10add_workerEyEUlvE_Lb0EE7_M_headERS3_"
 "_ZNSt10_Head_baseILy0EZN9quickpool10ThreadPool10add_workerEyEUlvE_Lb0EEC2IS2_EEOT_"
 "_ZNSt10_Head_baseILy1ESt14default_deleteIA_PSt8functionIFvvEEELb1EE7_M_headERS7_"
 "_ZNSt10_Head_baseILy1ESt14default_deleteIA_PSt8functionIFvvEEELb1EEC2Ev"
 "_ZNSt10_Head_baseILy1ESt14default_deleteIN9quickpool10ThreadPoolEELb1EEC2Ev"
 "_ZNSt10_Head_baseILy1ESt14default_deleteIN9quickpool5sched10RingBufferIPSt8functionIFvvEEEEELb1EE7_M_headERSA_"
 "_ZNSt10_Head_baseILy1ESt14default_deleteIN9quickpool5sched10RingBufferIPSt8functionIFvvEEEEELb1EEC2Ev"
 "_ZNSt10_Head_baseILy1ESt14default_deleteINSt6thread6_StateEELb1EE7_M_headERS4_"
 "_ZNSt10_Head_baseILy1ESt14default_deleteINSt6thread6_StateEELb1EEC2Ev"
 "_ZNSt10lock_guardISt5mutexEC1ERS0_"
 "_ZNSt10lock_guardISt5mutexED1Ev"
 "_ZNSt10unique_ptrIA_PSt8functionIFvvEESt14default_deleteIS4_EE11get_deleterEv"
 "_ZNSt10unique_ptrIA_PSt8functionIFvvEESt14default_deleteIS4_EEC1IPS3_S6_vbEET_"
 "_ZNSt10unique_ptrIA_PSt8functionIFvvEESt14default_deleteIS4_EED1Ev"
 "_ZNSt10unique_ptrIN9quickpool10ThreadPoolESt14default_deleteIS1_EEC1IS3_vEEPS1_"
 "_ZNSt10unique_ptrIN9quickpool5sched10RingBufferIPSt8functionIFvvEEEESt14default_deleteIS7_EE11get_deleterEv"
 "_ZNSt10unique_ptrIN9quickpool5sched10RingBufferIPSt8functionIFvvEEEESt14default_deleteIS7_EEC1EOSA_"
 "_ZNSt10unique_ptrIN9quickpool5sched10RingBufferIPSt8functionIFvvEEEESt14default_deleteIS7_EEC1IS9_vEEPS7_"
 "_ZNSt10unique_ptrIN9quickpool5sched10RingBufferIPSt8functionIFvvEEEESt14default_deleteIS7_EED1Ev"
 "_ZNSt10unique_ptrINSt6thread6_StateESt14default_deleteIS1_EE11get_deleterEv"
 "_ZNSt10unique_ptrINSt6thread6_StateESt14default_deleteIS1_EEC1IS3_vEEPS1_"
 "_ZNSt10unique_ptrINSt6thread6_StateESt14default_deleteIS1_EED1Ev"
 "_ZNSt11__copy_moveILb0ELb0ESt26random_access_iterator_tagE12__assign_oneIdKdEEvPT_PT0_"
 "_ZNSt11__copy_moveILb0ELb0ESt26random_access_iterator_tagE12__assign_oneIyKyEEvPT_PT0_"
 "_ZNSt11__copy_moveILb0ELb0ESt26random_access_iterator_tagE12__assign_oneIyyEEvPT_PT0_"
 "_ZNSt11__copy_moveILb0ELb1ESt26random_access_iterator_tagE8__copy_mIKddEEPT0_PT_S7_S5_"
 "_ZNSt11__copy_moveILb0ELb1ESt26random_access_iterator_tagE8__copy_mIKyyEEPT0_PT_S7_S5_"
 "_ZNSt11__copy_moveILb0ELb1ESt26random_access_iterator_tagE8__copy_mIyyEEPT0_PT_S6_S4_"
 "_ZNSt11__copy_moveILb1ELb0ESt26random_access_iterator_tagE12__assign_oneIddEEvPT_PT0_"
 "_ZNSt11_Tuple_implILy0EJPN9quickpool10ThreadPoolESt14default_deleteIS1_EEE7_M_headERKS5_"
 "_ZNSt11_Tuple_implILy0EJPN9quickpool10ThreadPoolESt14default_deleteIS1_EEE7_M_headERS5_"
 "_ZNSt11_Tuple_implILy0EJPN9quickpool10ThreadPoolESt14default_deleteIS1_EEEC2Ev"
 "_ZNSt11_Tuple_implILy0EJPN9quickpool5sched10RingBufferIPSt8functionIFvvEEEESt14default_deleteIS7_EEE7_M_headERSB_"
 "_ZNSt11_Tuple_implILy0EJPN9quickpool5sched10RingBufferIPSt8functionIFvvEEEESt14default_deleteIS7_EEEC2EOSB_"
 "_ZNSt11_Tuple_implILy0EJPN9quickpool5sched10RingBufferIPSt8functionIFvvEEEESt14default_deleteIS7_EEEC2Ev"
 "_ZNSt11_Tuple_implILy0EJPNSt6thread6_StateESt14default_deleteIS1_EEE7_M_headERS5_"
 "_ZNSt11_Tuple_implILy0EJPNSt6thread6_StateESt14default_deleteIS1_EEEC2Ev"
 "_ZNSt11_Tuple_implILy0EJPPSt8functionIFvvEESt14default_deleteIA_S3_EEE7_M_headERKS8_"
 "_ZNSt11_Tuple_implILy0EJPPSt8functionIFvvEESt14default_deleteIA_S3_EEE7_M_headERS8_"
 "_ZNSt11_Tuple_implILy0EJPPSt8functionIFvvEESt14default_deleteIA_S3_EEEC2Ev"
 "_ZNSt11_Tuple_implILy0EJZN9quickpool10ThreadPool10add_workerEyEUlvE_EE7_M_headERS3_"
 "_ZNSt11_Tuple_implILy0EJZN9quickpool10ThreadPool10add_workerEyEUlvE_EEC2IS2_EEOT_"
 "_ZNSt11_Tuple_implILy1EJSt14default_deleteIA_PSt8functionIFvvEEEEE7_M_headERS7_"
 "_ZNSt11_Tuple_implILy1EJSt14default_deleteIA_PSt8functionIFvvEEEEEC2Ev"
 "_ZNSt11_Tuple_implILy1EJSt14default_deleteIN9quickpool10ThreadPoolEEEEC2Ev"
 "_ZNSt11_Tuple_implILy1EJSt14default_deleteIN9quickpool5sched10RingBufferIPSt8functionIFvvEEEEEEE7_M_headERSA_"
 "_ZNSt11_Tuple_implILy1EJSt14default_deleteIN9quickpool5sched10RingBufferIPSt8functionIFvvEEEEEEEC2EOSA_"
 "_ZNSt11_Tuple_implILy1EJSt14default_deleteIN9quickpool5sched10RingBufferIPSt8functionIFvvEEEEEEEC2Ev"
 "_ZNSt11_Tuple_implILy1EJSt14default_deleteINSt6thread6_StateEEEE7_M_headERS4_"
 "_ZNSt11_Tuple_implILy1EJSt14default_deleteINSt6thread6_StateEEEEC2Ev"
 "_ZNSt11char_traitsIcE6lengthEPKc"
 "_ZNSt11this_thread6get_idEv"
 "_ZNSt11unique_lockISt5mutexE4lockEv"
 "_ZNSt11unique_lockISt5mutexE6unlockEv"
 "_ZNSt11unique_lockISt5mutexEC1ERS0_"
 "_ZNSt11unique_lockISt5mutexED1Ev"
 "_ZNSt12__mutex_baseC2Ev"
 "_ZNSt12__mutex_baseD2Ev"
 "_ZNSt12_Destroy_auxILb0EE9__destroyIPSt10unique_ptrIN9quickpool5sched10RingBufferIPSt8functionIFvvEEEESt14default_deleteISA_EEEEvT_SF_"
 "_ZNSt12_Destroy_auxILb0EE9__destroyIPSt6threadEEvT_S4_"
 "_ZNSt12_Destroy_auxILb0EE9__destroyIPSt6vectorIdSaIdEEEEvT_S6_"
 "_ZNSt12_Destroy_auxILb0EE9__destroyIPSt6vectorIySaIyEEEEvT_S6_"
 "_ZNSt12_Destroy_auxILb1EE9__destroyIN9__gnu_cxx17__normal_iteratorIPySt6vectorIySaIyEEEEEEvT_S9_"
 "_ZNSt12_Destroy_auxILb1EE9__destroyIPdEEvT_S3_"
 "_ZNSt12_Destroy_auxILb1EE9__destroyIPiEEvT_S3_"
 "_ZNSt12_Destroy_auxILb1EE9__destroyIPSt4pairIdyEEEvT_S5_"
 "_ZNSt12_Destroy_auxILb1EE9__destroyIPyEEvT_S3_"
 "_ZNSt12_Vector_baseIdSaIdEE11_M_allocateEy"
 "_ZNSt12_Vector_baseIdSaIdEE12_Vector_implC1ERKS0_"
 "_ZNSt12_Vector_baseIdSaIdEE12_Vector_implC1Ev"
 "_ZNSt12_Vector_baseIdSaIdEE12_Vector_implD1Ev"
 "_ZNSt12_Vector_baseIdSaIdEE13_M_deallocateEPdy"
 "_ZNSt12_Vector_baseIdSaIdEE17_M_create_storageEy"
 "_ZNSt12_Vector_baseIdSaIdEE17_Vector_impl_dataC2Ev"
 "_ZNSt12_Vector_baseIdSaIdEE19_M_get_Tp_allocatorEv"
 "_ZNSt12_Vector_baseIdSaIdEEC2Ev"
 "_ZNSt12_Vector_baseIdSaIdEEC2EyRKS0_"
 "_ZNSt12_Vector_baseIdSaIdEED2Ev"
 "_ZNSt12_Vector_baseIiSaIiEE11_M_allocateEy"
 "_ZNSt12_Vector_baseIiSaIiEE12_Vector_implC1ERKS0_"
 "_ZNSt12_Vector_baseIiSaIiEE12_Vector_implD1Ev"
 "_ZNSt12_Vector_baseIiSaIiEE13_M_deallocateEPiy"
 "_ZNSt12_Vector_baseIiSaIiEE17_M_create_storageEy"
 "_ZNSt12_Vector_baseIiSaIiEE17_Vector_impl_dataC2Ev"
 "_ZNSt12_Vector_baseIiSaIiEE19_M_get_Tp_allocatorEv"
 "_ZNSt12_Vector_baseIiSaIiEEC2EyRKS0_"
 "_ZNSt12_Vector_baseIiSaIiEED2Ev"
 "_ZNSt12_Vector_baseIN9quickpool5sched9TaskQueueENS0_3mem7aligned9allocatorIS2_Ly64EEEE11_M_allocateEy"
 "_ZNSt12_Vector_baseIN9quickpool5sched9TaskQueueENS0_3mem7aligned9allocatorIS2_Ly64EEEE12_Vector_implC1ERKS6_"
 "_ZNSt12_Vector_baseIN9quickpool5sched9TaskQueueENS0_3mem7aligned9allocatorIS2_Ly64EEEE12_Vector_implD1Ev"
 "_ZNSt12_Vector_baseIN9quickpool5sched9TaskQueueENS0_3mem7aligned9allocatorIS2_Ly64EEEE13_M_deallocateEPS2_y"
 "_ZNSt12_Vector_baseIN9quickpool5sched9TaskQueueENS0_3mem7aligned9allocatorIS2_Ly64EEEE17_M_create_storageEy"
 "_ZNSt12_Vector_baseIN9quickpool5sched9TaskQueueENS0_3mem7aligned9allocatorIS2_Ly64EEEE17_Vector_impl_data12_M_copy_dataERKS8_"
 "_ZNSt12_Vector_baseIN9quickpool5sched9TaskQueueENS0_3mem7aligned9allocatorIS2_Ly64EEEE17_Vector_impl_data12_M_swap_dataERS8_"
 "_ZNSt12_Vector_baseIN9quickpool5sched9TaskQueueENS0_3mem7aligned9allocatorIS2_Ly64EEEE17_Vector_impl_dataC1Ev"
 "_ZNSt12_Vector_baseIN9quickpool5sched9TaskQueueENS0_3mem7aligned9allocatorIS2_Ly64EEEE17_Vector_impl_dataC2Ev"
 "_ZNSt12_Vector_baseIN9quickpool5sched9TaskQueueENS0_3mem7aligned9allocatorIS2_Ly64EEEE19_M_get_Tp_allocatorEv"
 "_ZNSt12_Vector_baseIN9quickpool5sched9TaskQueueENS0_3mem7aligned9allocatorIS2_Ly64EEEEC2ERKS6_"
 "_ZNSt12_Vector_baseIN9quickpool5sched9TaskQueueENS0_3mem7aligned9allocatorIS2_Ly64EEEEC2EyRKS6_"
 "_ZNSt12_Vector_baseIN9quickpool5sched9TaskQueueENS0_3mem7aligned9allocatorIS2_Ly64EEEED2Ev"
 "_ZNSt12_Vector_baseISt10unique_ptrIN9quickpool5sched10RingBufferIPSt8functionIFvvEEEESt14default_deleteIS8_EESaISB_EE11_M_allocateEy"
 "_ZNSt12_Vector_baseISt10unique_ptrIN9quickpool5sched10RingBufferIPSt8functionIFvvEEEESt14default_deleteIS8_EESaISB_EE12_Vector_implC1Ev"
 "_ZNSt12_Vector_baseISt10unique_ptrIN9quickpool5sched10RingBufferIPSt8functionIFvvEEEESt14default_deleteIS8_EESaISB_EE12_Vector_implD1Ev"
 "_ZNSt12_Vector_baseISt10unique_ptrIN9quickpool5sched10RingBufferIPSt8functionIFvvEEEESt14default_deleteIS8_EESaISB_EE13_M_deallocateEPSB_y"
 "_ZNSt12_Vector_baseISt10unique_ptrIN9quickpool5sched10RingBufferIPSt8functionIFvvEEEESt14default_deleteIS8_EESaISB_EE17_Vector_impl_dataC2Ev"
 "_ZNSt12_Vector_baseISt10unique_ptrIN9quickpool5sched10RingBufferIPSt8functionIFvvEEEESt14default_deleteIS8_EESaISB_EE19_M_get_Tp_allocatorEv"
 "_ZNSt12_Vector_baseISt10unique_ptrIN9quickpool5sched10RingBufferIPSt8functionIFvvEEEESt14default_deleteIS8_EESaISB_EEC2Ev"
 "_ZNSt12_Vector_baseISt10unique_ptrIN9quickpool5sched10RingBufferIPSt8functionIFvvEEEESt14default_deleteIS8_EESaISB_EED2Ev"
 "_ZNSt12_Vector_baseISt4pairIdyESaIS1_EE11_M_allocateEy"
 "_ZNSt12_Vector_baseISt4pairIdyESaIS1_EE12_Vector_implC1Ev"
 "_ZNSt12_Vector_baseISt4pairIdyESaIS1_EE12_Vector_implD1Ev"
 "_ZNSt12_Vector_baseISt4pairIdyESaIS1_EE13_M_deallocateEPS1_y"
 "_ZNSt12_Vector_baseISt4pairIdyESaIS1_EE17_Vector_impl_dataC2Ev"
 "_ZNSt12_Vector_baseISt4pairIdyESaIS1_EE19_M_get_Tp_allocatorEv"
 "_ZNSt12_Vector_baseISt4pairIdyESaIS1_EEC2Ev"
 "_ZNSt12_Vector_baseISt4pairIdyESaIS1_EED2Ev"
 "_ZNSt12_Vector_baseISt6threadSaIS0_EE11_M_allocateEy"
 "_ZNSt12_Vector_baseISt6threadSaIS0_EE12_Vector_implC1ERKS1_"
 "_ZNSt12_Vector_baseISt6threadSaIS0_EE12_Vector_implC1Ev"
 "_ZNSt12_Vector_baseISt6threadSaIS0_EE12_Vector_implD1Ev"
 "_ZNSt12_Vector_baseISt6threadSaIS0_EE13_M_deallocateEPS0_y"
 "_ZNSt12_Vector_baseISt6threadSaIS0_EE17_M_create_storageEy"
 "_ZNSt12_Vector_baseISt6threadSaIS0_EE17_Vector_impl_data12_M_copy_dataERKS3_"
 "_ZNSt12_Vector_baseISt6threadSaIS0_EE17_Vector_impl_data12_M_swap_dataERS3_"
 "_ZNSt12_Vector_baseISt6threadSaIS0_EE17_Vector_impl_dataC1Ev"
 "_ZNSt12_Vector_baseISt6threadSaIS0_EE17_Vector_impl_dataC2Ev"
 "_ZNSt12_Vector_baseISt6threadSaIS0_EE19_M_get_Tp_allocatorEv"
 "_ZNSt12_Vector_baseISt6threadSaIS0_EEC2ERKS1_"
 "_ZNSt12_Vector_baseISt6threadSaIS0_EEC2Ev"
 "_ZNSt12_Vector_baseISt6threadSaIS0_EEC2EyRKS1_"
 "_ZNSt12_Vector_baseISt6threadSaIS0_EED2Ev"
 "_ZNSt12_Vector_baseISt6vectorIdSaIdEESaIS2_EE11_M_allocateEy"
 "_ZNSt12_Vector_baseISt6vectorIdSaIdEESaIS2_EE12_Vector_implC1ERKS3_"
 "_ZNSt12_Vector_baseISt6vectorIdSaIdEESaIS2_EE12_Vector_implD1Ev"
 "_ZNSt12_Vector_baseISt6vectorIdSaIdEESaIS2_EE13_M_deallocateEPS2_y"
 "_ZNSt12_Vector_baseISt6vectorIdSaIdEESaIS2_EE17_M_create_storageEy"
 "_ZNSt12_Vector_baseISt6vectorIdSaIdEESaIS2_EE17_Vector_impl_dataC2Ev"
 "_ZNSt12_Vector_baseISt6vectorIdSaIdEESaIS2_EE19_M_get_Tp_allocatorEv"
 "_ZNSt12_Vector_baseISt6vectorIdSaIdEESaIS2_EEC2EyRKS3_"
 "_ZNSt12_Vector_baseISt6vectorIdSaIdEESaIS2_EED2Ev"
 "_ZNSt12_Vector_baseISt6vectorIySaIyEESaIS2_EE11_M_allocateEy"
 "_ZNSt12_Vector_baseISt6vectorIySaIyEESaIS2_EE12_Vector_implC1ERKS3_"
 "_ZNSt12_Vector_baseISt6vectorIySaIyEESaIS2_EE12_Vector_implD1Ev"
 "_ZNSt12_Vector_baseISt6vectorIySaIyEESaIS2_EE13_M_deallocateEPS2_y"
 "_ZNSt12_Vector_baseISt6vectorIySaIyEESaIS2_EE17_M_create_storageEy"
 "_ZNSt12_Vector_baseISt6vectorIySaIyEESaIS2_EE17_Vector_impl_dataC2Ev"
 "_ZNSt12_Vector_baseISt6vectorIySaIyEESaIS2_EE19_M_get_Tp_allocatorEv"
 "_ZNSt12_Vector_baseISt6vectorIySaIyEESaIS2_EEC2EyRKS3_"
 "_ZNSt12_Vector_baseISt6vectorIySaIyEESaIS2_EED2Ev"
 "_ZNSt12_Vector_baseIySaIyEE11_M_allocateEy"
 "_ZNSt12_Vector_baseIySaIyEE12_Vector_implC1ERKS0_"
 "_ZNSt12_Vector_baseIySaIyEE12_Vector_implC1Ev"
 "_ZNSt12_Vector_baseIySaIyEE12_Vector_implD1Ev"
 "_ZNSt12_Vector_baseIySaIyEE13_M_deallocateEPyy"
 "_ZNSt12_Vector_baseIySaIyEE17_M_create_storageEy"
 "_ZNSt12_Vector_baseIySaIyEE17_Vector_impl_dataC2Ev"
 "_ZNSt12_Vector_baseIySaIyEE19_M_get_Tp_allocatorEv"
 "_ZNSt12_Vector_baseIySaIyEEC2ERKS0_"
 "_ZNSt12_Vector_baseIySaIyEEC2Ev"
 "_ZNSt12_Vector_baseIySaIyEEC2EyRKS0_"
 "_ZNSt12_Vector_baseIySaIyEED2Ev"
 "_ZNSt13__atomic_baseIbEaSEb"
 "_ZNSt13__atomic_baseIbEC1Eb"
 "_ZNSt13__atomic_baseIiEaSEi"
 "_ZNSt13__atomic_baseIiEC2Ei"
 "_ZNSt13__atomic_baseIPN9quickpool5sched10RingBufferIPSt8functionIFvvEEEEEC1ES8_"
 "_ZNSt13__atomic_baseIyEaSEy"
 "_ZNSt13__atomic_baseIyEC2Ey"
 "_ZNSt13__atomic_baseIyEmmEv"
 "_ZNSt13__atomic_baseIyEppEi"
 "_ZNSt13__atomic_baseIyEppEv"
 "_ZNSt14__shared_countILN9__gnu_cxx12_Lock_policyE2EE7_M_swapERS2_"
 "_ZNSt14__shared_countILN9__gnu_cxx12_Lock_policyE2EEC1ERKS2_"
 "_ZNSt14__shared_countILN9__gnu_cxx12_Lock_policyE2EEC1Ev"
 "_ZNSt14__shared_countILN9__gnu_cxx12_Lock_policyE2EED1Ev"
 "_ZNSt14_Function_baseC2Ev"
 "_ZNSt14_Function_baseD2Ev"
 "_ZNSt14numeric_limitsIdE9quiet_NaNEv"
 "_ZNSt14numeric_limitsIiE3minEv"
 "_ZNSt15__exception_ptr13exception_ptr4swapERS0_"
 "_ZNSt15__exception_ptr13exception_ptraSEOS0_"
 "_ZNSt15__exception_ptr13exception_ptraSERKS0_"
 "_ZNSt15__exception_ptr13exception_ptrC1EDn"
 "_ZNSt15__exception_ptr13exception_ptrC1EOS0_"
 "_ZNSt15__exception_ptr13exception_ptrC1ERKS0_"
 "_ZNSt15__exception_ptr13exception_ptrD1Ev"
 "_ZNSt15__new_allocatorIcED2Ev"
 "_ZNSt15__new_allocatorIdE10deallocateEPdy"
 "_ZNSt15__new_allocatorIdE8allocateEyPKv"
 "_ZNSt15__new_allocatorIdED2Ev"
 "_ZNSt15__new_allocatorIiE10deallocateEPiy"
 "_ZNSt15__new_allocatorIiE8allocateEyPKv"
 "_ZNSt15__new_allocatorIiED2Ev"
 "_ZNSt15__new_allocatorIN9quickpool5sched9TaskQueueEED2Ev"
 "_ZNSt15__new_allocatorISt10unique_ptrIN9quickpool5sched10RingBufferIPSt8functionIFvvEEEESt14default_deleteIS8_EEE10deallocateEPSB_y"
 "_ZNSt15__new_allocatorISt10unique_ptrIN9quickpool5sched10RingBufferIPSt8functionIFvvEEEESt14default_deleteIS8_EEE8allocateEyPKv"
 "_ZNSt15__new_allocatorISt10unique_ptrIN9quickpool5sched10RingBufferIPSt8functionIFvvEEEESt14default_deleteIS8_EEED2Ev"
 "_ZNSt15__new_allocatorISt4pairIdyEE10deallocateEPS1_y"
 "_ZNSt15__new_allocatorISt4pairIdyEE8allocateEyPKv"
 "_ZNSt15__new_allocatorISt4pairIdyEED2Ev"
 "_ZNSt15__new_allocatorISt6threadE10deallocateEPS0_y"
 "_ZNSt15__new_allocatorISt6threadE8allocateEyPKv"
 "_ZNSt15__new_allocatorISt6threadED2Ev"
 "_ZNSt15__new_allocatorISt6vectorIdSaIdEEE10deallocateEPS2_y"
 "_ZNSt15__new_allocatorISt6vectorIdSaIdEEE8allocateEyPKv"
 "_ZNSt15__new_allocatorISt6vectorIdSaIdEEED2Ev"
 "_ZNSt15__new_allocatorISt6vectorIySaIyEEE10deallocateEPS2_y"
 "_ZNSt15__new_allocatorISt6vectorIySaIyEEE8allocateEyPKv"
 "_ZNSt15__new_allocatorISt6vectorIySaIyEEED2Ev"
 "_ZNSt15__new_allocatorIyE10deallocateEPyy"
 "_ZNSt15__new_allocatorIyE8allocateEyPKv"
 "_ZNSt15__new_allocatorIyED2Ev"
 "_ZNSt15__uniq_ptr_dataIN9quickpool10ThreadPoolESt14default_deleteIS1_ELb1ELb1EECI1St15__uniq_ptr_implIS1_S3_EEPS1_"
 "_ZNSt15__uniq_ptr_dataIN9quickpool5sched10RingBufferIPSt8functionIFvvEEEESt14default_deleteIS7_ELb1ELb1EEC1EOSA_"
 "_ZNSt15__uniq_ptr_dataIN9quickpool5sched10RingBufferIPSt8functionIFvvEEEESt14default_deleteIS7_ELb1ELb1EECI1St15__uniq_ptr_implIS7_S9_EEPS7_"
 "_ZNSt15__uniq_ptr_dataINSt6thread6_StateESt14default_deleteIS1_ELb1ELb1EECI1St15__uniq_ptr_implIS1_S3_EEPS1_"
 "_ZNSt15__uniq_ptr_dataIPSt8functionIFvvEESt14default_deleteIA_S3_ELb1ELb1EECI1St15__uniq_ptr_implIS3_S6_EEPS3_"
 "_ZNSt15__uniq_ptr_implIN9quickpool10ThreadPoolESt14default_deleteIS1_EE6_M_ptrEv"
 "_ZNSt15__uniq_ptr_implIN9quickpool10ThreadPoolESt14default_deleteIS1_EEC2EPS1_"
 "_ZNSt15__uniq_ptr_implIN9quickpool5sched10RingBufferIPSt8functionIFvvEEEESt14default_deleteIS7_EE10_M_deleterEv"
 "_ZNSt15__uniq_ptr_implIN9quickpool5sched10RingBufferIPSt8functionIFvvEEEESt14default_deleteIS7_EE6_M_ptrEv"
 "_ZNSt15__uniq_ptr_implIN9quickpool5sched10RingBufferIPSt8functionIFvvEEEESt14default_deleteIS7_EEC2EOSA_"
 "_ZNSt15__uniq_ptr_implIN9quickpool5sched10RingBufferIPSt8functionIFvvEEEESt14default_deleteIS7_EEC2EPS7_"
 "_ZNSt15__uniq_ptr_implINSt6thread6_StateESt14default_deleteIS1_EE10_M_deleterEv"
 "_ZNSt15__uniq_ptr_implINSt6thread6_StateESt14default_deleteIS1_EE6_M_ptrEv"
 "_ZNSt15__uniq_ptr_implINSt6thread6_StateESt14default_deleteIS1_EEC2EPS1_"
 "_ZNSt15__uniq_ptr_implIPSt8functionIFvvEESt14default_deleteIA_S3_EE10_M_deleterEv"
 "_ZNSt15__uniq_ptr_implIPSt8functionIFvvEESt14default_deleteIA_S3_EE6_M_ptrEv"
 "_ZNSt15__uniq_ptr_implIPSt8functionIFvvEESt14default_deleteIA_S3_EEC2EPS3_"
 "_ZNSt16_Sp_counted_baseILN9__gnu_cxx12_Lock_policyE2EE10_M_destroyEv"
 "_ZNSt16_Sp_counted_baseILN9__gnu_cxx12_Lock_policyE2EE10_M_releaseEv"
 "_ZNSt16_Sp_counted_baseILN9__gnu_cxx12_Lock_policyE2EE15_M_add_ref_copyEv"
 "_ZNSt16_Sp_counted_baseILN9__gnu_cxx12_Lock_policyE2EE19_M_release_last_useEv"
 "_ZNSt16_Sp_counted_baseILN9__gnu_cxx12_Lock_policyE2EE24_M_release_last_use_coldEv"
 "_ZNSt16_Sp_counted_baseILN9__gnu_cxx12_Lock_policyE2EEC2Ev"
 "_ZNSt16_Sp_counted_baseILN9__gnu_cxx12_Lock_policyE2EED2Ev"
 "_ZNSt16allocator_traitsIN9quickpool3mem7aligned9allocatorINS0_5sched9TaskQueueELy64EEEE10_S_destroyIS6_S5_EEDTcldtfp_7destroyfp0_EERT_PT0_i"
 "_ZNSt16allocator_traitsIN9quickpool3mem7aligned9allocatorINS0_5sched9TaskQueueELy64EEEE10deallocateERS6_PS5_y"
 "_ZNSt16allocator_traitsIN9quickpool3mem7aligned9allocatorINS0_5sched9TaskQueueELy64EEEE11_S_max_sizeIKS6_EEDTcldtfp_8max_sizeEERT_i"
 "_ZNSt16allocator_traitsIN9quickpool3mem7aligned9allocatorINS0_5sched9TaskQueueELy64EEEE7destroyIS5_EEvRS6_PT_"
 "_ZNSt16allocator_traitsIN9quickpool3mem7aligned9allocatorINS0_5sched9TaskQueueELy64EEEE8allocateERS6_y"
 "_ZNSt16allocator_traitsIN9quickpool3mem7aligned9allocatorINS0_5sched9TaskQueueELy64EEEE8max_sizeERKS6_"
 "_ZNSt16allocator_traitsIN9quickpool3mem7aligned9allocatorINS0_5sched9TaskQueueELy64EEEE9constructIS5_JEEENSt9enable_ifIX15__can_constructIS6_T_JDpT0_EEEvE4typeERS6_PSA_DpOSB_"
 "_ZNSt18condition_variable10wait_untilINSt6chrono3_V212steady_clockENS1_8durationIxSt5ratioILx1ELx1000000000EEEEEESt9cv_statusRSt11unique_lockISt5mutexERKNS1_10time_pointIT_T0_EE"
 "_ZNSt18condition_variable10wait_untilINSt6chrono3_V212steady_clockENS1_8durationIxSt5ratioILx1ELx1000000000EEEEZN9quickpool5sched11TaskManager15wait_for_finishEyEUlvE_EEbRSt11unique_lockISt5mutexERKNS1_10time_pointIT_T0_EET1_"
 "_ZNSt18condition_variable17__wait_until_implINSt6chrono8durationIxSt5ratioILx1ELx1000000000EEEEEESt9cv_statusRSt11unique_lockISt5mutexERKNS1_10time_pointINS1_3_V212system_clockET_EE"
 "_ZNSt18condition_variable4waitIZN9quickpool5sched11TaskManager15wait_for_finishEyEUlvE_EEvRSt11unique_lockISt5mutexET_"
 "_ZNSt18condition_variable4waitIZN9quickpool5sched11TaskManager17rethrow_exceptionEvEUlvE_EEvRSt11unique_lockISt5mutexET_"
 "_ZNSt18condition_variable4waitIZN9quickpool5sched9TaskQueue4waitEvEUlvE_EEvRSt11unique_lockISt5mutexET_"
 "_ZNSt18condition_variable8wait_forIxSt5ratioILx1ELx1000EEZN9quickpool5sched11TaskManager15wait_for_finishEyEUlvE_EEbRSt11unique_lockISt5mutexERKNSt6chrono8durationIT_T0_EET1_"
 "_ZNSt20__copy_move_backwardILb1ELb1ESt26random_access_iterator_tagE13__copy_move_bIddEEPT0_PT_S6_S4_"
 "_ZNSt20__uninitialized_copyILb1EE13__uninit_copyIN9__gnu_cxx17__normal_iteratorIPKdSt6vectorIdSaIdEEEEPdEET0_T_SC_SB_"
 "_ZNSt20__uninitialized_copyILb1EE13__uninit_copyIN9__gnu_cxx17__normal_iteratorIPKySt6vectorIySaIyEEEEPyEET0_T_SC_SB_"
 "_ZNSt20__uninitialized_copyILb1EE13__uninit_copyIPKyPyEET0_T_S6_S5_"
 "_ZNSt20__uninitialized_copyILb1EE13__uninit_copyIPyS2_EET0_T_S4_S3_"
 "_ZNSt22__uninitialized_fill_nILb0EE15__uninit_fill_nIPSt6vectorIdSaIdEEyS4_EET_S6_T0_RKT1_"
 "_ZNSt22__uninitialized_fill_nILb0EE15__uninit_fill_nIPSt6vectorIySaIyEEyS4_EET_S6_T0_RKT1_"
 "_ZNSt22__uninitialized_fill_nILb1EE15__uninit_fill_nIPdydEET_S3_T0_RKT1_"
 "_ZNSt22__uninitialized_fill_nILb1EE15__uninit_fill_nIPiyiEET_S3_T0_RKT1_"
 "_ZNSt27__uninitialized_default_n_1ILb0EE18__uninit_default_nIPSt6threadyEET_S4_T0_"
 "_ZNSt27__uninitialized_default_n_1ILb1EE18__uninit_default_nIPyyEET_S3_T0_"
 "_ZNSt4pairIdyEaSEOS0_"
 "_ZNSt4pairIdyEC1IRdRyLb1EEEOT_OT0_"
 "_ZNSt5mutex13native_handleEv"
 "_ZNSt5mutex4lockEv"
 "_ZNSt5mutex6unlockEv"
 "_ZNSt5mutexC1Ev"
 "_ZNSt5mutexD1Ev"
 "_ZNSt5tupleIJPN9quickpool10ThreadPoolESt14default_deleteIS1_EEEC1ILb1ELb1EEEv"
 "_ZNSt5tupleIJPN9quickpool5sched10RingBufferIPSt8functionIFvvEEEESt14default_deleteIS7_EEEC1EOSB_"
 "_ZNSt5tupleIJPN9quickpool5sched10RingBufferIPSt8functionIFvvEEEESt14default_deleteIS7_EEEC1ILb1ELb1EEEv"
 "_ZNSt5tupleIJPNSt6thread6_StateESt14default_deleteIS1_EEEC1ILb1ELb1EEEv"
 "_ZNSt5tupleIJPPSt8functionIFvvEESt14default_deleteIA_S3_EEEC1ILb1ELb1EEEv"
 "_ZNSt5tupleIJZN9quickpool10ThreadPool10add_workerEyEUlvE_EEC1IJS2_ELb1ELb1EEEDpOT_"
 "_ZNSt6atomicIbEaSEb"
 "_ZNSt6atomicIbEC1Eb"
 "_ZNSt6atomicIiEC2Ei"
 "_ZNSt6atomicIN9quickpool4loop5StateEE21compare_exchange_weakERS2_S2_St12memory_order"
 "_ZNSt6atomicIN9quickpool4loop5StateEE21compare_exchange_weakERS2_S2_St12memory_orderS5_"
 "_ZNSt6atomicIN9quickpool4loop5StateEE5storeES2_St12memory_order"
 "_ZNSt6atomicIN9quickpool4loop5StateEEC2ES2_"
 "_ZNSt6atomicIN9quickpool5sched11TaskManager6StatusEE5storeES3_St12memory_order"
 "_ZNSt6atomicIN9quickpool5sched11TaskManager6StatusEEaSES3_"
 "_ZNSt6atomicIN9quickpool5sched11TaskManager6StatusEEC2ES3_"
 "_ZNSt6atomicIPN9quickpool5sched10RingBufferIPSt8functionIFvvEEEEE5storeES8_St12memory_order"
 "_ZNSt6atomicIPN9quickpool5sched10RingBufferIPSt8functionIFvvEEEEEC1ES8_"
 "_ZNSt6atomicIyEC2Ey"
 "_ZNSt6chrono10time_pointINS_3_V212steady_clockENS_8durationIxSt5ratioILx1ELx1000000000EEEEEC1ERKS6_"
 "_ZNSt6chrono10time_pointINS_3_V212system_clockENS_8durationIxSt5ratioILx1ELx1000000000EEEEEC1ERKS6_"
 "_ZNSt6chrono10time_pointINS_3_V212system_clockENS_8durationIxSt5ratioILx1ELx1EEEEEC1ERKS6_"
 "_ZNSt6chrono13duration_castINS_8durationIxSt5ratioILx1ELx1000000000EEEExS2_ILx1ELx1000EEEENSt9enable_ifIXsrNS_13__is_durationIT_EE5valueES8_E4typeERKNS1_IT0_T1_EE"
 "_ZNSt6chrono13duration_castINS_8durationIxSt5ratioILx1ELx1000000000EEEExS2_ILx1ELx1EEEENSt9enable_ifIXsrNS_13__is_durationIT_EE5valueES8_E4typeERKNS1_IT0_T1_EE"
 "_ZNSt6chrono13duration_castINS_8durationIxSt5ratioILx1ELx1000000000EEEExS3_EENSt9enable_ifIXsrNS_13__is_durationIT_EE5valueES7_E4typeERKNS1_IT0_T1_EE"
 "_ZNSt6chrono13duration_castINS_8durationIxSt5ratioILx1ELx1EEEExS2_ILx1ELx1000000000EEEENSt9enable_ifIXsrNS_13__is_durationIT_EE5valueES8_E4typeERKNS1_IT0_T1_EE"
 "_ZNSt6chrono15time_point_castINS_8durationIxSt5ratioILx1ELx1EEEENS_3_V212system_clockENS1_IxS2_ILx1ELx1000000000EEEEEENSt9enable_ifIXsrNS_13__is_durationIT_EE5valueENS_10time_pointIT0_SB_EEE4typeERKNSD_ISE_T1_EE"
 "_ZNSt6chrono20__duration_cast_implINS_8durationIxSt5ratioILx1ELx1000000000EEEES2_ILx1000000000ELx1EExLb0ELb1EE6__castIxS2_ILx1ELx1EEEES4_RKNS1_IT_T0_EE"
 "_ZNSt6chrono20__duration_cast_implINS_8durationIxSt5ratioILx1ELx1000000000EEEES2_ILx1000000ELx1EExLb0ELb1EE6__castIxS2_ILx1ELx1000EEEES4_RKNS1_IT_T0_EE"
 "_ZNSt6chrono20__duration_cast_implINS_8durationIxSt5ratioILx1ELx1EEEES2_ILx1ELx1000000000EExLb1ELb0EE6__castIxS5_EES4_RKNS1_IT_T0_EE"
 "_ZNSt6chrono4ceilINS_8durationIxSt5ratioILx1ELx1000000000EEEExS2_ILx1ELx1000EEEENSt9enable_ifIXsrNS_13__is_durationIT_EE5valueES8_E4typeERKNS1_IT0_T1_EE"
 "_ZNSt6chrono4ceilINS_8durationIxSt5ratioILx1ELx1000000000EEEExS3_EENSt9enable_ifIXsrNS_13__is_durationIT_EE5valueES7_E4typeERKNS1_IT0_T1_EE"
 "_ZNSt6chrono8durationIxSt5ratioILx1ELx1000000000EEEC1IivEERKT_"
 "_ZNSt6chrono8durationIxSt5ratioILx1ELx1000000000EEEC1IxS1_ILx1ELx1000EEvEERKNS0_IT_T0_EE"
 "_ZNSt6chrono8durationIxSt5ratioILx1ELx1000000000EEEC1IxS1_ILx1ELx1EEvEERKNS0_IT_T0_EE"
 "_ZNSt6chrono8durationIxSt5ratioILx1ELx1000000000EEEC1IxvEERKT_"
 "_ZNSt6chrono8durationIxSt5ratioILx1ELx1000EEEC1IyvEERKT_"
 "_ZNSt6chrono8durationIxSt5ratioILx1ELx1EEEC1IxvEERKT_"
 "_ZNSt6chronoltINS_3_V212steady_clockENS_8durationIxSt5ratioILx1ELx1000000000EEEES6_EEbRKNS_10time_pointIT_T0_EERKNS7_IS8_T1_EE"
 "_ZNSt6chronoltINS_3_V212system_clockENS_8durationIxSt5ratioILx1ELx1000000000EEEES6_EEbRKNS_10time_pointIT_T0_EERKNS7_IS8_T1_EE"
 "_ZNSt6chronoltIxSt5ratioILx1ELx1000000000EExS1_ILx1ELx1000EEEEbRKNS_8durationIT_T0_EERKNS4_IT1_T2_EE"
 "_ZNSt6chronoltIxSt5ratioILx1ELx1000000000EExS2_EEbRKNS_8durationIT_T0_EERKNS3_IT1_T2_EE"
 "_ZNSt6chronomiINS_3_V212steady_clockENS_8durationIxSt5ratioILx1ELx1000000000EEEES6_EENSt11common_typeIJT0_T1_EE4typeERKNS_10time_pointIT_S8_EERKNSC_ISD_S9_EE"
 "_ZNSt6chronomiINS_3_V212system_clockENS_8durationIxSt5ratioILx1ELx1000000000EEEENS3_IxS4_ILx1ELx1EEEEEENSt11common_typeIJT0_T1_EE4typeERKNS_10time_pointIT_SA_EERKNSE_ISF_SB_EE"
 "_ZNSt6chronomiIxSt5ratioILx1ELx1000000000EExS1_ILx1ELx1EEEENSt11common_typeIJNS_8durationIT_T0_EENS5_IT1_T2_EEEE4typeERKS8_RKSB_"
 "_ZNSt6chronomiIxSt5ratioILx1ELx1000000000EExS2_EENSt11common_typeIJNS_8durationIT_T0_EENS4_IT1_T2_EEEE4typeERKS7_RKSA_"
 "_ZNSt6chronoplINS_3_V212steady_clockENS_8durationIxSt5ratioILx1ELx1000000000EEEExS5_EENS_10time_pointIT_NSt11common_typeIJT0_NS3_IT1_T2_EEEE4typeEEERKNS7_IS8_SA_EERKSD_"
 "_ZNSt6chronoplINS_3_V212system_clockENS_8durationIxSt5ratioILx1ELx1000000000EEEExS5_EENS_10time_pointIT_NSt11common_typeIJT0_NS3_IT1_T2_EEEE4typeEEERKNS7_IS8_SA_EERKSD_"
 "_ZNSt6chronoplIxSt5ratioILx1ELx1000000000EExS2_EENSt11common_typeIJNS_8durationIT_T0_EENS4_IT1_T2_EEEE4typeERKS7_RKSA_"
 "_ZNSt6thread11_State_implINS_8_InvokerISt5tupleIJZN9quickpool10ThreadPool10add_workerEyEUlvE_EEEEE6_M_runEv"
 "_ZNSt6thread11_State_implINS_8_InvokerISt5tupleIJZN9quickpool10ThreadPool10add_workerEyEUlvE_EEEEEC1IJS5_EEEDpOT_"
 "_ZNSt6thread11_State_implINS_8_InvokerISt5tupleIJZN9quickpool10ThreadPool10add_workerEyEUlvE_EEEEED0Ev"
 "_ZNSt6thread11_State_implINS_8_InvokerISt5tupleIJZN9quickpool10ThreadPool10add_workerEyEUlvE_EEEEED1Ev"
 "_ZNSt6thread24_M_thread_deps_never_runEv"
 "_ZNSt6thread2idC1Ev"
 "_ZNSt6thread2idC1Ey"
 "_ZNSt6thread4swapERS_"
 "_ZNSt6thread6_StateC2Ev"
 "_ZNSt6thread8_InvokerISt5tupleIJZN9quickpool10ThreadPool10add_workerEyEUlvE_EEE9_M_invokeIJLy0EEEEvSt12_Index_tupleIJXspT_EEE"
 "_ZNSt6thread8_InvokerISt5tupleIJZN9quickpool10ThreadPool10add_workerEyEUlvE_EEEC1IJS4_EEEDpOT_"
 "_ZNSt6thread8_InvokerISt5tupleIJZN9quickpool10ThreadPool10add_workerEyEUlvE_EEEclEv"
 "_ZNSt6threadaSEOS_"
 "_ZNSt6threadC1Ev"
 "_ZNSt6threadC1IZN9quickpool10ThreadPool10add_workerEyEUlvE_JEvEEOT_DpOT0_"
 "_ZNSt6threadD1Ev"
 "_ZNSt6vectorIdSaIdEE11_S_max_sizeERKS0_"
 "_ZNSt6vectorIdSaIdEE11_S_relocateEPdS2_S2_RS0_"
 "_ZNSt6vectorIdSaIdEE12emplace_backIJdEEERdDpOT_"
 "_ZNSt6vectorIdSaIdEE15_M_erase_at_endEPd"
 "_ZNSt6vectorIdSaIdEE17_M_realloc_appendIJdEEEvDpOT_"
 "_ZNSt6vectorIdSaIdEE17_M_realloc_appendIJRKdEEEvDpOT_"
 "_ZNSt6vectorIdSaIdEE17_S_check_init_lenEyRKS0_"
 "_ZNSt6vectorIdSaIdEE18_M_fill_initializeEyRKd"
 "_ZNSt6vectorIdSaIdEE3endEv"
 "_ZNSt6vectorIdSaIdEE4backEv"
 "_ZNSt6vectorIdSaIdEE5beginEv"
 "_ZNSt6vectorIdSaIdEE5clearEv"
 "_ZNSt6vectorIdSaIdEE7reserveEy"
 "_ZNSt6vectorIdSaIdEE9push_backEOd"
 "_ZNSt6vectorIdSaIdEE9push_backERKd"
 "_ZNSt6vectorIdSaIdEEC1ERKS1_"
 "_ZNSt6vectorIdSaIdEEC1Ev"
 "_ZNSt6vectorIdSaIdEEC1EyRKdRKS0_"
 "_ZNSt6vectorIdSaIdEED1Ev"
 "_ZNSt6vectorIdSaIdEEixEy"
 "_ZNSt6vectorIiSaIiEE11_S_max_sizeERKS0_"
 "_ZNSt6vectorIiSaIiEE17_S_check_init_lenEyRKS0_"
 "_ZNSt6vectorIiSaIiEE18_M_fill_initializeEyRKi"
 "_ZNSt6vectorIiSaIiEEC1EyRKiRKS0_"
 "_ZNSt6vectorIiSaIiEED1Ev"
 "_ZNSt6vectorIiSaIiEEixEy"
 "_ZNSt6vectorIN9quickpool5sched9TaskQueueENS0_3mem7aligned9allocatorIS2_Ly64EEEE11_S_max_sizeERKS6_"
 "_ZNSt6vectorIN9quickpool5sched9TaskQueueENS0_3mem7aligned9allocatorIS2_Ly64EEEE14_M_move_assignEOS7_St17integral_constantIbLb1EE"
 "_ZNSt6vectorIN9quickpool5sched9TaskQueueENS0_3mem7aligned9allocatorIS2_Ly64EEEE17_S_check_init_lenEyRKS6_"
 "_ZNSt6vectorIN9quickpool5sched9TaskQueueENS0_3mem7aligned9allocatorIS2_Ly64EEEE21_M_default_initializeEy"
 "_ZNSt6vectorIN9quickpool5sched9TaskQueueENS0_3mem7aligned9allocatorIS2_Ly64EEEE3endEv"
 "_ZNSt6vectorIN9quickpool5sched9TaskQueueENS0_3mem7aligned9allocatorIS2_Ly64EEEE4swapERS7_"
 "_ZNSt6vectorIN9quickpool5sched9TaskQueueENS0_3mem7aligned9allocatorIS2_Ly64EEEE5beginEv"
 "_ZNSt6vectorIN9quickpool5sched9TaskQueueENS0_3mem7aligned9allocatorIS2_Ly64EEEEaSEOS7_"
 "_ZNSt6vectorIN9quickpool5sched9TaskQueueENS0_3mem7aligned9allocatorIS2_Ly64EEEEC1ERKS6_"
 "_ZNSt6vectorIN9quickpool5sched9TaskQueueENS0_3mem7aligned9allocatorIS2_Ly64EEEEC1EyRKS6_"
 "_ZNSt6vectorIN9quickpool5sched9TaskQueueENS0_3mem7aligned9allocatorIS2_Ly64EEEED1Ev"
 "_ZNSt6vectorIN9quickpool5sched9TaskQueueENS0_3mem7aligned9allocatorIS2_Ly64EEEEixEy"
 "_ZNSt6vectorIS_IdSaIdEESaIS1_EE11_S_max_sizeERKS2_"
 "_ZNSt6vectorIS_IdSaIdEESaIS1_EE17_S_check_init_lenEyRKS2_"
 "_ZNSt6vectorIS_IdSaIdEESaIS1_EE18_M_fill_initializeEyRKS1_"
 "_ZNSt6vectorIS_IdSaIdEESaIS1_EEC1EyRKS1_RKS2_"
 "_ZNSt6vectorIS_IdSaIdEESaIS1_EED1Ev"
 "_ZNSt6vectorIS_IdSaIdEESaIS1_EEixEy"
 "_ZNSt6vectorIS_IySaIyEESaIS1_EE11_S_max_sizeERKS2_"
 "_ZNSt6vectorIS_IySaIyEESaIS1_EE17_S_check_init_lenEyRKS2_"
 "_ZNSt6vectorIS_IySaIyEESaIS1_EE18_M_fill_initializeEyRKS1_"
 "_ZNSt6vectorIS_IySaIyEESaIS1_EEC1EyRKS1_RKS2_"
 "_ZNSt6vectorIS_IySaIyEESaIS1_EED1Ev"
 "_ZNSt6vectorIS_IySaIyEESaIS1_EEixEy"
 "_ZNSt6vectorISt10unique_ptrIN9quickpool5sched10RingBufferIPSt8functionIFvvEEEESt14default_deleteIS8_EESaISB_EE11_S_max_sizeERKSC_"
 "_ZNSt6vectorISt10unique_ptrIN9quickpool5sched10RingBufferIPSt8functionIFvvEEEESt14default_deleteIS8_EESaISB_EE11_S_relocateEPSB_SE_SE_RSC_"
 "_ZNSt6vectorISt10unique_ptrIN9quickpool5sched10RingBufferIPSt8functionIFvvEEEESt14default_deleteIS8_EESaISB_EE12emplace_backIJRPS8_EEERSB_DpOT_"
 "_ZNSt6vectorISt10unique_ptrIN9quickpool5sched10RingBufferIPSt8functionIFvvEEEESt14default_deleteIS8_EESaISB_EE17_M_realloc_appendIJRPS8_EEEvDpOT_"
 "_ZNSt6vectorISt10unique_ptrIN9quickpool5sched10RingBufferIPSt8functionIFvvEEEESt14default_deleteIS8_EESaISB_EE3endEv"
 "_ZNSt6vectorISt10unique_ptrIN9quickpool5sched10RingBufferIPSt8functionIFvvEEEESt14default_deleteIS8_EESaISB_EE4backEv"
 "_ZNSt6vectorISt10unique_ptrIN9quickpool5sched10RingBufferIPSt8functionIFvvEEEESt14default_deleteIS8_EESaISB_EE5beginEv"
 "_ZNSt6vectorISt10unique_ptrIN9quickpool5sched10RingBufferIPSt8functionIFvvEEEESt14default_deleteIS8_EESaISB_EEC1Ev"
 "_ZNSt6vectorISt10unique_ptrIN9quickpool5sched10RingBufferIPSt8functionIFvvEEEESt14default_deleteIS8_EESaISB_EED1Ev"
 "_ZNSt6vectorISt4pairIdyESaIS1_EE11_S_max_sizeERKS2_"
 "_ZNSt6vectorISt4pairIdyESaIS1_EE11_S_relocateEPS1_S4_S4_RS2_"
 "_ZNSt6vectorISt4pairIdyESaIS1_EE12emplace_backIJRdRyEEERS1_DpOT_"
 "_ZNSt6vectorISt4pairIdyESaIS1_EE17_M_realloc_appendIJRdRyEEEvDpOT_"
 "_ZNSt6vectorISt4pairIdyESaIS1_EE3endEv"
 "_ZNSt6vectorISt4pairIdyESaIS1_EE4backEv"
 "_ZNSt6vectorISt4pairIdyESaIS1_EE5beginEv"
 "_ZNSt6vectorISt4pairIdyESaIS1_EEC1Ev"
 "_ZNSt6vectorISt4pairIdyESaIS1_EED1Ev"
 "_ZNSt6vectorISt4pairIdyESaIS1_EEixEy"
 "_ZNSt6vectorISt6threadSaIS0_EE11_S_max_sizeERKS1_"
 "_ZNSt6vectorISt6threadSaIS0_EE14_M_move_assignEOS2_St17integral_constantIbLb1EE"
 "_ZNSt6vectorISt6threadSaIS0_EE17_S_check_init_lenEyRKS1_"
 "_ZNSt6vectorISt6threadSaIS0_EE21_M_default_initializeEy"
 "_ZNSt6vectorISt6threadSaIS0_EE3endEv"
 "_ZNSt6vectorISt6threadSaIS0_EE5beginEv"
 "_ZNSt6vectorISt6threadSaIS0_EEaSEOS2_"
 "_ZNSt6vectorISt6threadSaIS0_EEC1ERKS1_"
 "_ZNSt6vectorISt6threadSaIS0_EEC1Ev"
 "_ZNSt6vectorISt6threadSaIS0_EEC1EyRKS1_"
 "_ZNSt6vectorISt6threadSaIS0_EED1Ev"
 "_ZNSt6vectorISt6threadSaIS0_EEixEy"
 "_ZNSt6vectorIySaIyEE11_S_max_sizeERKS0_"
 "_ZNSt6vectorIySaIyEE11_S_relocateEPyS2_S2_RS0_"
 "_ZNSt6vectorIySaIyEE12emplace_backIJyEEERyDpOT_"
 "_ZNSt6vectorIySaIyEE15_M_erase_at_endEPy"
 "_ZNSt6vectorIySaIyEE17_M_default_appendEy"
 "_ZNSt6vectorIySaIyEE17_M_realloc_appendIJRKyEEEvDpOT_"
 "_ZNSt6vectorIySaIyEE17_M_realloc_appendIJyEEEvDpOT_"
 "_ZNSt6vectorIySaIyEE17_S_check_init_lenEyRKS0_"
 "_ZNSt6vectorIySaIyEE20_M_allocate_and_copyIN9__gnu_cxx17__normal_iteratorIPKyS1_EEEEPyyT_S9_"
 "_ZNSt6vectorIySaIyEE21_M_range_initialize_nIPKyEEvT_S5_y"
 "_ZNSt6vectorIySaIyEE3endEv"
 "_ZNSt6vectorIySaIyEE4backEv"
 "_ZNSt6vectorIySaIyEE5beginEv"
 "_ZNSt6vectorIySaIyEE5clearEv"
 "_ZNSt6vectorIySaIyEE6resizeEy"
 "_ZNSt6vectorIySaIyEE7reserveEy"
 "_ZNSt6vectorIySaIyEE9push_backEOy"
 "_ZNSt6vectorIySaIyEE9push_backERKy"
 "_ZNSt6vectorIySaIyEEaSERKS1_"
 "_ZNSt6vectorIySaIyEEC1ERKS1_"
 "_ZNSt6vectorIySaIyEEC1ESt16initializer_listIyERKS0_"
 "_ZNSt6vectorIySaIyEEC1Ev"
 "_ZNSt6vectorIySaIyEED1Ev"
 "_ZNSt6vectorIySaIyEEixEy"
 "_ZNSt7__cxx1112basic_stringIcSt11char_traitsIcESaIcEE12_Alloc_hiderD1Ev"
 "_ZNSt7__cxx1112basic_stringIcSt11char_traitsIcESaIcEE12_M_constructIPKcEEvT_S8_St20forward_iterator_tag"
 "_ZNSt7__cxx1112basic_stringIcSt11char_traitsIcESaIcEEC1IS3_EEPKcRKS3_"
 "_ZNSt8functionIFvvEE4swapERS1_"
 "_ZNSt8functionIFvvEEaSEOS1_"
 "_ZNSt8functionIFvvEEC1EOS1_"
 "_ZNSt8functionIFvvEEC1Ev"
 "_ZNSt8functionIFvvEED1Ev"
 "_ZNSt9__condvar10wait_untilERSt5mutexR8timespec"
 "_ZNSt9_Any_data9_M_accessEv"
 "_ZNSt9_Any_data9_M_accessIPKSt9type_infoEERT_v"
 "_ZNSt9bad_allocC1Ev"
 "_ZNSt9exceptionC2Ev"
 "_ZnwyPv"
 "_ZSt10__fill_n_aIPdydET_S1_T0_RKT1_St26random_access_iterator_tag"
 "_ZSt10__fill_n_aIPiyiET_S1_T0_RKT1_St26random_access_iterator_tag"
 "_ZSt10__fill_n_aIPyyyET_S1_T0_RKT1_St26random_access_iterator_tag"
 "_ZSt10__pop_heapIN9__gnu_cxx17__normal_iteratorIPdSt6vectorIdSaIdEEEENS0_5__ops15_Iter_less_iterEEvT_S9_S9_RT0_"
 "_ZSt10__pop_heapIN9__gnu_cxx17__normal_iteratorIPSt4pairIdyESt6vectorIS3_SaIS3_EEEENS0_5__ops15_Iter_less_iterEEvT_SB_SB_RT0_"
 "_ZSt10_ConstructISt6threadJEEvPT_DpOT0_"
 "_ZSt10_ConstructISt6vectorIdSaIdEEJRKS2_EEvPT_DpOT0_"
 "_ZSt10_ConstructISt6vectorIySaIyEEJRKS2_EEvPT_DpOT0_"
 "_ZSt10_ConstructIyJEEvPT_DpOT0_"
 "_ZSt11__addressofIKN9quickpool4loop5StateEEPT_RS4_"
 "_ZSt11__addressofIKN9quickpool5sched11TaskManager6StatusEEPT_RS5_"
 "_ZSt11__addressofIKSt6vectorIySaIyEEEPT_RS4_"
 "_ZSt11__addressofIN9quickpool4loop5StateEEPT_RS3_"
 "_ZSt11__addressofIN9quickpool5sched11TaskManager6StatusEEPT_RS4_"
 "_ZSt11__addressofIN9quickpool5sched9TaskQueueEEPT_RS3_"
 "_ZSt11__addressofISt10unique_ptrIN9quickpool5sched10RingBufferIPSt8functionIFvvEEEESt14default_deleteIS8_EEEPT_RSC_"
 "_ZSt11__addressofISt4pairIdyEEPT_RS2_"
 "_ZSt11__addressofISt5mutexEPT_RS1_"
 "_ZSt11__addressofISt6threadEPT_RS1_"
 "_ZSt11__addressofISt6vectorIdSaIdEEEPT_RS3_"
 "_ZSt11__addressofISt6vectorIySaIyEEEPT_RS3_"
 "_ZSt11__addressofIyEPT_RS0_"
 "_ZSt11__bit_widthIyEiT_"
 "_ZSt11__make_heapIN9__gnu_cxx17__normal_iteratorIPdSt6vectorIdSaIdEEEENS0_5__ops15_Iter_less_iterEEvT_S9_RT0_"
 "_ZSt11__make_heapIN9__gnu_cxx17__normal_iteratorIPSt4pairIdyESt6vectorIS3_SaIS3_EEEENS0_5__ops15_Iter_less_iterEEvT_SB_RT0_"
 "_ZSt11__push_heapIN9__gnu_cxx17__normal_iteratorIPdSt6vectorIdSaIdEEEExdNS0_5__ops14_Iter_less_valEEvT_T0_SA_T1_RT2_"
 "_ZSt11__push_heapIN9__gnu_cxx17__normal_iteratorIPSt4pairIdyESt6vectorIS3_SaIS3_EEEExS3_NS0_5__ops14_Iter_less_valEEvT_T0_SC_T1_RT2_"
 "_ZSt11__sort_heapIN9__gnu_cxx17__normal_iteratorIPSt4pairIdyESt6vectorIS3_SaIS3_EEEENS0_5__ops15_Iter_less_iterEEvT_SB_RT0_"
 "_ZSt11max_elementIN9__gnu_cxx17__normal_iteratorIPdSt6vectorIdSaIdEEEEET_S7_S7_"
 "_ZSt11max_elementIN9__gnu_cxx17__normal_iteratorIPySt6vectorIySaIyEEEEET_S7_S7_"
 "_ZSt11nth_elementIN9__gnu_cxx17__normal_iteratorIPdSt6vectorIdSaIdEEEEEvT_S7_S7_"
 "_ZSt12__get_helperILy0EPN9quickpool10ThreadPoolEJSt14default_deleteIS1_EEERKT0_RKSt11_Tuple_implIXT_EJS5_DpT1_EE"
 "_ZSt12__get_helperILy0EPN9quickpool10ThreadPoolEJSt14default_deleteIS1_EEERT0_RSt11_Tuple_implIXT_EJS5_DpT1_EE"
 "_ZSt12__get_helperILy0EPN9quickpool5sched10RingBufferIPSt8functionIFvvEEEEJSt14default_deleteIS7_EEERT0_RSt11_Tuple_implIXT_EJSB_DpT1_EE"
 "_ZSt12__get_helperILy0EPNSt6thread6_StateEJSt14default_deleteIS1_EEERT0_RSt11_Tuple_implIXT_EJS5_DpT1_EE"
 "_ZSt12__get_helperILy0EPPSt8functionIFvvEEJSt14default_deleteIA_S3_EEERKT0_RKSt11_Tuple_implIXT_EJS8_DpT1_EE"
 "_ZSt12__get_helperILy0EPPSt8functionIFvvEEJSt14default_deleteIA_S3_EEERT0_RSt11_Tuple_implIXT_EJS8_DpT1_EE"
 "_ZSt12__get_helperILy0EZN9quickpool10ThreadPool10add_workerEyEUlvE_JEERT0_RSt11_Tuple_implIXT_EJS3_DpT1_EE"
 "_ZSt12__get_helperILy1ESt14default_deleteIA_PSt8functionIFvvEEEJEERT0_RSt11_Tuple_implIXT_EJS7_DpT1_EE"
 "_ZSt12__get_helperILy1ESt14default_deleteIN9quickpool5sched10RingBufferIPSt8functionIFvvEEEEEJEERT0_RSt11_Tuple_implIXT_EJSA_DpT1_EE"
 "_ZSt12__get_helperILy1ESt14default_deleteINSt6thread6_StateEEJEERT0_RSt11_Tuple_implIXT_EJS4_DpT1_EE"
 "_ZSt12__miter_baseIN9__gnu_cxx17__normal_iteratorIPdSt6vectorIdSaIdEEEEET_S7_"
 "_ZSt12__miter_baseIN9__gnu_cxx17__normal_iteratorIPKdSt6vectorIdSaIdEEEEET_S8_"
 "_ZSt12__miter_baseIN9__gnu_cxx17__normal_iteratorIPKySt6vectorIySaIyEEEEET_S8_"
 "_ZSt12__miter_baseIPKyET_S2_"
 "_ZSt12__miter_baseIPyET_S1_"
 "_ZSt12__niter_baseIPdET_S1_"
 "_ZSt12__niter_baseIPdSt6vectorIdSaIdEEET_N9__gnu_cxx17__normal_iteratorIS4_T0_EE"
 "_ZSt12__niter_baseIPKdSt6vectorIdSaIdEEET_N9__gnu_cxx17__normal_iteratorIS5_T0_EE"
 "_ZSt12__niter_baseIPKyET_S2_"
 "_ZSt12__niter_baseIPKySt6vectorIySaIyEEET_N9__gnu_cxx17__normal_iteratorIS5_T0_EE"
 "_ZSt12__niter_baseIPSt10unique_ptrIN9quickpool5sched10RingBufferIPSt8functionIFvvEEEESt14default_deleteIS8_EEET_SD_"
 "_ZSt12__niter_baseIPSt4pairIdyEET_S3_"
 "_ZSt12__niter_baseIPyET_S1_"
 "_ZSt12__niter_baseIPySt6vectorIySaIyEEET_N9__gnu_cxx17__normal_iteratorIS4_T0_EE"
 "_ZSt12__niter_wrapIN9__gnu_cxx17__normal_iteratorIPdSt6vectorIdSaIdEEEES2_ET_S7_T0_"
 "_ZSt12__niter_wrapIN9__gnu_cxx17__normal_iteratorIPySt6vectorIySaIyEEEES2_ET_S7_T0_"
 "_ZSt12__niter_wrapIPdET_RKS1_S1_"
 "_ZSt12__niter_wrapIPyET_RKS1_S1_"
 "_ZSt12__relocate_aIPdS0_SaIdEET0_T_S3_S2_RT1_"
 "_ZSt12__relocate_aIPSt10unique_ptrIN9quickpool5sched10RingBufferIPSt8functionIFvvEEEESt14default_deleteIS8_EESC_SaISB_EET0_T_SF_SE_RT1_"
 "_ZSt12__relocate_aIPSt4pairIdyES2_SaIS1_EET0_T_S5_S4_RT1_"
 "_ZSt12__relocate_aIPyS0_SaIyEET0_T_S3_S2_RT1_"
 "_ZSt12__to_addressIdEPT_S1_"
 "_ZSt12__to_addressISt10unique_ptrIN9quickpool5sched10RingBufferIPSt8functionIFvvEEEESt14default_deleteIS8_EEEPT_SD_"
 "_ZSt12__to_addressISt4pairIdyEEPT_S3_"
 "_ZSt12__to_addressIyEPT_S1_"
 "_ZSt12partial_sortIN9__gnu_cxx17__normal_iteratorIPSt4pairIdyESt6vectorIS3_SaIS3_EEEEEvT_S9_S9_"
 "_ZSt13__adjust_heapIN9__gnu_cxx17__normal_iteratorIPdSt6vectorIdSaIdEEEExdNS0_5__ops15_Iter_less_iterEEvT_T0_SA_T1_T2_"
 "_ZSt13__adjust_heapIN9__gnu_cxx17__normal_iteratorIPSt4pairIdyESt6vectorIS3_SaIS3_EEEExS3_NS0_5__ops15_Iter_less_iterEEvT_T0_SC_T1_T2_"
 "_ZSt13__copy_move_aILb0EN9__gnu_cxx17__normal_iteratorIPKdSt6vectorIdSaIdEEEEPdET1_T0_SA_S9_"
 "_ZSt13__copy_move_aILb0EN9__gnu_cxx17__normal_iteratorIPKySt6vectorIySaIyEEEENS1_IPyS6_EEET1_T0_SB_SA_"
 "_ZSt13__copy_move_aILb0EN9__gnu_cxx17__normal_iteratorIPKySt6vectorIySaIyEEEEPyET1_T0_SA_S9_"
 "_ZSt13__copy_move_aILb0EPKyPyET1_T0_S4_S3_"
 "_ZSt13__copy_move_aILb0EPyS0_ET1_T0_S2_S1_"
 "_ZSt13__countl_zeroIyEiT_"
 "_ZSt13__heap_selectIN9__gnu_cxx17__normal_iteratorIPdSt6vectorIdSaIdEEEENS0_5__ops15_Iter_less_iterEEvT_S9_S9_T0_"
 "_ZSt13__heap_selectIN9__gnu_cxx17__normal_iteratorIPSt4pairIdyESt6vectorIS3_SaIS3_EEEENS0_5__ops15_Iter_less_iterEEvT_SB_SB_T0_"
 "_ZSt13__introselectIN9__gnu_cxx17__normal_iteratorIPdSt6vectorIdSaIdEEEExNS0_5__ops15_Iter_less_iterEEvT_S9_S9_T0_T1_"
 "_ZSt13__invoke_implIvZN9quickpool10ThreadPool10add_workerEyEUlvE_JEET_St14__invoke_otherOT0_DpOT1_"
 "_ZSt13__max_elementIN9__gnu_cxx17__normal_iteratorIPdSt6vectorIdSaIdEEEENS0_5__ops15_Iter_less_iterEET_S9_S9_T0_"
 "_ZSt13__max_elementIN9__gnu_cxx17__normal_iteratorIPySt6vectorIySaIyEEEENS0_5__ops15_Iter_less_iterEET_S9_S9_T0_"
 "_ZSt13__max_elementIPKdN9__gnu_cxx5__ops15_Iter_less_iterEET_S5_S5_T0_"
 "_ZSt13move_backwardIN9__gnu_cxx17__normal_iteratorIPdSt6vectorIdSaIdEEEES6_ET0_T_S8_S7_"
 "_ZSt14__copy_move_a1ILb0EPKdPdET1_T0_S4_S3_"
 "_ZSt14__copy_move_a1ILb0EPKyPyET1_T0_S4_S3_"
 "_ZSt14__copy_move_a1ILb0EPyS0_ET1_T0_S2_S1_"
 "_ZSt14__copy_move_a2ILb0EPKdPdET1_T0_S4_S3_"
 "_ZSt14__copy_move_a2ILb0EPKyPyET1_T0_S4_S3_"
 "_ZSt14__copy_move_a2ILb0EPyS0_ET1_T0_S2_S1_"
 "_ZSt14__partial_sortIN9__gnu_cxx17__normal_iteratorIPSt4pairIdyESt6vectorIS3_SaIS3_EEEENS0_5__ops15_Iter_less_iterEEvT_SB_SB_T0_"
 "_ZSt14__relocate_a_1IddENSt9enable_ifIXsrSt24__is_bitwise_relocatableIT_vE5valueEPS2_E4typeES4_S4_S4_RSaIT0_E"
 "_ZSt14__relocate_a_1IPSt10unique_ptrIN9quickpool5sched10RingBufferIPSt8functionIFvvEEEESt14default_deleteIS8_EESC_SaISB_EET0_T_SF_SE_RT1_"
 "_ZSt14__relocate_a_1IPSt4pairIdyES2_SaIS1_EET0_T_S5_S4_RT1_"
 "_ZSt14__relocate_a_1IyyENSt9enable_ifIXsrSt24__is_bitwise_relocatableIT_vE5valueEPS2_E4typeES4_S4_S4_RSaIT0_E"
 "_ZSt16__insertion_sortIN9__gnu_cxx17__normal_iteratorIPdSt6vectorIdSaIdEEEENS0_5__ops15_Iter_less_iterEEvT_S9_T0_"
 "_ZSt16forward_as_tupleIJEESt5tupleIJDpOT_EES3_"
 "_ZSt17__size_to_integery"
 "_ZSt18__do_uninit_fill_nIPSt6vectorIdSaIdEEyS2_ET_S4_T0_RKT1_"
 "_ZSt18__do_uninit_fill_nIPSt6vectorIySaIyEEyS2_ET_S4_T0_RKT1_"
 "_ZSt18uninitialized_copyIN9__gnu_cxx17__normal_iteratorIPKdSt6vectorIdSaIdEEEEPdET0_T_SA_S9_"
 "_ZSt18uninitialized_copyIN9__gnu_cxx17__normal_iteratorIPKySt6vectorIySaIyEEEEPyET0_T_SA_S9_"
 "_ZSt18uninitialized_copyIPKyPyET0_T_S4_S3_"
 "_ZSt18uninitialized_copyIPyS0_ET0_T_S2_S1_"
 "_ZSt19__relocate_object_aISt10unique_ptrIN9quickpool5sched10RingBufferIPSt8functionIFvvEEEESt14default_deleteIS8_EESB_SaISB_EEvPT_PT0_RT1_"
 "_ZSt19__relocate_object_aISt4pairIdyES1_SaIS1_EEvPT_PT0_RT1_"
 "_ZSt20uninitialized_fill_nIPdydET_S1_T0_RKT1_"
 "_ZSt20uninitialized_fill_nIPiyiET_S1_T0_RKT1_"
 "_ZSt20uninitialized_fill_nIPSt6vectorIdSaIdEEyS2_ET_S4_T0_RKT1_"
 "_ZSt20uninitialized_fill_nIPSt6vectorIySaIyEEyS2_ET_S4_T0_RKT1_"
 "_ZSt21__unguarded_partitionIN9__gnu_cxx17__normal_iteratorIPdSt6vectorIdSaIdEEEENS0_5__ops15_Iter_less_iterEET_S9_S9_S9_T0_"
 "_ZSt22__copy_move_backward_aILb1EN9__gnu_cxx17__normal_iteratorIPdSt6vectorIdSaIdEEEES6_ET1_T0_S8_S7_"
 "_ZSt22__move_median_to_firstIN9__gnu_cxx17__normal_iteratorIPdSt6vectorIdSaIdEEEENS0_5__ops15_Iter_less_iterEEvT_S9_S9_S9_T0_"
 "_ZSt22__uninitialized_copy_aIN9__gnu_cxx17__normal_iteratorIPKdSt6vectorIdSaIdEEEEPddET0_T_SA_S9_RSaIT1_E"
 "_ZSt22__uninitialized_copy_aIN9__gnu_cxx17__normal_iteratorIPKySt6vectorIySaIyEEEEPyyET0_T_SA_S9_RSaIT1_E"
 "_ZSt22__uninitialized_copy_aIPKyPyyET0_T_S4_S3_RSaIT1_E"
 "_ZSt22__uninitialized_copy_aIPyS0_yET0_T_S2_S1_RSaIT1_E"
 "_ZSt23__cmpexch_failure_orderSt12memory_order"
 "_ZSt23__copy_move_backward_a1ILb1EPdS0_ET1_T0_S2_S1_"
 "_ZSt23__copy_move_backward_a2ILb1EPdS0_ET1_T0_S2_S1_"
 "_ZSt24__cmpexch_failure_order2St12memory_order"
 "_ZSt24__uninitialized_fill_n_aIPdyddET_S1_T0_RKT1_RSaIT2_E"
 "_ZSt24__uninitialized_fill_n_aIPiyiiET_S1_T0_RKT1_RSaIT2_E"
 "_ZSt24__uninitialized_fill_n_aIPSt6vectorIdSaIdEEyS2_S2_ET_S4_T0_RKT1_RSaIT2_E"
 "_ZSt24__uninitialized_fill_n_aIPSt6vectorIySaIyEEyS2_S2_ET_S4_T0_RKT1_RSaIT2_E"
 "_ZSt25__unguarded_linear_insertIN9__gnu_cxx17__normal_iteratorIPdSt6vectorIdSaIdEEEENS0_5__ops14_Val_less_iterEEvT_T0_"
 "_ZSt25__uninitialized_default_nIPSt6threadyET_S2_T0_"
 "_ZSt25__uninitialized_default_nIPyyET_S1_T0_"
 "_ZSt27__unguarded_partition_pivotIN9__gnu_cxx17__normal_iteratorIPdSt6vectorIdSaIdEEEENS0_5__ops15_Iter_less_iterEET_S9_S9_T0_"
 "_ZSt27__uninitialized_default_n_aIPN9quickpool5sched9TaskQueueEyNS0_3mem7aligned9allocatorIS2_Ly64EEEET_S8_T0_RT1_"
 "_ZSt27__uninitialized_default_n_aIPSt6threadyS0_ET_S2_T0_RSaIT1_E"
 "_ZSt27__uninitialized_default_n_aIPyyyET_S1_T0_RSaIT1_E"
 "_ZSt32__is_valid_cmpexch_failure_orderSt12memory_order"
 "_ZSt3absd"
 "_ZSt3getILy0EJPN9quickpool10ThreadPoolESt14default_deleteIS1_EEERKNSt13tuple_elementIXT_ESt5tupleIJDpT0_EEE4typeERKS9_"
 "_ZSt3getILy0EJPN9quickpool10ThreadPoolESt14default_deleteIS1_EEERNSt13tuple_elementIXT_ESt5tupleIJDpT0_EEE4typeERS9_"
 "_ZSt3getILy0EJPN9quickpool5sched10RingBufferIPSt8functionIFvvEEEESt14default_deleteIS7_EEERNSt13tuple_elementIXT_ESt5tupleIJDpT0_EEE4typeERSF_"
 "_ZSt3getILy0EJPNSt6thread6_StateESt14default_deleteIS1_EEERNSt13tuple_elementIXT_ESt5tupleIJDpT0_EEE4typeERS9_"
 "_ZSt3getILy0EJPPSt8functionIFvvEESt14default_deleteIA_S3_EEERKNSt13tuple_elementIXT_ESt5tupleIJDpT0_EEE4typeERKSC_"
 "_ZSt3getILy0EJPPSt8functionIFvvEESt14default_deleteIA_S3_EEERNSt13tuple_elementIXT_ESt5tupleIJDpT0_EEE4typeERSC_"
 "_ZSt3getILy0EJZN9quickpool10ThreadPool10add_workerEyEUlvE_EEONSt13tuple_elementIXT_ESt5tupleIJDpT0_EEE4typeEOS7_"
 "_ZSt3getILy1EJPN9quickpool5sched10RingBufferIPSt8functionIFvvEEEESt14default_deleteIS7_EEERNSt13tuple_elementIXT_ESt5tupleIJDpT0_EEE4typeERSF_"
 "_ZSt3getILy1EJPNSt6thread6_StateESt14default_deleteIS1_EEERNSt13tuple_elementIXT_ESt5tupleIJDpT0_EEE4typeERS9_"
 "_ZSt3getILy1EJPPSt8functionIFvvEESt14default_deleteIA_S3_EEERNSt13tuple_elementIXT_ESt5tupleIJDpT0_EEE4typeERSC_"
 "_ZSt3maxIdERKT_S2_S2_"
 "_ZSt3maxIdET_St16initializer_listIS0_E"
 "_ZSt3maxIiERKT_S2_S2_"
 "_ZSt3maxIyERKT_S2_S2_"
 "_ZSt3minIyERKT_S2_S2_"
 "_ZSt4__lgIxET_S0_"
 "_ZSt4copyIN9__gnu_cxx17__normal_iteratorIPKdSt6vectorIdSaIdEEEEPdET0_T_SA_S9_"
 "_ZSt4copyIN9__gnu_cxx17__normal_iteratorIPKySt6vectorIySaIyEEEENS1_IPyS6_EEET0_T_SB_SA_"
 "_ZSt4copyIN9__gnu_cxx17__normal_iteratorIPKySt6vectorIySaIyEEEEPyET0_T_SA_S9_"
 "_ZSt4copyIPKyPyET0_T_S4_S3_"
 "_ZSt4copyIPyS0_ET0_T_S2_S1_"
 "_ZSt4moveIPN9quickpool5sched10RingBufferIPSt8functionIFvvEEEEEONSt16remove_referenceIT_E4typeEOSA_"
 "_ZSt4moveIRdEONSt16remove_referenceIT_E4typeEOS2_"
 "_ZSt4moveIRN9__gnu_cxx5__ops15_Iter_less_iterEEONSt16remove_referenceIT_E4typeEOS5_"
 "_ZSt4moveIRN9quickpool3mem7aligned9allocatorINS0_5sched9TaskQueueELy64EEEEONSt16remove_referenceIT_E4typeEOS9_"
 "_ZSt4moveIRNSt6thread2idEEONSt16remove_referenceIT_E4typeEOS4_"
 "_ZSt4moveIRPFbRSt9_Any_dataRKS0_St18_Manager_operationEEONSt16remove_referenceIT_E4typeEOS9_"
 "_ZSt4moveIRPFvRKSt9_Any_dataEEONSt16remove_referenceIT_E4typeEOS7_"
 "_ZSt4moveIRPKyEONSt16remove_referenceIT_E4typeEOS4_"
 "_ZSt4moveIRPN9quickpool5sched10RingBufferIPSt8functionIFvvEEEEEONSt16remove_referenceIT_E4typeEOSB_"
 "_ZSt4moveIRPNSt6thread6_StateEEONSt16remove_referenceIT_E4typeEOS5_"
 "_ZSt4moveIRSaISt6threadEEONSt16remove_referenceIT_E4typeEOS4_"
 "_ZSt4moveIRSt10unique_ptrIN9quickpool5sched10RingBufferIPSt8functionIFvvEEEESt14default_deleteIS8_EEEONSt16remove_referenceIT_E4typeEOSE_"
 "_ZSt4moveIRSt4pairIdyEEONSt16remove_referenceIT_E4typeEOS4_"
 "_ZSt4moveIRSt5tupleIJPN9quickpool5sched10RingBufferIPSt8functionIFvvEEEESt14default_deleteIS8_EEEEONSt16remove_referenceIT_E4typeEOSF_"
 "_ZSt4moveIRSt5tupleIJZN9quickpool10ThreadPool10add_workerEyEUlvE_EEEONSt16remove_referenceIT_E4typeEOS7_"
 "_ZSt4moveIRSt6vectorIN9quickpool5sched9TaskQueueENS1_3mem7aligned9allocatorIS3_Ly64EEEEEONSt16remove_referenceIT_E4typeEOSB_"
 "_ZSt4moveIRSt6vectorISt6threadSaIS1_EEEONSt16remove_referenceIT_E4typeEOS6_"
 "_ZSt4moveIRSt8functionIFvvEEEONSt16remove_referenceIT_E4typeEOS5_"
 "_ZSt4moveIRSt9_Any_dataEONSt16remove_referenceIT_E4typeEOS3_"
 "_ZSt4moveIRyEONSt16remove_referenceIT_E4typeEOS2_"
 "_ZSt4moveIRZN9quickpool5sched11TaskManager15wait_for_finishEyEUlvE_EONSt16remove_referenceIT_E4typeEOS6_"
 "_ZSt4swapIdENSt9enable_ifIXsrSt6__and_IJSt6__not_ISt15__is_tuple_likeIT_EESt21is_move_constructibleIS4_ESt18is_move_assignableIS4_EEE5valueEvE4typeERS4_SE_"
 "_ZSt4swapIN9quickpool5sched9TaskQueueENS0_3mem7aligned9allocatorIS2_Ly64EEEEvRSt6vectorIT_T0_ESB_"
 "_ZSt4swapINSt6thread2idEENSt9enable_ifIXsrSt6__and_IJSt6__not_ISt15__is_tuple_likeIT_EESt21is_move_constructibleIS6_ESt18is_move_assignableIS6_EEE5valueEvE4typeERS6_SG_"
 "_ZSt4swapIPFbRSt9_Any_dataRKS0_St18_Manager_operationEENSt9enable_ifIXsrSt6__and_IJSt6__not_ISt15__is_tuple_likeIT_EESt21is_move_constructibleISB_ESt18is_move_assignableISB_EEE5valueEvE4typeERSB_SL_"
 "_ZSt4swapIPFvRKSt9_Any_dataEENSt9enable_ifIXsrSt6__and_IJSt6__not_ISt15__is_tuple_likeIT_EESt21is_move_constructibleIS9_ESt18is_move_assignableIS9_EEE5valueEvE4typeERS9_SJ_"
 "_ZSt4swapISt9_Any_dataENSt9enable_ifIXsrSt6__and_IJSt6__not_ISt15__is_tuple_likeIT_EESt21is_move_constructibleIS5_ESt18is_move_assignableIS5_EEE5valueEvE4typeERS5_SF_"
 "_ZSt5alignyyRPvRy"
 "_ZSt5isnand"
 "_ZSt6fill_nIPdydET_S1_T0_RKT1_"
 "_ZSt6fill_nIPiyiET_S1_T0_RKT1_"
 "_ZSt6fill_nIPyyyET_S1_T0_RKT1_"
 "_ZSt7forwardIdEOT_RNSt16remove_referenceIS0_E4typeE"
 "_ZSt7forwardIRdEOT_RNSt16remove_referenceIS1_E4typeE"
 "_ZSt7forwardIRKdEOT_RNSt16remove_referenceIS2_E4typeE"
 "_ZSt7forwardIRKSt6vectorIdSaIdEEEOT_RNSt16remove_referenceIS5_E4typeE"
 "_ZSt7forwardIRKSt6vectorIySaIyEEEOT_RNSt16remove_referenceIS5_E4typeE"
 "_ZSt7forwardIRKyEOT_RNSt16remove_referenceIS2_E4typeE"
 "_ZSt7forwardIRPN9quickpool5sched10RingBufferIPSt8functionIFvvEEEEEOT_RNSt16remove_referenceISA_E4typeE"
 "_ZSt7forwardIRyEOT_RNSt16remove_referenceIS1_E4typeE"
 "_ZSt7forwardISt10unique_ptrIN9quickpool5sched10RingBufferIPSt8functionIFvvEEEESt14default_deleteIS8_EEEOT_RNSt16remove_referenceISC_E4typeE"
 "_ZSt7forwardISt4pairIdyEEOT_RNSt16remove_referenceIS2_E4typeE"
 "_ZSt7forwardISt8functionIFvvEEEOT_RNSt16remove_referenceIS3_E4typeE"
 "_ZSt7forwardIyEOT_RNSt16remove_referenceIS0_E4typeE"
 "_ZSt7forwardIZN9quickpool10ThreadPool10add_workerEyEUlvE_EOT_RNSt16remove_referenceIS3_E4typeE"
 "_ZSt8__fill_aIPddEvT_S1_RKT0_"
 "_ZSt8__fill_aIPiiEvT_S1_RKT0_"
 "_ZSt8__fill_aIPyyEvT_S1_RKT0_"
 "_ZSt8__invokeIZN9quickpool10ThreadPool10add_workerEyEUlvE_JEENSt15__invoke_resultIT_JDpT0_EE4typeEOS4_DpOS5_"
 "_ZSt8_DestroyIN9__gnu_cxx17__normal_iteratorIPySt6vectorIySaIyEEEEEvT_S7_"
 "_ZSt8_DestroyIPdEvT_S1_"
 "_ZSt8_DestroyIPiEvT_S1_"
 "_ZSt8_DestroyIPN9quickpool5sched9TaskQueueENS0_3mem7aligned9allocatorIS2_Ly64EEEEvT_S8_RT0_"
 "_ZSt8_DestroyIPSt10unique_ptrIN9quickpool5sched10RingBufferIPSt8functionIFvvEEEESt14default_deleteIS8_EEEvT_SD_"
 "_ZSt8_DestroyIPSt4pairIdyEEvT_S3_"
 "_ZSt8_DestroyIPSt6threadEvT_S2_"
 "_ZSt8_DestroyIPSt6vectorIdSaIdEEEvT_S4_"
 "_ZSt8_DestroyIPSt6vectorIySaIyEEEvT_S4_"
 "_ZSt8_DestroyIPyEvT_S1_"
 "_ZSt8_DestroyISt10unique_ptrIN9quickpool5sched10RingBufferIPSt8functionIFvvEEEESt14default_deleteIS8_EEEvPT_"
 "_ZSt8_DestroyISt6threadEvPT_"
 "_ZSt8_DestroyISt6vectorIdSaIdEEEvPT_"
 "_ZSt8_DestroyISt6vectorIySaIyEEEvPT_"
 "_ZSt9__fill_a1IPddEN9__gnu_cxx11__enable_ifIXsrSt11__is_scalarIT0_E7__valueEvE6__typeET_S8_RKS4_"
 "_ZSt9__fill_a1IPiiEN9__gnu_cxx11__enable_ifIXsrSt11__is_scalarIT0_E7__valueEvE6__typeET_S8_RKS4_"
 "_ZSt9__fill_a1IPyyEN9__gnu_cxx11__enable_ifIXsrSt11__is_scalarIT0_E7__valueEvE6__typeET_S8_RKS4_"
 "_ZSt9iter_swapIN9__gnu_cxx17__normal_iteratorIPdSt6vectorIdSaIdEEEES6_EvT_T0_"
 "_ZStanSt12memory_orderSt23__memory_order_modifier"
 "_ZSteqNSt6thread2idES0_"
 "_ZStltIdyEbRKSt4pairIT_T0_ES5_"
 "_ZStneNSt6thread2idES0_"
 "_ZStorSt12memory_orderSt23__memory_order_modifier"
 "_ZTIN10RcppThread22UserInterruptExceptionE"
 "_ZTINSt6thread11_State_implINS_8_InvokerISt5tupleIJZN9quickpool10ThreadPool10add_workerEyEUlvE_EEEEEE"
 "_ZTINSt6thread6_StateE"
 "_ZTISt11_Mutex_baseILN9__gnu_cxx12_Lock_policyE2EE"
 "_ZTISt16_Sp_counted_baseILN9__gnu_cxx12_Lock_policyE2EE"
 "_ZTISt9bad_alloc"
 "_ZTISt9exception"
 "_ZTSN10RcppThread22UserInterruptExceptionE"
 "_ZTSNSt6thread11_State_implINS_8_InvokerISt5tupleIJZN9quickpool10ThreadPool10add_workerEyEUlvE_EEEEEE"
 "_ZTSNSt6thread6_StateE"
 "_ZTSSt11_Mutex_baseILN9__gnu_cxx12_Lock_policyE2EE"
 "_ZTSSt16_Sp_counted_baseILN9__gnu_cxx12_Lock_policyE2EE"
 "_ZTSSt9bad_alloc"
 "_ZTSSt9exception"
 "_ZTVN10RcppThread22UserInterruptExceptionE"
 "_ZTVNSt6thread11_State_implINS_8_InvokerISt5tupleIJZN9quickpool10ThreadPool10add_workerEyEUlvE_EEEEEE"
 "_ZTVSt16_Sp_counted_baseILN9__gnu_cxx12_Lock_policyE2EE"
 "_ZZN10RcppThread10ThreadPool14globalInstanceEvE3ptr"
 "_ZZN10RcppThread8RMonitor8instanceEvE9instance_"
 "_ZZN9quickpool10ThreadPool10add_workerEyENKUlvE_clEv"
 "_ZZN9quickpool5sched11TaskManager15wait_for_finishEyENKUlvE_clEv"
 "_ZZN9quickpool5sched11TaskManager17rethrow_exceptionEvENKUlvE_clEv"
 "_ZZN9quickpool5sched9TaskQueue4waitEvENKUlvE_clEv"
 "_ZZNSt6vectorIdSaIdEE17_M_realloc_appendIJdEEEvDpOT_EN6_GuardC1EPdyRS0_"
 "_ZZNSt6vectorIdSaIdEE17_M_realloc_appendIJdEEEvDpOT_EN6_GuardD1Ev"
 "_ZZNSt6vectorIdSaIdEE17_M_realloc_appendIJRKdEEEvDpOT_EN6_GuardC1EPdyRS0_"
 "_ZZNSt6vectorIdSaIdEE17_M_realloc_appendIJRKdEEEvDpOT_EN6_GuardD1Ev"
 "_ZZNSt6vectorISt10unique_ptrIN9quickpool5sched10RingBufferIPSt8functionIFvvEEEESt14default_deleteIS8_EESaISB_EE17_M_realloc_appendIJRPS8_EEEvDpOT_EN6_GuardC1EPSB_yRSC_"
 "_ZZNSt6vectorISt10unique_ptrIN9quickpool5sched10RingBufferIPSt8functionIFvvEEEESt14default_deleteIS8_EESaISB_EE17_M_realloc_appendIJRPS8_EEEvDpOT_EN6_GuardD1Ev"
 "_ZZNSt6vectorISt4pairIdyESaIS1_EE17_M_realloc_appendIJRdRyEEEvDpOT_EN6_GuardC1EPS1_yRS2_"
 "_ZZNSt6vectorISt4pairIdyESaIS1_EE17_M_realloc_appendIJRdRyEEEvDpOT_EN6_GuardD1Ev"
 "_ZZNSt6vectorIySaIyEE17_M_default_appendEyEN6_GuardC1EPyyRS0_"
 "_ZZNSt6vectorIySaIyEE17_M_default_appendEyEN6_GuardD1Ev"
 "_ZZNSt6vectorIySaIyEE17_M_realloc_appendIJRKyEEEvDpOT_EN6_GuardC1EPyyRS0_"
 "_ZZNSt6vectorIySaIyEE17_M_realloc_appendIJRKyEEEvDpOT_EN6_GuardD1Ev"
 "_ZZNSt6vectorIySaIyEE17_M_realloc_appendIJyEEEvDpOT_EN6_GuardC1EPyyRS0_"
 "_ZZNSt6vectorIySaIyEE17_M_realloc_appendIJyEEEvDpOT_EN6_GuardD1Ev"
 "_ZZNSt7__cxx1112basic_stringIcSt11char_traitsIcESaIcEE12_M_constructIPKcEEvT_S8_St20forward_iterator_tagEN6_GuardC1EPS4_"
 "_ZZNSt7__cxx1112basic_stringIcSt11char_traitsIcESaIcEE12_M_constructIPKcEEvT_S8_St20forward_iterator_tagEN6_GuardD1Ev"
 "_Z11GridMat2VecRKSt6vectorIS_IdSaIdEESaIS1_EE"
 "_Z11GridVec2MatRKSt6vectorIdSaIdEEi"
 "_Z13CppDivideGridRKSt6vectorIS_IdSaIdEESaIS1_EEii"
 "_Z14RowColFromGridii"
 "_Z16GenGridNeighborsRKSt6vectorIS_IdSaIdEESaIS1_EERKS_IiSaIiEEy"
 "_Z17CppLaggedVal4GridRKSt6vectorIS_IdSaIdEESaIS1_EEi"
 "_Z17GenGridEmbeddingsRKSt6vectorIS_IdSaIdEESaIS1_EEiii"
 "_Z17LocateGridIndicesiiii"
 "_Z20GenGridEmbeddingsComRKSt6vectorIS_IdSaIdEESaIS1_EEiiiRKS_IiSaIiEE"
 "_Z20GenGridSymbolizationRKSt6vectorIS_IdSaIdEESaIS1_EERKS_ISt4pairIiiESaIS7_EESB_y"
 "_ZdlPvS_"
 "_ZN9__gnu_cxx16__aligned_bufferIiE6_M_ptrEv"
 "_ZN9__gnu_cxx16__aligned_bufferIiE7_M_addrEv"
 "_ZN9__gnu_cxx16__aligned_bufferIyE6_M_ptrEv"
 "_ZN9__gnu_cxx16__aligned_bufferIyE7_M_addrEv"
 "_ZN9__gnu_cxx16__aligned_membufIiE6_M_ptrEv"
 "_ZN9__gnu_cxx16__aligned_membufIiE7_M_addrEv"
 "_ZN9__gnu_cxx17__normal_iteratorIPdSt6vectorIdSaIdEEEC1ERKS1_"
 "_ZN9__gnu_cxx17__normal_iteratorIPiSt6vectorIiSaIiEEEC1ERKS1_"
 "_ZN9__gnu_cxx17__normal_iteratorIPiSt6vectorIiSaIiEEEmmEv"
 "_ZN9__gnu_cxx17__normal_iteratorIPiSt6vectorIiSaIiEEEpLEx"
 "_ZN9__gnu_cxx17__normal_iteratorIPiSt6vectorIiSaIiEEEppEv"
 "_ZN9__gnu_cxx17__normal_iteratorIPKdSt6vectorIdSaIdEEEC1ERKS2_"
 "_ZN9__gnu_cxx17__normal_iteratorIPKdSt6vectorIdSaIdEEEC1IPdvEERKNS0_IT_S5_EE"
 "_ZN9__gnu_cxx17__normal_iteratorIPKdSt6vectorIdSaIdEEEpLEx"
 "_ZN9__gnu_cxx17__normal_iteratorIPKdSt6vectorIdSaIdEEEppEv"
 "_ZN9__gnu_cxx17__normal_iteratorIPKiSt6vectorIiSaIiEEEC1ERKS2_"
 "_ZN9__gnu_cxx17__normal_iteratorIPKiSt6vectorIiSaIiEEEC1IPivEERKNS0_IT_S5_EE"
 "_ZN9__gnu_cxx17__normal_iteratorIPKiSt6vectorIiSaIiEEEppEv"
 "_ZN9__gnu_cxx17__normal_iteratorIPKSt4pairIiiESt6vectorIS2_SaIS2_EEEC1ERKS4_"
 "_ZN9__gnu_cxx17__normal_iteratorIPKSt4pairIiiESt6vectorIS2_SaIS2_EEEppEv"
 "_ZN9__gnu_cxx17__normal_iteratorIPKSt6vectorIdSaIdEES1_IS3_SaIS3_EEEC1ERKS5_"
 "_ZN9__gnu_cxx17__normal_iteratorIPKSt6vectorIdSaIdEES1_IS3_SaIS3_EEEppEv"
 "_ZN9__gnu_cxx17__normal_iteratorIPSt4pairIddESt6vectorIS2_SaIS2_EEEC1ERKS3_"
 "_ZN9__gnu_cxx17__normal_iteratorIPSt4pairIddESt6vectorIS2_SaIS2_EEEmmEv"
 "_ZN9__gnu_cxx17__normal_iteratorIPSt4pairIddESt6vectorIS2_SaIS2_EEEppEv"
 "_ZN9__gnu_cxx17__normal_iteratorIPSt4pairIdiESt6vectorIS2_SaIS2_EEEC1ERKS3_"
 "_ZN9__gnu_cxx17__normal_iteratorIPSt4pairIdiESt6vectorIS2_SaIS2_EEEmmEv"
 "_ZN9__gnu_cxx17__normal_iteratorIPSt4pairIdiESt6vectorIS2_SaIS2_EEEppEv"
 "_ZN9__gnu_cxx17__normal_iteratorIPSt4pairIiiESt6vectorIS2_SaIS2_EEEC1ERKS3_"
 "_ZN9__gnu_cxx17__normal_iteratorIPSt6vectorIdSaIdEES1_IS3_SaIS3_EEEC1ERKS4_"
 "_ZN9__gnu_cxx17__normal_iteratorIPSt6vectorIdSaIdEES1_IS3_SaIS3_EEEppEv"
 "_ZN9__gnu_cxx17__normal_iteratorIPSt6vectorIS1_IdSaIdEESaIS3_EES1_IS5_SaIS5_EEEC1ERKS6_"
 "_ZN9__gnu_cxx17__normal_iteratorIPSt6vectorIS1_IdSaIdEESaIS3_EES1_IS5_SaIS5_EEEppEv"
 "_ZN9__gnu_cxx17__normal_iteratorIPySt6vectorIySaIyEEEC1ERKS1_"
 "_ZN9__gnu_cxx17__normal_iteratorIPySt6vectorIySaIyEEEppEv"
 "_ZN9__gnu_cxx5__ops14_Iter_less_valC1ENS0_15_Iter_less_iterE"
 "_ZN9__gnu_cxx5__ops15__val_comp_iterENS0_15_Iter_less_iterE"
 "_ZN9__gnu_cxx5__ops16__iter_less_iterEv"
 "_ZN9__gnu_cxx5__ops20__iter_equal_to_iterEv"
 "_ZN9__gnu_cxxeqIPiSt6vectorIiSaIiEEEEbRKNS_17__normal_iteratorIT_T0_EESA_"
 "_ZN9__gnu_cxxeqIPKdSt6vectorIdSaIdEEEEbRKNS_17__normal_iteratorIT_T0_EESB_"
 "_ZN9__gnu_cxxeqIPKSt6vectorIdSaIdEES1_IS3_SaIS3_EEEEbRKNS_17__normal_iteratorIT_T0_EESD_"
 "_ZN9__gnu_cxxeqIPSt4pairIddESt6vectorIS2_SaIS2_EEEEbRKNS_17__normal_iteratorIT_T0_EESC_"
 "_ZN9__gnu_cxxeqIPSt4pairIdiESt6vectorIS2_SaIS2_EEEEbRKNS_17__normal_iteratorIT_T0_EESC_"
 "_ZN9__gnu_cxxltIPiSt6vectorIiSaIiEEEEbRKNS_17__normal_iteratorIT_T0_EESA_"
 "_ZN9__gnu_cxxltIPSt4pairIddESt6vectorIS2_SaIS2_EEEEbRKNS_17__normal_iteratorIT_T0_EESC_"
 "_ZN9__gnu_cxxltIPSt4pairIdiESt6vectorIS2_SaIS2_EEEEbRKNS_17__normal_iteratorIT_T0_EESC_"
 "_ZN9__gnu_cxxmiIPdSt6vectorIdSaIdEEEENS_17__normal_iteratorIT_T0_E15difference_typeERKS8_SB_"
 "_ZN9__gnu_cxxmiIPiSt6vectorIiSaIiEEEENS_17__normal_iteratorIT_T0_E15difference_typeERKS8_SB_"
 "_ZN9__gnu_cxxmiIPKdSt6vectorIdSaIdEEEENS_17__normal_iteratorIT_T0_E15difference_typeERKS9_SC_"
 "_ZN9__gnu_cxxmiIPKiSt6vectorIiSaIiEEEENS_17__normal_iteratorIT_T0_E15difference_typeERKS9_SC_"
 "_ZN9__gnu_cxxmiIPSt4pairIddESt6vectorIS2_SaIS2_EEEENS_17__normal_iteratorIT_T0_E15difference_typeERKSA_SD_"
 "_ZN9__gnu_cxxmiIPSt4pairIdiESt6vectorIS2_SaIS2_EEEENS_17__normal_iteratorIT_T0_E15difference_typeERKSA_SD_"
 "_ZN9__gnu_cxxmiIPSt4pairIiiESt6vectorIS2_SaIS2_EEEENS_17__normal_iteratorIT_T0_E15difference_typeERKSA_SD_"
 "_ZN9__gnu_cxxmiIPSt6vectorIdSaIdEES1_IS3_SaIS3_EEEENS_17__normal_iteratorIT_T0_E15difference_typeERKSA_SD_"
 "_ZN9__gnu_cxxmiIPSt6vectorIS1_IdSaIdEESaIS3_EES1_IS5_SaIS5_EEEENS_17__normal_iteratorIT_T0_E15difference_typeERKSC_SF_"
 "_ZN9__gnu_cxxmiIPySt6vectorIySaIyEEEENS_17__normal_iteratorIT_T0_E15difference_typeERKS8_SB_"
 "_ZN9__gnu_cxxneIPiSt6vectorIiSaIiEEEEbRKNS_17__normal_iteratorIT_T0_EESA_"
 "_ZN9__gnu_cxxneIPKdSt6vectorIdSaIdEEEEbRKNS_17__normal_iteratorIT_T0_EESB_"
 "_ZN9__gnu_cxxneIPKiSt6vectorIiSaIiEEEEbRKNS_17__normal_iteratorIT_T0_EESB_"
 "_ZN9__gnu_cxxneIPKSt4pairIiiESt6vectorIS2_SaIS2_EEEEbRKNS_17__normal_iteratorIT_T0_EESD_"
 "_ZN9__gnu_cxxneIPKSt6vectorIdSaIdEES1_IS3_SaIS3_EEEEbRKNS_17__normal_iteratorIT_T0_EESD_"
 "_ZN9__gnu_cxxneIPSt4pairIddESt6vectorIS2_SaIS2_EEEEbRKNS_17__normal_iteratorIT_T0_EESC_"
 "_ZN9__gnu_cxxneIPSt4pairIdiESt6vectorIS2_SaIS2_EEEEbRKNS_17__normal_iteratorIT_T0_EESC_"
 "_ZN9__gnu_cxxneIPSt6vectorIdSaIdEES1_IS3_SaIS3_EEEEbRKNS_17__normal_iteratorIT_T0_EESC_"
 "_ZN9__gnu_cxxneIPSt6vectorIS1_IdSaIdEESaIS3_EES1_IS5_SaIS5_EEEEbRKNS_17__normal_iteratorIT_T0_EESE_"
 "_ZN9__gnu_cxxneIPySt6vectorIySaIyEEEEbRKNS_17__normal_iteratorIT_T0_EESA_"
 "_ZNK9__gnu_cxx16__aligned_bufferIiE6_M_ptrEv"
 "_ZNK9__gnu_cxx16__aligned_bufferIiE7_M_addrEv"
 "_ZNK9__gnu_cxx16__aligned_bufferIyE6_M_ptrEv"
 "_ZNK9__gnu_cxx16__aligned_bufferIyE7_M_addrEv"
 "_ZNK9__gnu_cxx16__aligned_membufIiE6_M_ptrEv"
 "_ZNK9__gnu_cxx16__aligned_membufIiE7_M_addrEv"
 "_ZNK9__gnu_cxx17__normal_iteratorIPdSt6vectorIdSaIdEEE4baseEv"
 "_ZNK9__gnu_cxx17__normal_iteratorIPdSt6vectorIdSaIdEEEplEx"
 "_ZNK9__gnu_cxx17__normal_iteratorIPiSt6vectorIiSaIiEEE4baseEv"
 "_ZNK9__gnu_cxx17__normal_iteratorIPiSt6vectorIiSaIiEEEdeEv"
 "_ZNK9__gnu_cxx17__normal_iteratorIPiSt6vectorIiSaIiEEEmiEx"
 "_ZNK9__gnu_cxx17__normal_iteratorIPiSt6vectorIiSaIiEEEplEx"
 "_ZNK9__gnu_cxx17__normal_iteratorIPKdSt6vectorIdSaIdEEE4baseEv"
 "_ZNK9__gnu_cxx17__normal_iteratorIPKdSt6vectorIdSaIdEEEdeEv"
 "_ZNK9__gnu_cxx17__normal_iteratorIPKiSt6vectorIiSaIiEEE4baseEv"
 "_ZNK9__gnu_cxx17__normal_iteratorIPKiSt6vectorIiSaIiEEEdeEv"
 "_ZNK9__gnu_cxx17__normal_iteratorIPKSt4pairIiiESt6vectorIS2_SaIS2_EEE4baseEv"
 "_ZNK9__gnu_cxx17__normal_iteratorIPKSt4pairIiiESt6vectorIS2_SaIS2_EEEdeEv"
 "_ZNK9__gnu_cxx17__normal_iteratorIPKSt6vectorIdSaIdEES1_IS3_SaIS3_EEE4baseEv"
 "_ZNK9__gnu_cxx17__normal_iteratorIPKSt6vectorIdSaIdEES1_IS3_SaIS3_EEEdeEv"
 "_ZNK9__gnu_cxx17__normal_iteratorIPSt4pairIddESt6vectorIS2_SaIS2_EEE4baseEv"
 "_ZNK9__gnu_cxx17__normal_iteratorIPSt4pairIddESt6vectorIS2_SaIS2_EEEdeEv"
 "_ZNK9__gnu_cxx17__normal_iteratorIPSt4pairIddESt6vectorIS2_SaIS2_EEEmiEx"
 "_ZNK9__gnu_cxx17__normal_iteratorIPSt4pairIddESt6vectorIS2_SaIS2_EEEplEx"
 "_ZNK9__gnu_cxx17__normal_iteratorIPSt4pairIdiESt6vectorIS2_SaIS2_EEE4baseEv"
 "_ZNK9__gnu_cxx17__normal_iteratorIPSt4pairIdiESt6vectorIS2_SaIS2_EEEdeEv"
 "_ZNK9__gnu_cxx17__normal_iteratorIPSt4pairIdiESt6vectorIS2_SaIS2_EEEmiEx"
 "_ZNK9__gnu_cxx17__normal_iteratorIPSt4pairIdiESt6vectorIS2_SaIS2_EEEplEx"
 "_ZNK9__gnu_cxx17__normal_iteratorIPSt4pairIiiESt6vectorIS2_SaIS2_EEE4baseEv"
 "_ZNK9__gnu_cxx17__normal_iteratorIPSt4pairIiiESt6vectorIS2_SaIS2_EEEdeEv"
 "_ZNK9__gnu_cxx17__normal_iteratorIPSt4pairIiiESt6vectorIS2_SaIS2_EEEmiEx"
 "_ZNK9__gnu_cxx17__normal_iteratorIPSt6vectorIdSaIdEES1_IS3_SaIS3_EEE4baseEv"
 "_ZNK9__gnu_cxx17__normal_iteratorIPSt6vectorIdSaIdEES1_IS3_SaIS3_EEEdeEv"
 "_ZNK9__gnu_cxx17__normal_iteratorIPSt6vectorIdSaIdEES1_IS3_SaIS3_EEEmiEx"
 "_ZNK9__gnu_cxx17__normal_iteratorIPSt6vectorIS1_IdSaIdEESaIS3_EES1_IS5_SaIS5_EEE4baseEv"
 "_ZNK9__gnu_cxx17__normal_iteratorIPSt6vectorIS1_IdSaIdEESaIS3_EES1_IS5_SaIS5_EEEdeEv"
 "_ZNK9__gnu_cxx17__normal_iteratorIPSt6vectorIS1_IdSaIdEESaIS3_EES1_IS5_SaIS5_EEEmiEx"
 "_ZNK9__gnu_cxx17__normal_iteratorIPySt6vectorIySaIyEEE4baseEv"
 "_ZNK9__gnu_cxx17__normal_iteratorIPySt6vectorIySaIyEEEdeEv"
 "_ZNK9__gnu_cxx5__ops14_Iter_less_valclINS_17__normal_iteratorIPiSt6vectorIiSaIiEEEEiEEbT_RT0_"
 "_ZNK9__gnu_cxx5__ops14_Iter_less_valclINS_17__normal_iteratorIPSt4pairIdiESt6vectorIS5_SaIS5_EEEES5_EEbT_RT0_"
 "_ZNK9__gnu_cxx5__ops14_Val_less_iterclIiNS_17__normal_iteratorIPiSt6vectorIiSaIiEEEEEEbRT_T0_"
 "_ZNK9__gnu_cxx5__ops14_Val_less_iterclISt4pairIdiENS_17__normal_iteratorIPS4_St6vectorIS4_SaIS4_EEEEEEbRT_T0_"
 "_ZNK9__gnu_cxx5__ops15_Iter_less_iterclINS_17__normal_iteratorIPiSt6vectorIiSaIiEEEES8_EEbT_T0_"
 "_ZNK9__gnu_cxx5__ops15_Iter_less_iterclINS_17__normal_iteratorIPSt4pairIdiESt6vectorIS5_SaIS5_EEEESA_EEbT_T0_"
 "_ZNK9__gnu_cxx5__ops15_Iter_less_iterclIPKiS4_EEbT_T0_"
 "_ZNK9__gnu_cxx5__ops19_Iter_equal_to_iterclINS_17__normal_iteratorIPiSt6vectorIiSaIiEEEES8_EEbT_T0_"
 "_ZNKSt10_HashtableIiiSaIiENSt8__detail9_IdentityESt8equal_toIiESt4hashIiENS1_18_Mod_range_hashingENS1_20_Default_ranged_hashENS1_20_Prime_rehash_policyENS1_17_Hashtable_traitsILb0ELb1ELb1EEEE12_M_find_nodeEyRKiy"
 "_ZNKSt10_HashtableIiiSaIiENSt8__detail9_IdentityESt8equal_toIiESt4hashIiENS1_18_Mod_range_hashingENS1_20_Default_ranged_hashENS1_20_Prime_rehash_policyENS1_17_Hashtable_traitsILb0ELb1ELb1EEEE15_M_bucket_indexERKNS1_16_Hash_node_valueIiLb0EEE"
 "_ZNKSt10_HashtableIiiSaIiENSt8__detail9_IdentityESt8equal_toIiESt4hashIiENS1_18_Mod_range_hashingENS1_20_Default_ranged_hashENS1_20_Prime_rehash_policyENS1_17_Hashtable_traitsILb0ELb1ELb1EEEE15_M_bucket_indexEy"
 "_ZNKSt10_HashtableIiiSaIiENSt8__detail9_IdentityESt8equal_toIiESt4hashIiENS1_18_Mod_range_hashingENS1_20_Default_ranged_hashENS1_20_Prime_rehash_policyENS1_17_Hashtable_traitsILb0ELb1ELb1EEEE15_M_find_node_trIiEEPNS1_10_Hash_nodeIiLb0EEEyRKT_y"
 "_ZNKSt10_HashtableIiiSaIiENSt8__detail9_IdentityESt8equal_toIiESt4hashIiENS1_18_Mod_range_hashingENS1_20_Default_ranged_hashENS1_20_Prime_rehash_policyENS1_17_Hashtable_traitsILb0ELb1ELb1EEEE19_M_find_before_nodeEyRKiy"
 "_ZNKSt10_HashtableIiiSaIiENSt8__detail9_IdentityESt8equal_toIiESt4hashIiENS1_18_Mod_range_hashingENS1_20_Default_ranged_hashENS1_20_Prime_rehash_policyENS1_17_Hashtable_traitsILb0ELb1ELb1EEEE21_M_uses_single_bucketEPPNS1_15_Hash_node_baseE"
 "_ZNKSt10_HashtableIiiSaIiENSt8__detail9_IdentityESt8equal_toIiESt4hashIiENS1_18_Mod_range_hashingENS1_20_Default_ranged_hashENS1_20_Prime_rehash_policyENS1_17_Hashtable_traitsILb0ELb1ELb1EEEE22_M_find_before_node_trIiEEPNS1_15_Hash_node_baseEyRKT_y"
 "_ZNKSt10_HashtableIiiSaIiENSt8__detail9_IdentityESt8equal_toIiESt4hashIiENS1_18_Mod_range_hashingENS1_20_Default_ranged_hashENS1_20_Prime_rehash_policyENS1_17_Hashtable_traitsILb0ELb1ELb1EEEE3endEv"
 "_ZNKSt10_HashtableIiiSaIiENSt8__detail9_IdentityESt8equal_toIiESt4hashIiENS1_18_Mod_range_hashingENS1_20_Default_ranged_hashENS1_20_Prime_rehash_policyENS1_17_Hashtable_traitsILb0ELb1ELb1EEEE4findERKi"
 "_ZNKSt10_HashtableIiiSaIiENSt8__detail9_IdentityESt8equal_toIiESt4hashIiENS1_18_Mod_range_hashingENS1_20_Default_ranged_hashENS1_20_Prime_rehash_policyENS1_17_Hashtable_traitsILb0ELb1ELb1EEEE4sizeEv"
 "_ZNKSt10_HashtableIiiSaIiENSt8__detail9_IdentityESt8equal_toIiESt4hashIiENS1_18_Mod_range_hashingENS1_20_Default_ranged_hashENS1_20_Prime_rehash_policyENS1_17_Hashtable_traitsILb0ELb1ELb1EEEE5countERKi"
 "_ZNKSt10_HashtableIiiSaIiENSt8__detail9_IdentityESt8equal_toIiESt4hashIiENS1_18_Mod_range_hashingENS1_20_Default_ranged_hashENS1_20_Prime_rehash_policyENS1_17_Hashtable_traitsILb0ELb1ELb1EEEE8_M_beginEv"
 "_ZNKSt10_HashtableIyySaIyENSt8__detail9_IdentityESt8equal_toIyESt4hashIyENS1_18_Mod_range_hashingENS1_20_Default_ranged_hashENS1_20_Prime_rehash_policyENS1_17_Hashtable_traitsILb0ELb1ELb1EEEE12_M_find_nodeEyRKyy"
 "_ZNKSt10_HashtableIyySaIyENSt8__detail9_IdentityESt8equal_toIyESt4hashIyENS1_18_Mod_range_hashingENS1_20_Default_ranged_hashENS1_20_Prime_rehash_policyENS1_17_Hashtable_traitsILb0ELb1ELb1EEEE15_M_bucket_indexERKNS1_16_Hash_node_valueIyLb0EEE"
 "_ZNKSt10_HashtableIyySaIyENSt8__detail9_IdentityESt8equal_toIyESt4hashIyENS1_18_Mod_range_hashingENS1_20_Default_ranged_hashENS1_20_Prime_rehash_policyENS1_17_Hashtable_traitsILb0ELb1ELb1EEEE15_M_bucket_indexEy"
 "_ZNKSt10_HashtableIyySaIyENSt8__detail9_IdentityESt8equal_toIyESt4hashIyENS1_18_Mod_range_hashingENS1_20_Default_ranged_hashENS1_20_Prime_rehash_policyENS1_17_Hashtable_traitsILb0ELb1ELb1EEEE15_M_find_node_trIyEEPNS1_10_Hash_nodeIyLb0EEEyRKT_y"
 "_ZNKSt10_HashtableIyySaIyENSt8__detail9_IdentityESt8equal_toIyESt4hashIyENS1_18_Mod_range_hashingENS1_20_Default_ranged_hashENS1_20_Prime_rehash_policyENS1_17_Hashtable_traitsILb0ELb1ELb1EEEE19_M_find_before_nodeEyRKyy"
 "_ZNKSt10_HashtableIyySaIyENSt8__detail9_IdentityESt8equal_toIyESt4hashIyENS1_18_Mod_range_hashingENS1_20_Default_ranged_hashENS1_20_Prime_rehash_policyENS1_17_Hashtable_traitsILb0ELb1ELb1EEEE21_M_uses_single_bucketEPPNS1_15_Hash_node_baseE"
 "_ZNKSt10_HashtableIyySaIyENSt8__detail9_IdentityESt8equal_toIyESt4hashIyENS1_18_Mod_range_hashingENS1_20_Default_ranged_hashENS1_20_Prime_rehash_policyENS1_17_Hashtable_traitsILb0ELb1ELb1EEEE22_M_find_before_node_trIyEEPNS1_15_Hash_node_baseEyRKT_y"
 "_ZNKSt10_HashtableIyySaIyENSt8__detail9_IdentityESt8equal_toIyESt4hashIyENS1_18_Mod_range_hashingENS1_20_Default_ranged_hashENS1_20_Prime_rehash_policyENS1_17_Hashtable_traitsILb0ELb1ELb1EEEE3endEv"
 "_ZNKSt10_HashtableIyySaIyENSt8__detail9_IdentityESt8equal_toIyESt4hashIyENS1_18_Mod_range_hashingENS1_20_Default_ranged_hashENS1_20_Prime_rehash_policyENS1_17_Hashtable_traitsILb0ELb1ELb1EEEE4findERKy"
 "_ZNKSt10_HashtableIyySaIyENSt8__detail9_IdentityESt8equal_toIyESt4hashIyENS1_18_Mod_range_hashingENS1_20_Default_ranged_hashENS1_20_Prime_rehash_policyENS1_17_Hashtable_traitsILb0ELb1ELb1EEEE4sizeEv"
 "_ZNKSt10_HashtableIyySaIyENSt8__detail9_IdentityESt8equal_toIyESt4hashIyENS1_18_Mod_range_hashingENS1_20_Default_ranged_hashENS1_20_Prime_rehash_policyENS1_17_Hashtable_traitsILb0ELb1ELb1EEEE5countERKy"
 "_ZNKSt10_HashtableIyySaIyENSt8__detail9_IdentityESt8equal_toIyESt4hashIyENS1_18_Mod_range_hashingENS1_20_Default_ranged_hashENS1_20_Prime_rehash_policyENS1_17_Hashtable_traitsILb0ELb1ELb1EEEE8_M_beginEv"
 "_ZNKSt11_Deque_baseISt4pairIiiESaIS1_EE19_M_get_Tp_allocatorEv"
 "_ZNKSt11_Deque_baseISt4pairIiiESaIS1_EE20_M_get_map_allocatorEv"
 "_ZNKSt12_Vector_baseIdSaIdEE13get_allocatorEv"
 "_ZNKSt12_Vector_baseIdSaIdEE19_M_get_Tp_allocatorEv"
 "_ZNKSt12_Vector_baseIiSaIiEE13get_allocatorEv"
 "_ZNKSt12_Vector_baseIiSaIiEE19_M_get_Tp_allocatorEv"
 "_ZNKSt12_Vector_baseISt4pairIddESaIS1_EE19_M_get_Tp_allocatorEv"
 "_ZNKSt12_Vector_baseISt4pairIdiESaIS1_EE19_M_get_Tp_allocatorEv"
 "_ZNKSt12_Vector_baseISt4pairIiiESaIS1_EE19_M_get_Tp_allocatorEv"
 "_ZNKSt12_Vector_baseISt6vectorIdSaIdEESaIS2_EE19_M_get_Tp_allocatorEv"
 "_ZNKSt12_Vector_baseISt6vectorIS0_IdSaIdEESaIS2_EESaIS4_EE19_M_get_Tp_allocatorEv"
 "_ZNKSt12_Vector_baseIySaIyEE19_M_get_Tp_allocatorEv"
 "_ZNKSt13_Rb_tree_nodeIiE9_M_valptrEv"
 "_ZNKSt13move_iteratorIPdE4baseEv"
 "_ZNKSt13move_iteratorIPiE4baseEv"
 "_ZNKSt13unordered_setIiSt4hashIiESt8equal_toIiESaIiEE5countERKi"
 "_ZNKSt13unordered_setIySt4hashIyESt8equal_toIyESaIyEE5countERKy"
 "_ZNKSt15_Deque_iteratorISt4pairIiiERS1_PS1_EdeEv"
 "_ZNKSt16initializer_listIdE3endEv"
 "_ZNKSt16initializer_listIdE4sizeEv"
 "_ZNKSt16initializer_listIdE5beginEv"
 "_ZNKSt16initializer_listIiE3endEv"
 "_ZNKSt16initializer_listIiE4sizeEv"
 "_ZNKSt16initializer_listIiE5beginEv"
 "_ZNKSt16initializer_listISt4pairIiiEE3endEv"
 "_ZNKSt16initializer_listISt4pairIiiEE4sizeEv"
 "_ZNKSt16initializer_listISt4pairIiiEE5beginEv"
 "_ZNKSt23_Rb_tree_const_iteratorIiEdeEv"
 "_ZNKSt3setIiSt4lessIiESaIiEE3endEv"
 "_ZNKSt3setIiSt4lessIiESaIiEE4sizeEv"
 "_ZNKSt3setIiSt4lessIiESaIiEE5beginEv"
 "_ZNKSt4hashIiEclEi"
 "_ZNKSt4hashIyEclEy"
 "_ZNKSt4lessIiEclERKiS2_"
 "_ZNKSt5dequeISt4pairIiiESaIS1_EE4sizeEv"
 "_ZNKSt5dequeISt4pairIiiESaIS1_EE5emptyEv"
 "_ZNKSt5dequeISt4pairIiiESaIS1_EE8max_sizeEv"
 "_ZNKSt5queueISt4pairIiiESt5dequeIS1_SaIS1_EEE5emptyEv"
 "_ZNKSt6vectorIdSaIdEE12_M_check_lenEyPKc"
 "_ZNKSt6vectorIdSaIdEE3endEv"
 "_ZNKSt6vectorIdSaIdEE4sizeEv"
 "_ZNKSt6vectorIdSaIdEE5beginEv"
 "_ZNKSt6vectorIdSaIdEE5emptyEv"
 "_ZNKSt6vectorIdSaIdEE6cbeginEv"
 "_ZNKSt6vectorIdSaIdEE8capacityEv"
 "_ZNKSt6vectorIdSaIdEE8max_sizeEv"
 "_ZNKSt6vectorIdSaIdEEixEy"
 "_ZNKSt6vectorIiSaIiEE12_M_check_lenEyPKc"
 "_ZNKSt6vectorIiSaIiEE3endEv"
 "_ZNKSt6vectorIiSaIiEE4sizeEv"
 "_ZNKSt6vectorIiSaIiEE5beginEv"
 "_ZNKSt6vectorIiSaIiEE6cbeginEv"
 "_ZNKSt6vectorIiSaIiEE8max_sizeEv"
 "_ZNKSt6vectorIiSaIiEEixEy"
 "_ZNKSt6vectorIS_IdSaIdEESaIS1_EE12_M_check_lenEyPKc"
 "_ZNKSt6vectorIS_IdSaIdEESaIS1_EE3endEv"
 "_ZNKSt6vectorIS_IdSaIdEESaIS1_EE4sizeEv"
 "_ZNKSt6vectorIS_IdSaIdEESaIS1_EE5beginEv"
 "_ZNKSt6vectorIS_IdSaIdEESaIS1_EE5emptyEv"
 "_ZNKSt6vectorIS_IdSaIdEESaIS1_EE8capacityEv"
 "_ZNKSt6vectorIS_IdSaIdEESaIS1_EE8max_sizeEv"
 "_ZNKSt6vectorIS_IdSaIdEESaIS1_EEixEy"
 "_ZNKSt6vectorIS_IS_IdSaIdEESaIS1_EESaIS3_EE12_M_check_lenEyPKc"
 "_ZNKSt6vectorIS_IS_IdSaIdEESaIS1_EESaIS3_EE4sizeEv"
 "_ZNKSt6vectorIS_IS_IdSaIdEESaIS1_EESaIS3_EE8capacityEv"
 "_ZNKSt6vectorIS_IS_IdSaIdEESaIS1_EESaIS3_EE8max_sizeEv"
 "_ZNKSt6vectorISt4pairIddESaIS1_EE12_M_check_lenEyPKc"
 "_ZNKSt6vectorISt4pairIddESaIS1_EE4sizeEv"
 "_ZNKSt6vectorISt4pairIddESaIS1_EE8max_sizeEv"
 "_ZNKSt6vectorISt4pairIdiESaIS1_EE12_M_check_lenEyPKc"
 "_ZNKSt6vectorISt4pairIdiESaIS1_EE4sizeEv"
 "_ZNKSt6vectorISt4pairIdiESaIS1_EE8max_sizeEv"
 "_ZNKSt6vectorISt4pairIiiESaIS1_EE12_M_check_lenEyPKc"
 "_ZNKSt6vectorISt4pairIiiESaIS1_EE3endEv"
 "_ZNKSt6vectorISt4pairIiiESaIS1_EE4sizeEv"
 "_ZNKSt6vectorISt4pairIiiESaIS1_EE5beginEv"
 "_ZNKSt6vectorISt4pairIiiESaIS1_EE8max_sizeEv"
 "_ZNKSt6vectorISt4pairIiiESaIS1_EEixEy"
 "_ZNKSt6vectorIySaIyEE12_M_check_lenEyPKc"
 "_ZNKSt6vectorIySaIyEE4sizeEv"
 "_ZNKSt6vectorIySaIyEE8max_sizeEv"
 "_ZNKSt8__detail10_AllocNodeISaINS_10_Hash_nodeIiLb0EEEEEclIJiEEEPS2_DpOT_"
 "_ZNKSt8__detail10_AllocNodeISaINS_10_Hash_nodeIiLb0EEEEEclIJRKiEEEPS2_DpOT_"
 "_ZNKSt8__detail10_AllocNodeISaINS_10_Hash_nodeIyLb0EEEEEclIJyEEEPS2_DpOT_"
 "_ZNKSt8__detail10_Hash_nodeIiLb0EE7_M_nextEv"
 "_ZNKSt8__detail10_Hash_nodeIyLb0EE7_M_nextEv"
 "_ZNKSt8__detail15_Hash_code_baseIiiNS_9_IdentityESt4hashIiENS_18_Mod_range_hashingENS_20_Default_ranged_hashELb0EE12_M_hash_codeERKi"
 "_ZNKSt8__detail15_Hash_code_baseIiiNS_9_IdentityESt4hashIiENS_18_Mod_range_hashingENS_20_Default_ranged_hashELb0EE13_M_store_codeERNS_21_Hash_node_code_cacheILb0EEEy"
 "_ZNKSt8__detail15_Hash_code_baseIiiNS_9_IdentityESt4hashIiENS_18_Mod_range_hashingENS_20_Default_ranged_hashELb0EE15_M_bucket_indexERKNS_16_Hash_node_valueIiLb0EEEy"
 "_ZNKSt8__detail15_Hash_code_baseIiiNS_9_IdentityESt4hashIiENS_18_Mod_range_hashingENS_20_Default_ranged_hashELb0EE15_M_bucket_indexEyy"
 "_ZNKSt8__detail15_Hash_code_baseIiiNS_9_IdentityESt4hashIiENS_18_Mod_range_hashingENS_20_Default_ranged_hashELb0EE15_M_hash_code_trIiEEyRKT_"
 "_ZNKSt8__detail15_Hash_code_baseIiiNS_9_IdentityESt4hashIiENS_18_Mod_range_hashingENS_20_Default_ranged_hashELb0EE7_M_hashEv"
 "_ZNKSt8__detail15_Hash_code_baseIyyNS_9_IdentityESt4hashIyENS_18_Mod_range_hashingENS_20_Default_ranged_hashELb0EE12_M_hash_codeERKy"
 "_ZNKSt8__detail15_Hash_code_baseIyyNS_9_IdentityESt4hashIyENS_18_Mod_range_hashingENS_20_Default_ranged_hashELb0EE13_M_store_codeERNS_21_Hash_node_code_cacheILb0EEEy"
 "_ZNKSt8__detail15_Hash_code_baseIyyNS_9_IdentityESt4hashIyENS_18_Mod_range_hashingENS_20_Default_ranged_hashELb0EE15_M_bucket_indexERKNS_16_Hash_node_valueIyLb0EEEy"
 "_ZNKSt8__detail15_Hash_code_baseIyyNS_9_IdentityESt4hashIyENS_18_Mod_range_hashingENS_20_Default_ranged_hashELb0EE15_M_bucket_indexEyy"
 "_ZNKSt8__detail15_Hash_code_baseIyyNS_9_IdentityESt4hashIyENS_18_Mod_range_hashingENS_20_Default_ranged_hashELb0EE15_M_hash_code_trIyEEyRKT_"
 "_ZNKSt8__detail15_Hash_code_baseIyyNS_9_IdentityESt4hashIyENS_18_Mod_range_hashingENS_20_Default_ranged_hashELb0EE7_M_hashEv"
 "_ZNKSt8__detail15_Hashtable_baseIiiNS_9_IdentityESt8equal_toIiESt4hashIiENS_18_Mod_range_hashingENS_20_Default_ranged_hashENS_17_Hashtable_traitsILb0ELb1ELb1EEEE12_M_equals_trIiEEbRKT_yRKNS_16_Hash_node_valueIiLb0EEE"
 "_ZNKSt8__detail15_Hashtable_baseIiiNS_9_IdentityESt8equal_toIiESt4hashIiENS_18_Mod_range_hashingENS_20_Default_ranged_hashENS_17_Hashtable_traitsILb0ELb1ELb1EEEE13_M_key_equalsERKiRKNS_16_Hash_node_valueIiLb0EEE"
 "_ZNKSt8__detail15_Hashtable_baseIiiNS_9_IdentityESt8equal_toIiESt4hashIiENS_18_Mod_range_hashingENS_20_Default_ranged_hashENS_17_Hashtable_traitsILb0ELb1ELb1EEEE16_M_key_equals_trIiEEbRKT_RKNS_16_Hash_node_valueIiLb0EEE"
 "_ZNKSt8__detail15_Hashtable_baseIiiNS_9_IdentityESt8equal_toIiESt4hashIiENS_18_Mod_range_hashingENS_20_Default_ranged_hashENS_17_Hashtable_traitsILb0ELb1ELb1EEEE5_M_eqEv"
 "_ZNKSt8__detail15_Hashtable_baseIiiNS_9_IdentityESt8equal_toIiESt4hashIiENS_18_Mod_range_hashingENS_20_Default_ranged_hashENS_17_Hashtable_traitsILb0ELb1ELb1EEEE9_M_equalsERKiyRKNS_16_Hash_node_valueIiLb0EEE"
 "_ZNKSt8__detail15_Hashtable_baseIyyNS_9_IdentityESt8equal_toIyESt4hashIyENS_18_Mod_range_hashingENS_20_Default_ranged_hashENS_17_Hashtable_traitsILb0ELb1ELb1EEEE12_M_equals_trIyEEbRKT_yRKNS_16_Hash_node_valueIyLb0EEE"
 "_ZNKSt8__detail15_Hashtable_baseIyyNS_9_IdentityESt8equal_toIyESt4hashIyENS_18_Mod_range_hashingENS_20_Default_ranged_hashENS_17_Hashtable_traitsILb0ELb1ELb1EEEE13_M_key_equalsERKyRKNS_16_Hash_node_valueIyLb0EEE"
 "_ZNKSt8__detail15_Hashtable_baseIyyNS_9_IdentityESt8equal_toIyESt4hashIyENS_18_Mod_range_hashingENS_20_Default_ranged_hashENS_17_Hashtable_traitsILb0ELb1ELb1EEEE16_M_key_equals_trIyEEbRKT_RKNS_16_Hash_node_valueIyLb0EEE"
 "_ZNKSt8__detail15_Hashtable_baseIyyNS_9_IdentityESt8equal_toIyESt4hashIyENS_18_Mod_range_hashingENS_20_Default_ranged_hashENS_17_Hashtable_traitsILb0ELb1ELb1EEEE5_M_eqEv"
 "_ZNKSt8__detail15_Hashtable_baseIyyNS_9_IdentityESt8equal_toIyESt4hashIyENS_18_Mod_range_hashingENS_20_Default_ranged_hashENS_17_Hashtable_traitsILb0ELb1ELb1EEEE9_M_equalsERKyyRKNS_16_Hash_node_valueIyLb0EEE"
 "_ZNKSt8__detail18_Mod_range_hashingclEyy"
 "_ZNKSt8__detail20_Prime_rehash_policy8_M_stateEv"
 "_ZNKSt8__detail21_Hashtable_ebo_helperILi0ESt8equal_toIiELb1EE7_M_cgetEv"
 "_ZNKSt8__detail21_Hashtable_ebo_helperILi0ESt8equal_toIyELb1EE7_M_cgetEv"
 "_ZNKSt8__detail21_Hashtable_ebo_helperILi1ESt4hashIiELb1EE7_M_cgetEv"
 "_ZNKSt8__detail21_Hashtable_ebo_helperILi1ESt4hashIyELb1EE7_M_cgetEv"
 "_ZNKSt8__detail9_IdentityclIiEEOT_S3_"
 "_ZNKSt8__detail9_IdentityclIRKiEEOT_S5_"
 "_ZNKSt8__detail9_IdentityclIRKyEEOT_S5_"
 "_ZNKSt8__detail9_IdentityclIyEEOT_S3_"
 "_ZNKSt8_Rb_treeIiiSt9_IdentityIiESt4lessIiESaIiEE11_Alloc_nodeclIRKiEEPSt13_Rb_tree_nodeIiEOT_"
 "_ZNKSt8_Rb_treeIiiSt9_IdentityIiESt4lessIiESaIiEE3endEv"
 "_ZNKSt8_Rb_treeIiiSt9_IdentityIiESt4lessIiESaIiEE4sizeEv"
 "_ZNKSt8_Rb_treeIiiSt9_IdentityIiESt4lessIiESaIiEE5beginEv"
 "_ZNKSt8_Rb_treeIiiSt9_IdentityIiESt4lessIiESaIiEE9_M_mbeginEv"
 "_ZNKSt8equal_toIiEclERKiS2_"
 "_ZNKSt8equal_toIyEclERKyS2_"
 "_ZNKSt9_IdentityIiEclERKi"
 "_ZNSt10__pair_getILy0EE10__move_getIiiEEOT_OSt4pairIS2_T0_E"
 "_ZNSt10__pair_getILy0EE11__const_getIiiEERKT_RKSt4pairIS2_T0_E"
 "_ZNSt10__pair_getILy0EE16__const_move_getIiiEEOKT_OKSt4pairIS2_T0_E"
 "_ZNSt10__pair_getILy1EE10__move_getIiiEEOT0_OSt4pairIT_S2_E"
 "_ZNSt10__pair_getILy1EE11__const_getIiiEERKT0_RKSt4pairIT_S2_E"
 "_ZNSt10__pair_getILy1EE16__const_move_getIiiEEOKT0_OKSt4pairIT_S2_E"
 "_ZNSt10_HashtableIiiSaIiENSt8__detail9_IdentityESt8equal_toIiESt4hashIiENS1_18_Mod_range_hashingENS1_20_Default_ranged_hashENS1_20_Prime_rehash_policyENS1_17_Hashtable_traitsILb0ELb1ELb1EEEE12_Scoped_nodeC1EPNS1_10_Hash_nodeIiLb0EEEPNS1_16_Hashtable_allocISaISF_EEE"
 "_ZNSt10_HashtableIiiSaIiENSt8__detail9_IdentityESt8equal_toIiESt4hashIiENS1_18_Mod_range_hashingENS1_20_Default_ranged_hashENS1_20_Prime_rehash_policyENS1_17_Hashtable_traitsILb0ELb1ELb1EEEE12_Scoped_nodeD1Ev"
 "_ZNSt10_HashtableIiiSaIiENSt8__detail9_IdentityESt8equal_toIiESt4hashIiENS1_18_Mod_range_hashingENS1_20_Default_ranged_hashENS1_20_Prime_rehash_policyENS1_17_Hashtable_traitsILb0ELb1ELb1EEEE16_M_insert_uniqueIiiNS1_10_AllocNodeISaINS1_10_Hash_nodeIiLb0EEEEEEEESt4pairINS1_14_Node_iteratorIiLb1ELb0EEEbEOT_OT0_RKT1_"
 "_ZNSt10_HashtableIiiSaIiENSt8__detail9_IdentityESt8equal_toIiESt4hashIiENS1_18_Mod_range_hashingENS1_20_Default_ranged_hashENS1_20_Prime_rehash_policyENS1_17_Hashtable_traitsILb0ELb1ELb1EEEE16_M_insert_uniqueIRKiSF_NS1_10_AllocNodeISaINS1_10_Hash_nodeIiLb0EEEEEEEESt4pairINS1_14_Node_iteratorIiLb1ELb0EEEbEOT_OT0_RKT1_"
 "_ZNSt10_HashtableIiiSaIiENSt8__detail9_IdentityESt8equal_toIiESt4hashIiENS1_18_Mod_range_hashingENS1_20_Default_ranged_hashENS1_20_Prime_rehash_policyENS1_17_Hashtable_traitsILb0ELb1ELb1EEEE19_M_allocate_bucketsEy"
 "_ZNSt10_HashtableIiiSaIiENSt8__detail9_IdentityESt8equal_toIiESt4hashIiENS1_18_Mod_range_hashingENS1_20_Default_ranged_hashENS1_20_Prime_rehash_policyENS1_17_Hashtable_traitsILb0ELb1ELb1EEEE20_M_insert_unique_auxIiNS1_10_AllocNodeISaINS1_10_Hash_nodeIiLb0EEEEEEEESt4pairINS1_14_Node_iteratorIiLb1ELb0EEEbEOT_RKT0_"
 "_ZNSt10_HashtableIiiSaIiENSt8__detail9_IdentityESt8equal_toIiESt4hashIiENS1_18_Mod_range_hashingENS1_20_Default_ranged_hashENS1_20_Prime_rehash_policyENS1_17_Hashtable_traitsILb0ELb1ELb1EEEE20_M_insert_unique_auxIRKiNS1_10_AllocNodeISaINS1_10_Hash_nodeIiLb0EEEEEEEESt4pairINS1_14_Node_iteratorIiLb1ELb0EEEbEOT_RKT0_"
 "_ZNSt10_HashtableIiiSaIiENSt8__detail9_IdentityESt8equal_toIiESt4hashIiENS1_18_Mod_range_hashingENS1_20_Default_ranged_hashENS1_20_Prime_rehash_policyENS1_17_Hashtable_traitsILb0ELb1ELb1EEEE21_M_deallocate_bucketsEPPNS1_15_Hash_node_baseEy"
 "_ZNSt10_HashtableIiiSaIiENSt8__detail9_IdentityESt8equal_toIiESt4hashIiENS1_18_Mod_range_hashingENS1_20_Default_ranged_hashENS1_20_Prime_rehash_policyENS1_17_Hashtable_traitsILb0ELb1ELb1EEEE21_M_deallocate_bucketsEv"
 "_ZNSt10_HashtableIiiSaIiENSt8__detail9_IdentityESt8equal_toIiESt4hashIiENS1_18_Mod_range_hashingENS1_20_Default_ranged_hashENS1_20_Prime_rehash_policyENS1_17_Hashtable_traitsILb0ELb1ELb1EEEE21_M_insert_unique_nodeEyyPNS1_10_Hash_nodeIiLb0EEEy"
 "_ZNSt10_HashtableIiiSaIiENSt8__detail9_IdentityESt8equal_toIiESt4hashIiENS1_18_Mod_range_hashingENS1_20_Default_ranged_hashENS1_20_Prime_rehash_policyENS1_17_Hashtable_traitsILb0ELb1ELb1EEEE22__small_size_thresholdEv"
 "_ZNSt10_HashtableIiiSaIiENSt8__detail9_IdentityESt8equal_toIiESt4hashIiENS1_18_Mod_range_hashingENS1_20_Default_ranged_hashENS1_20_Prime_rehash_policyENS1_17_Hashtable_traitsILb0ELb1ELb1EEEE22_M_insert_bucket_beginEyPNS1_10_Hash_nodeIiLb0EEE"
 "_ZNSt10_HashtableIiiSaIiENSt8__detail9_IdentityESt8equal_toIiESt4hashIiENS1_18_Mod_range_hashingENS1_20_Default_ranged_hashENS1_20_Prime_rehash_policyENS1_17_Hashtable_traitsILb0ELb1ELb1EEEE5clearEv"
 "_ZNSt10_HashtableIiiSaIiENSt8__detail9_IdentityESt8equal_toIiESt4hashIiENS1_18_Mod_range_hashingENS1_20_Default_ranged_hashENS1_20_Prime_rehash_policyENS1_17_Hashtable_traitsILb0ELb1ELb1EEEE9_M_insertIiNS1_10_AllocNodeISaINS1_10_Hash_nodeIiLb0EEEEEEEESt4pairINS1_14_Node_iteratorIiLb1ELb0EEEbEOT_RKT0_St17integral_constantIbLb1EE"
 "_ZNSt10_HashtableIiiSaIiENSt8__detail9_IdentityESt8equal_toIiESt4hashIiENS1_18_Mod_range_hashingENS1_20_Default_ranged_hashENS1_20_Prime_rehash_policyENS1_17_Hashtable_traitsILb0ELb1ELb1EEEE9_M_insertIRKiNS1_10_AllocNodeISaINS1_10_Hash_nodeIiLb0EEEEEEEESt4pairINS1_14_Node_iteratorIiLb1ELb0EEEbEOT_RKT0_St17integral_constantIbLb1EE"
 "_ZNSt10_HashtableIiiSaIiENSt8__detail9_IdentityESt8equal_toIiESt4hashIiENS1_18_Mod_range_hashingENS1_20_Default_ranged_hashENS1_20_Prime_rehash_policyENS1_17_Hashtable_traitsILb0ELb1ELb1EEEE9_M_rehashEySt17integral_constantIbLb1EE"
 "_ZNSt10_HashtableIiiSaIiENSt8__detail9_IdentityESt8equal_toIiESt4hashIiENS1_18_Mod_range_hashingENS1_20_Default_ranged_hashENS1_20_Prime_rehash_policyENS1_17_Hashtable_traitsILb0ELb1ELb1EEEEC1ERKS6_RKS4_RKS0_"
 "_ZNSt10_HashtableIiiSaIiENSt8__detail9_IdentityESt8equal_toIiESt4hashIiENS1_18_Mod_range_hashingENS1_20_Default_ranged_hashENS1_20_Prime_rehash_policyENS1_17_Hashtable_traitsILb0ELb1ELb1EEEEC1Ev"
 "_ZNSt10_HashtableIiiSaIiENSt8__detail9_IdentityESt8equal_toIiESt4hashIiENS1_18_Mod_range_hashingENS1_20_Default_ranged_hashENS1_20_Prime_rehash_policyENS1_17_Hashtable_traitsILb0ELb1ELb1EEEEC1EyRKS6_RKS4_RKS0_"
 "_ZNSt10_HashtableIiiSaIiENSt8__detail9_IdentityESt8equal_toIiESt4hashIiENS1_18_Mod_range_hashingENS1_20_Default_ranged_hashENS1_20_Prime_rehash_policyENS1_17_Hashtable_traitsILb0ELb1ELb1EEEEC1IN9__gnu_cxx17__normal_iteratorIPKiSt6vectorIiS0_EEEEET_SL_yRKS6_RKS4_RKS0_"
 "_ZNSt10_HashtableIiiSaIiENSt8__detail9_IdentityESt8equal_toIiESt4hashIiENS1_18_Mod_range_hashingENS1_20_Default_ranged_hashENS1_20_Prime_rehash_policyENS1_17_Hashtable_traitsILb0ELb1ELb1EEEEC1IN9__gnu_cxx17__normal_iteratorIPKiSt6vectorIiS0_EEEEET_SL_yRKS6_RKS4_RKS0_St17integral_constantIbLb1EE"
 "_ZNSt10_HashtableIiiSaIiENSt8__detail9_IdentityESt8equal_toIiESt4hashIiENS1_18_Mod_range_hashingENS1_20_Default_ranged_hashENS1_20_Prime_rehash_policyENS1_17_Hashtable_traitsILb0ELb1ELb1EEEED1Ev"
 "_ZNSt10_HashtableIyySaIyENSt8__detail9_IdentityESt8equal_toIyESt4hashIyENS1_18_Mod_range_hashingENS1_20_Default_ranged_hashENS1_20_Prime_rehash_policyENS1_17_Hashtable_traitsILb0ELb1ELb1EEEE12_Scoped_nodeC1EPNS1_10_Hash_nodeIyLb0EEEPNS1_16_Hashtable_allocISaISF_EEE"
 "_ZNSt10_HashtableIyySaIyENSt8__detail9_IdentityESt8equal_toIyESt4hashIyENS1_18_Mod_range_hashingENS1_20_Default_ranged_hashENS1_20_Prime_rehash_policyENS1_17_Hashtable_traitsILb0ELb1ELb1EEEE12_Scoped_nodeD1Ev"
 "_ZNSt10_HashtableIyySaIyENSt8__detail9_IdentityESt8equal_toIyESt4hashIyENS1_18_Mod_range_hashingENS1_20_Default_ranged_hashENS1_20_Prime_rehash_policyENS1_17_Hashtable_traitsILb0ELb1ELb1EEEE16_M_insert_uniqueIyyNS1_10_AllocNodeISaINS1_10_Hash_nodeIyLb0EEEEEEEESt4pairINS1_14_Node_iteratorIyLb1ELb0EEEbEOT_OT0_RKT1_"
 "_ZNSt10_HashtableIyySaIyENSt8__detail9_IdentityESt8equal_toIyESt4hashIyENS1_18_Mod_range_hashingENS1_20_Default_ranged_hashENS1_20_Prime_rehash_policyENS1_17_Hashtable_traitsILb0ELb1ELb1EEEE19_M_allocate_bucketsEy"
 "_ZNSt10_HashtableIyySaIyENSt8__detail9_IdentityESt8equal_toIyESt4hashIyENS1_18_Mod_range_hashingENS1_20_Default_ranged_hashENS1_20_Prime_rehash_policyENS1_17_Hashtable_traitsILb0ELb1ELb1EEEE20_M_insert_unique_auxIyNS1_10_AllocNodeISaINS1_10_Hash_nodeIyLb0EEEEEEEESt4pairINS1_14_Node_iteratorIyLb1ELb0EEEbEOT_RKT0_"
 "_ZNSt10_HashtableIyySaIyENSt8__detail9_IdentityESt8equal_toIyESt4hashIyENS1_18_Mod_range_hashingENS1_20_Default_ranged_hashENS1_20_Prime_rehash_policyENS1_17_Hashtable_traitsILb0ELb1ELb1EEEE21_M_deallocate_bucketsEPPNS1_15_Hash_node_baseEy"
 "_ZNSt10_HashtableIyySaIyENSt8__detail9_IdentityESt8equal_toIyESt4hashIyENS1_18_Mod_range_hashingENS1_20_Default_ranged_hashENS1_20_Prime_rehash_policyENS1_17_Hashtable_traitsILb0ELb1ELb1EEEE21_M_deallocate_bucketsEv"
 "_ZNSt10_HashtableIyySaIyENSt8__detail9_IdentityESt8equal_toIyESt4hashIyENS1_18_Mod_range_hashingENS1_20_Default_ranged_hashENS1_20_Prime_rehash_policyENS1_17_Hashtable_traitsILb0ELb1ELb1EEEE21_M_insert_unique_nodeEyyPNS1_10_Hash_nodeIyLb0EEEy"
 "_ZNSt10_HashtableIyySaIyENSt8__detail9_IdentityESt8equal_toIyESt4hashIyENS1_18_Mod_range_hashingENS1_20_Default_ranged_hashENS1_20_Prime_rehash_policyENS1_17_Hashtable_traitsILb0ELb1ELb1EEEE22__small_size_thresholdEv"
 "_ZNSt10_HashtableIyySaIyENSt8__detail9_IdentityESt8equal_toIyESt4hashIyENS1_18_Mod_range_hashingENS1_20_Default_ranged_hashENS1_20_Prime_rehash_policyENS1_17_Hashtable_traitsILb0ELb1ELb1EEEE22_M_insert_bucket_beginEyPNS1_10_Hash_nodeIyLb0EEE"
 "_ZNSt10_HashtableIyySaIyENSt8__detail9_IdentityESt8equal_toIyESt4hashIyENS1_18_Mod_range_hashingENS1_20_Default_ranged_hashENS1_20_Prime_rehash_policyENS1_17_Hashtable_traitsILb0ELb1ELb1EEEE5clearEv"
 "_ZNSt10_HashtableIyySaIyENSt8__detail9_IdentityESt8equal_toIyESt4hashIyENS1_18_Mod_range_hashingENS1_20_Default_ranged_hashENS1_20_Prime_rehash_policyENS1_17_Hashtable_traitsILb0ELb1ELb1EEEE9_M_insertIyNS1_10_AllocNodeISaINS1_10_Hash_nodeIyLb0EEEEEEEESt4pairINS1_14_Node_iteratorIyLb1ELb0EEEbEOT_RKT0_St17integral_constantIbLb1EE"
 "_ZNSt10_HashtableIyySaIyENSt8__detail9_IdentityESt8equal_toIyESt4hashIyENS1_18_Mod_range_hashingENS1_20_Default_ranged_hashENS1_20_Prime_rehash_policyENS1_17_Hashtable_traitsILb0ELb1ELb1EEEE9_M_rehashEySt17integral_constantIbLb1EE"
 "_ZNSt10_HashtableIyySaIyENSt8__detail9_IdentityESt8equal_toIyESt4hashIyENS1_18_Mod_range_hashingENS1_20_Default_ranged_hashENS1_20_Prime_rehash_policyENS1_17_Hashtable_traitsILb0ELb1ELb1EEEEC1Ev"
 "_ZNSt10_HashtableIyySaIyENSt8__detail9_IdentityESt8equal_toIyESt4hashIyENS1_18_Mod_range_hashingENS1_20_Default_ranged_hashENS1_20_Prime_rehash_policyENS1_17_Hashtable_traitsILb0ELb1ELb1EEEED1Ev"
 "_ZNSt11__copy_moveILb0ELb0ESt26random_access_iterator_tagE12__assign_oneIdKdEEvPT_PT0_"
 "_ZNSt11__copy_moveILb0ELb0ESt26random_access_iterator_tagE12__assign_oneIiiEEvPT_PT0_"
 "_ZNSt11__copy_moveILb0ELb0ESt26random_access_iterator_tagE12__assign_oneIiKiEEvPT_PT0_"
 "_ZNSt11__copy_moveILb0ELb0ESt26random_access_iterator_tagE12__assign_oneIPSt4pairIiiES5_EEvPT_PT0_"
 "_ZNSt11__copy_moveILb0ELb1ESt26random_access_iterator_tagE8__copy_mIiiEEPT0_PT_S6_S4_"
 "_ZNSt11__copy_moveILb0ELb1ESt26random_access_iterator_tagE8__copy_mIKddEEPT0_PT_S7_S5_"
 "_ZNSt11__copy_moveILb0ELb1ESt26random_access_iterator_tagE8__copy_mIKiiEEPT0_PT_S7_S5_"
 "_ZNSt11__copy_moveILb0ELb1ESt26random_access_iterator_tagE8__copy_mIPSt4pairIiiES5_EEPT0_PT_S9_S7_"
 "_ZNSt11__copy_moveILb1ELb0ESt26random_access_iterator_tagE12__assign_oneIddEEvPT_PT0_"
 "_ZNSt11__copy_moveILb1ELb0ESt26random_access_iterator_tagE12__assign_oneIiiEEvPT_PT0_"
 "_ZNSt11__copy_moveILb1ELb1ESt26random_access_iterator_tagE8__copy_mIddEEPT0_PT_S6_S4_"
 "_ZNSt11__copy_moveILb1ELb1ESt26random_access_iterator_tagE8__copy_mIiiEEPT0_PT_S6_S4_"
 "_ZNSt11_Deque_baseISt4pairIiiESaIS1_EE11_Deque_implC1Ev"
 "_ZNSt11_Deque_baseISt4pairIiiESaIS1_EE11_Deque_implD1Ev"
 "_ZNSt11_Deque_baseISt4pairIiiESaIS1_EE15_M_allocate_mapEy"
 "_ZNSt11_Deque_baseISt4pairIiiESaIS1_EE15_M_create_nodesEPPS1_S5_"
 "_ZNSt11_Deque_baseISt4pairIiiESaIS1_EE16_Deque_impl_dataC2Ev"
 "_ZNSt11_Deque_baseISt4pairIiiESaIS1_EE16_M_allocate_nodeEv"
 "_ZNSt11_Deque_baseISt4pairIiiESaIS1_EE16_M_destroy_nodesEPPS1_S5_"
 "_ZNSt11_Deque_baseISt4pairIiiESaIS1_EE17_M_deallocate_mapEPPS1_y"
 "_ZNSt11_Deque_baseISt4pairIiiESaIS1_EE17_M_initialize_mapEy"
 "_ZNSt11_Deque_baseISt4pairIiiESaIS1_EE18_M_deallocate_nodeEPS1_"
 "_ZNSt11_Deque_baseISt4pairIiiESaIS1_EE19_M_get_Tp_allocatorEv"
 "_ZNSt11_Deque_baseISt4pairIiiESaIS1_EEC2Ev"
 "_ZNSt11_Deque_baseISt4pairIiiESaIS1_EED2Ev"
 "_ZNSt12_Destroy_auxILb0EE9__destroyIPSt6vectorIdSaIdEEEEvT_S6_"
 "_ZNSt12_Destroy_auxILb0EE9__destroyIPSt6vectorIiSaIiEEEEvT_S6_"
 "_ZNSt12_Destroy_auxILb0EE9__destroyIPSt6vectorIS2_IdSaIdEESaIS4_EEEEvT_S8_"
 "_ZNSt12_Destroy_auxILb1EE9__destroyIPdEEvT_S3_"
 "_ZNSt12_Destroy_auxILb1EE9__destroyIPiEEvT_S3_"
 "_ZNSt12_Destroy_auxILb1EE9__destroyIPSt4pairIddEEEvT_S5_"
 "_ZNSt12_Destroy_auxILb1EE9__destroyIPSt4pairIdiEEEvT_S5_"
 "_ZNSt12_Destroy_auxILb1EE9__destroyIPSt4pairIiiEEEvT_S5_"
 "_ZNSt12_Destroy_auxILb1EE9__destroyIPyEEvT_S3_"
 "_ZNSt12_Vector_baseIdSaIdEE11_M_allocateEy"
 "_ZNSt12_Vector_baseIdSaIdEE12_Vector_implC1EOS2_"
 "_ZNSt12_Vector_baseIdSaIdEE12_Vector_implC1ERKS0_"
 "_ZNSt12_Vector_baseIdSaIdEE12_Vector_implC1Ev"
 "_ZNSt12_Vector_baseIdSaIdEE12_Vector_implD1Ev"
 "_ZNSt12_Vector_baseIdSaIdEE13_M_deallocateEPdy"
 "_ZNSt12_Vector_baseIdSaIdEE17_M_create_storageEy"
 "_ZNSt12_Vector_baseIdSaIdEE17_Vector_impl_data12_M_copy_dataERKS2_"
 "_ZNSt12_Vector_baseIdSaIdEE17_Vector_impl_data12_M_swap_dataERS2_"
 "_ZNSt12_Vector_baseIdSaIdEE17_Vector_impl_dataC1Ev"
 "_ZNSt12_Vector_baseIdSaIdEE17_Vector_impl_dataC2EOS2_"
 "_ZNSt12_Vector_baseIdSaIdEE17_Vector_impl_dataC2Ev"
 "_ZNSt12_Vector_baseIdSaIdEE19_M_get_Tp_allocatorEv"
 "_ZNSt12_Vector_baseIdSaIdEEC2EOS1_"
 "_ZNSt12_Vector_baseIdSaIdEEC2ERKS0_"
 "_ZNSt12_Vector_baseIdSaIdEEC2Ev"
 "_ZNSt12_Vector_baseIdSaIdEEC2EyRKS0_"
 "_ZNSt12_Vector_baseIdSaIdEED2Ev"
 "_ZNSt12_Vector_baseIiSaIiEE11_M_allocateEy"
 "_ZNSt12_Vector_baseIiSaIiEE12_Vector_implC1EOS2_"
 "_ZNSt12_Vector_baseIiSaIiEE12_Vector_implC1ERKS0_"
 "_ZNSt12_Vector_baseIiSaIiEE12_Vector_implC1Ev"
 "_ZNSt12_Vector_baseIiSaIiEE12_Vector_implD1Ev"
 "_ZNSt12_Vector_baseIiSaIiEE13_M_deallocateEPiy"
 "_ZNSt12_Vector_baseIiSaIiEE17_M_create_storageEy"
 "_ZNSt12_Vector_baseIiSaIiEE17_Vector_impl_data12_M_copy_dataERKS2_"
 "_ZNSt12_Vector_baseIiSaIiEE17_Vector_impl_data12_M_swap_dataERS2_"
 "_ZNSt12_Vector_baseIiSaIiEE17_Vector_impl_dataC1Ev"
 "_ZNSt12_Vector_baseIiSaIiEE17_Vector_impl_dataC2EOS2_"
 "_ZNSt12_Vector_baseIiSaIiEE17_Vector_impl_dataC2Ev"
 "_ZNSt12_Vector_baseIiSaIiEE19_M_get_Tp_allocatorEv"
 "_ZNSt12_Vector_baseIiSaIiEEC2EOS1_"
 "_ZNSt12_Vector_baseIiSaIiEEC2ERKS0_"
 "_ZNSt12_Vector_baseIiSaIiEEC2Ev"
 "_ZNSt12_Vector_baseIiSaIiEEC2EyRKS0_"
 "_ZNSt12_Vector_baseIiSaIiEED2Ev"
 "_ZNSt12_Vector_baseISt4pairIddESaIS1_EE11_M_allocateEy"
 "_ZNSt12_Vector_baseISt4pairIddESaIS1_EE12_Vector_implC1Ev"
 "_ZNSt12_Vector_baseISt4pairIddESaIS1_EE12_Vector_implD1Ev"
 "_ZNSt12_Vector_baseISt4pairIddESaIS1_EE13_M_deallocateEPS1_y"
 "_ZNSt12_Vector_baseISt4pairIddESaIS1_EE17_Vector_impl_dataC2Ev"
 "_ZNSt12_Vector_baseISt4pairIddESaIS1_EE19_M_get_Tp_allocatorEv"
 "_ZNSt12_Vector_baseISt4pairIddESaIS1_EEC2Ev"
 "_ZNSt12_Vector_baseISt4pairIddESaIS1_EED2Ev"
 "_ZNSt12_Vector_baseISt4pairIdiESaIS1_EE11_M_allocateEy"
 "_ZNSt12_Vector_baseISt4pairIdiESaIS1_EE12_Vector_implC1Ev"
 "_ZNSt12_Vector_baseISt4pairIdiESaIS1_EE12_Vector_implD1Ev"
 "_ZNSt12_Vector_baseISt4pairIdiESaIS1_EE13_M_deallocateEPS1_y"
 "_ZNSt12_Vector_baseISt4pairIdiESaIS1_EE17_Vector_impl_dataC2Ev"
 "_ZNSt12_Vector_baseISt4pairIdiESaIS1_EE19_M_get_Tp_allocatorEv"
 "_ZNSt12_Vector_baseISt4pairIdiESaIS1_EEC2Ev"
 "_ZNSt12_Vector_baseISt4pairIdiESaIS1_EED2Ev"
 "_ZNSt12_Vector_baseISt4pairIiiESaIS1_EE11_M_allocateEy"
 "_ZNSt12_Vector_baseISt4pairIiiESaIS1_EE12_Vector_implC1ERKS2_"
 "_ZNSt12_Vector_baseISt4pairIiiESaIS1_EE12_Vector_implC1Ev"
 "_ZNSt12_Vector_baseISt4pairIiiESaIS1_EE12_Vector_implD1Ev"
 "_ZNSt12_Vector_baseISt4pairIiiESaIS1_EE13_M_deallocateEPS1_y"
 "_ZNSt12_Vector_baseISt4pairIiiESaIS1_EE17_Vector_impl_dataC2Ev"
 "_ZNSt12_Vector_baseISt4pairIiiESaIS1_EE19_M_get_Tp_allocatorEv"
 "_ZNSt12_Vector_baseISt4pairIiiESaIS1_EEC2ERKS2_"
 "_ZNSt12_Vector_baseISt4pairIiiESaIS1_EEC2Ev"
 "_ZNSt12_Vector_baseISt4pairIiiESaIS1_EED2Ev"
 "_ZNSt12_Vector_baseISt6vectorIdSaIdEESaIS2_EE11_M_allocateEy"
 "_ZNSt12_Vector_baseISt6vectorIdSaIdEESaIS2_EE12_Vector_implC1EOS5_"
 "_ZNSt12_Vector_baseISt6vectorIdSaIdEESaIS2_EE12_Vector_implC1ERKS3_"
 "_ZNSt12_Vector_baseISt6vectorIdSaIdEESaIS2_EE12_Vector_implC1Ev"
 "_ZNSt12_Vector_baseISt6vectorIdSaIdEESaIS2_EE12_Vector_implD1Ev"
 "_ZNSt12_Vector_baseISt6vectorIdSaIdEESaIS2_EE13_M_deallocateEPS2_y"
 "_ZNSt12_Vector_baseISt6vectorIdSaIdEESaIS2_EE17_M_create_storageEy"
 "_ZNSt12_Vector_baseISt6vectorIdSaIdEESaIS2_EE17_Vector_impl_dataC2EOS5_"
 "_ZNSt12_Vector_baseISt6vectorIdSaIdEESaIS2_EE17_Vector_impl_dataC2Ev"
 "_ZNSt12_Vector_baseISt6vectorIdSaIdEESaIS2_EE19_M_get_Tp_allocatorEv"
 "_ZNSt12_Vector_baseISt6vectorIdSaIdEESaIS2_EEC2EOS4_"
 "_ZNSt12_Vector_baseISt6vectorIdSaIdEESaIS2_EEC2Ev"
 "_ZNSt12_Vector_baseISt6vectorIdSaIdEESaIS2_EEC2EyRKS3_"
 "_ZNSt12_Vector_baseISt6vectorIdSaIdEESaIS2_EED2Ev"
 "_ZNSt12_Vector_baseISt6vectorIiSaIiEESaIS2_EE11_M_allocateEy"
 "_ZNSt12_Vector_baseISt6vectorIiSaIiEESaIS2_EE12_Vector_implC1EOS5_"
 "_ZNSt12_Vector_baseISt6vectorIiSaIiEESaIS2_EE12_Vector_implC1ERKS3_"
 "_ZNSt12_Vector_baseISt6vectorIiSaIiEESaIS2_EE12_Vector_implC1Ev"
 "_ZNSt12_Vector_baseISt6vectorIiSaIiEESaIS2_EE12_Vector_implD1Ev"
 "_ZNSt12_Vector_baseISt6vectorIiSaIiEESaIS2_EE13_M_deallocateEPS2_y"
 "_ZNSt12_Vector_baseISt6vectorIiSaIiEESaIS2_EE17_M_create_storageEy"
 "_ZNSt12_Vector_baseISt6vectorIiSaIiEESaIS2_EE17_Vector_impl_dataC2EOS5_"
 "_ZNSt12_Vector_baseISt6vectorIiSaIiEESaIS2_EE17_Vector_impl_dataC2Ev"
 "_ZNSt12_Vector_baseISt6vectorIiSaIiEESaIS2_EE19_M_get_Tp_allocatorEv"
 "_ZNSt12_Vector_baseISt6vectorIiSaIiEESaIS2_EEC2EOS4_"
 "_ZNSt12_Vector_baseISt6vectorIiSaIiEESaIS2_EEC2Ev"
 "_ZNSt12_Vector_baseISt6vectorIiSaIiEESaIS2_EEC2EyRKS3_"
 "_ZNSt12_Vector_baseISt6vectorIiSaIiEESaIS2_EED2Ev"
 "_ZNSt12_Vector_baseISt6vectorIS0_IdSaIdEESaIS2_EESaIS4_EE11_M_allocateEy"
 "_ZNSt12_Vector_baseISt6vectorIS0_IdSaIdEESaIS2_EESaIS4_EE12_Vector_implC1EOS7_"
 "_ZNSt12_Vector_baseISt6vectorIS0_IdSaIdEESaIS2_EESaIS4_EE12_Vector_implC1Ev"
 "_ZNSt12_Vector_baseISt6vectorIS0_IdSaIdEESaIS2_EESaIS4_EE12_Vector_implD1Ev"
 "_ZNSt12_Vector_baseISt6vectorIS0_IdSaIdEESaIS2_EESaIS4_EE13_M_deallocateEPS4_y"
 "_ZNSt12_Vector_baseISt6vectorIS0_IdSaIdEESaIS2_EESaIS4_EE17_Vector_impl_dataC2EOS7_"
 "_ZNSt12_Vector_baseISt6vectorIS0_IdSaIdEESaIS2_EESaIS4_EE17_Vector_impl_dataC2Ev"
 "_ZNSt12_Vector_baseISt6vectorIS0_IdSaIdEESaIS2_EESaIS4_EE19_M_get_Tp_allocatorEv"
 "_ZNSt12_Vector_baseISt6vectorIS0_IdSaIdEESaIS2_EESaIS4_EEC2EOS6_"
 "_ZNSt12_Vector_baseISt6vectorIS0_IdSaIdEESaIS2_EESaIS4_EEC2Ev"
 "_ZNSt12_Vector_baseISt6vectorIS0_IdSaIdEESaIS2_EESaIS4_EED2Ev"
 "_ZNSt12_Vector_baseIySaIyEE11_M_allocateEy"
 "_ZNSt12_Vector_baseIySaIyEE12_Vector_implC1Ev"
 "_ZNSt12_Vector_baseIySaIyEE12_Vector_implD1Ev"
 "_ZNSt12_Vector_baseIySaIyEE13_M_deallocateEPyy"
 "_ZNSt12_Vector_baseIySaIyEE17_Vector_impl_dataC2Ev"
 "_ZNSt12_Vector_baseIySaIyEE19_M_get_Tp_allocatorEv"
 "_ZNSt12_Vector_baseIySaIyEEC2Ev"
 "_ZNSt12_Vector_baseIySaIyEED2Ev"
 "_ZNSt13_Rb_tree_nodeIiE9_M_valptrEv"
 "_ZNSt13move_iteratorIPdEC1ES0_"
 "_ZNSt13move_iteratorIPiEC1ES0_"
 "_ZNSt13unordered_setIiSt4hashIiESt8equal_toIiESaIiEE6insertEOi"
 "_ZNSt13unordered_setIiSt4hashIiESt8equal_toIiESaIiEE6insertERKi"
 "_ZNSt13unordered_setIiSt4hashIiESt8equal_toIiESaIiEEC1Ev"
 "_ZNSt13unordered_setIiSt4hashIiESt8equal_toIiESaIiEEC1IN9__gnu_cxx17__normal_iteratorIPKiSt6vectorIiS4_EEEEET_SE_yRKS1_RKS3_RKS4_"
 "_ZNSt13unordered_setIiSt4hashIiESt8equal_toIiESaIiEED1Ev"
 "_ZNSt13unordered_setIySt4hashIyESt8equal_toIyESaIyEE6insertEOy"
 "_ZNSt13unordered_setIySt4hashIyESt8equal_toIyESaIyEEC1Ev"
 "_ZNSt13unordered_setIySt4hashIyESt8equal_toIyESaIyEED1Ev"
 "_ZNSt14numeric_limitsIdE9quiet_NaNEv"
 "_ZNSt15__new_allocatorIdE10deallocateEPdy"
 "_ZNSt15__new_allocatorIdE8allocateEyPKv"
 "_ZNSt15__new_allocatorIdED2Ev"
 "_ZNSt15__new_allocatorIiE10deallocateEPiy"
 "_ZNSt15__new_allocatorIiE8allocateEyPKv"
 "_ZNSt15__new_allocatorIiED2Ev"
 "_ZNSt15__new_allocatorINSt8__detail10_Hash_nodeIiLb0EEEE10deallocateEPS2_y"
 "_ZNSt15__new_allocatorINSt8__detail10_Hash_nodeIiLb0EEEE8allocateEyPKv"
 "_ZNSt15__new_allocatorINSt8__detail10_Hash_nodeIiLb0EEEED2Ev"
 "_ZNSt15__new_allocatorINSt8__detail10_Hash_nodeIyLb0EEEE10deallocateEPS2_y"
 "_ZNSt15__new_allocatorINSt8__detail10_Hash_nodeIyLb0EEEE8allocateEyPKv"
 "_ZNSt15__new_allocatorINSt8__detail10_Hash_nodeIyLb0EEEED2Ev"
 "_ZNSt15__new_allocatorIPNSt8__detail15_Hash_node_baseEE10deallocateEPS2_y"
 "_ZNSt15__new_allocatorIPNSt8__detail15_Hash_node_baseEE8allocateEyPKv"
 "_ZNSt15__new_allocatorIPNSt8__detail15_Hash_node_baseEED2Ev"
 "_ZNSt15__new_allocatorIPSt4pairIiiEE10deallocateEPS2_y"
 "_ZNSt15__new_allocatorIPSt4pairIiiEE8allocateEyPKv"
 "_ZNSt15__new_allocatorIPSt4pairIiiEED2Ev"
 "_ZNSt15__new_allocatorISt13_Rb_tree_nodeIiEE10deallocateEPS1_y"
 "_ZNSt15__new_allocatorISt13_Rb_tree_nodeIiEE8allocateEyPKv"
 "_ZNSt15__new_allocatorISt13_Rb_tree_nodeIiEED2Ev"
 "_ZNSt15__new_allocatorISt4pairIddEE10deallocateEPS1_y"
 "_ZNSt15__new_allocatorISt4pairIddEE8allocateEyPKv"
 "_ZNSt15__new_allocatorISt4pairIddEED2Ev"
 "_ZNSt15__new_allocatorISt4pairIdiEE10deallocateEPS1_y"
 "_ZNSt15__new_allocatorISt4pairIdiEE8allocateEyPKv"
 "_ZNSt15__new_allocatorISt4pairIdiEED2Ev"
 "_ZNSt15__new_allocatorISt4pairIiiEE10deallocateEPS1_y"
 "_ZNSt15__new_allocatorISt4pairIiiEE8allocateEyPKv"
 "_ZNSt15__new_allocatorISt4pairIiiEED2Ev"
 "_ZNSt15__new_allocatorISt6vectorIdSaIdEEE10deallocateEPS2_y"
 "_ZNSt15__new_allocatorISt6vectorIdSaIdEEE8allocateEyPKv"
 "_ZNSt15__new_allocatorISt6vectorIdSaIdEEED2Ev"
 "_ZNSt15__new_allocatorISt6vectorIiSaIiEEE10deallocateEPS2_y"
 "_ZNSt15__new_allocatorISt6vectorIiSaIiEEE8allocateEyPKv"
 "_ZNSt15__new_allocatorISt6vectorIiSaIiEEED2Ev"
 "_ZNSt15__new_allocatorISt6vectorIS0_IdSaIdEESaIS2_EEE10deallocateEPS4_y"
 "_ZNSt15__new_allocatorISt6vectorIS0_IdSaIdEESaIS2_EEE8allocateEyPKv"
 "_ZNSt15__new_allocatorISt6vectorIS0_IdSaIdEESaIS2_EEED2Ev"
 "_ZNSt15__new_allocatorIyE10deallocateEPyy"
 "_ZNSt15__new_allocatorIyE8allocateEyPKv"
 "_ZNSt15__new_allocatorIyED2Ev"
 "_ZNSt15_Deque_iteratorISt4pairIiiERS1_PS1_E11_M_set_nodeEPS3_"
 "_ZNSt15_Deque_iteratorISt4pairIiiERS1_PS1_E14_S_buffer_sizeEv"
 "_ZNSt15_Deque_iteratorISt4pairIiiERS1_PS1_EC1ERKS4_"
 "_ZNSt15_Deque_iteratorISt4pairIiiERS1_PS1_EC1Ev"
 "_ZNSt15_Deque_iteratorISt4pairIiiERS1_PS1_EmmEv"
 "_ZNSt15_Rb_tree_header8_M_resetEv"
 "_ZNSt15_Rb_tree_headerC2Ev"
 "_ZNSt17_Rb_tree_iteratorIiEC1EPSt18_Rb_tree_node_base"
 "_ZNSt17_Rb_tree_iteratorIiEmmEv"
 "_ZNSt19__ptr_traits_ptr_toIPNSt8__detail10_Hash_nodeIiLb0EEES2_Lb0EE10pointer_toERS2_"
 "_ZNSt19__ptr_traits_ptr_toIPNSt8__detail10_Hash_nodeIyLb0EEES2_Lb0EE10pointer_toERS2_"
 "_ZNSt19__ptr_traits_ptr_toIPPNSt8__detail15_Hash_node_baseES2_Lb0EE10pointer_toERS2_"
 "_ZNSt20__copy_move_backwardILb0ELb1ESt26random_access_iterator_tagE13__copy_move_bIPSt4pairIiiES5_EEPT0_PT_S9_S7_"
 "_ZNSt20__copy_move_backwardILb1ELb0ESt26random_access_iterator_tagE13__copy_move_bIPSt4pairIddES5_EET0_T_S7_S6_"
 "_ZNSt20__copy_move_backwardILb1ELb0ESt26random_access_iterator_tagE13__copy_move_bIPSt4pairIdiES5_EET0_T_S7_S6_"
 "_ZNSt20__copy_move_backwardILb1ELb1ESt26random_access_iterator_tagE13__copy_move_bIddEEPT0_PT_S6_S4_"
 "_ZNSt20__copy_move_backwardILb1ELb1ESt26random_access_iterator_tagE13__copy_move_bIiiEEPT0_PT_S6_S4_"
 "_ZNSt20__uninitialized_copyILb0EE13__uninit_copyIPKSt4pairIiiEPS3_EET0_T_S8_S7_"
 "_ZNSt20__uninitialized_copyILb1EE13__uninit_copyIN9__gnu_cxx17__normal_iteratorIPiSt6vectorIiSaIiEEEES4_EET0_T_SA_S9_"
 "_ZNSt20__uninitialized_copyILb1EE13__uninit_copyIN9__gnu_cxx17__normal_iteratorIPKdSt6vectorIdSaIdEEEEPdEET0_T_SC_SB_"
 "_ZNSt20__uninitialized_copyILb1EE13__uninit_copyIPKdPdEET0_T_S6_S5_"
 "_ZNSt20__uninitialized_copyILb1EE13__uninit_copyIPKiPiEET0_T_S6_S5_"
 "_ZNSt20__uninitialized_copyILb1EE13__uninit_copyISt13move_iteratorIPdES3_EET0_T_S6_S5_"
 "_ZNSt20__uninitialized_copyILb1EE13__uninit_copyISt13move_iteratorIPiES3_EET0_T_S6_S5_"
 "_ZNSt20_Rb_tree_key_compareISt4lessIiEEC2Ev"
 "_ZNSt22__uninitialized_fill_nILb0EE15__uninit_fill_nIPSt6vectorIdSaIdEEyS4_EET_S6_T0_RKT1_"
 "_ZNSt22__uninitialized_fill_nILb1EE15__uninit_fill_nIPdydEET_S3_T0_RKT1_"
 "_ZNSt22__uninitialized_fill_nILb1EE15__uninit_fill_nIPiyiEET_S3_T0_RKT1_"
 "_ZNSt23_Rb_tree_const_iteratorIiEC1EPKSt18_Rb_tree_node_base"
 "_ZNSt23_Rb_tree_const_iteratorIiEC1ERKSt17_Rb_tree_iteratorIiE"
 "_ZNSt23_Rb_tree_const_iteratorIiEppEv"
 "_ZNSt27__uninitialized_default_n_1ILb0EE18__uninit_default_nIPSt6vectorIiSaIiEEyEET_S6_T0_"
 "_ZNSt27__uninitialized_default_n_1ILb1EE18__uninit_default_nIPdyEET_S3_T0_"
 "_ZNSt27_Enable_default_constructorILb1ENSt8__detail15_Hash_node_baseEEC2ESt31_Enable_default_constructor_tag"
 "_ZNSt3setIiSt4lessIiESaIiEE6insertERKi"
 "_ZNSt3setIiSt4lessIiESaIiEEC1Ev"
 "_ZNSt3setIiSt4lessIiESaIiEED1Ev"
 "_ZNSt4pairIddE4swapERS0_"
 "_ZNSt4pairIddEaSEOS0_"
 "_ZNSt4pairIddEC1IdRKdLb1EEEOT_OT0_"
 "_ZNSt4pairIdiE4swapERS0_"
 "_ZNSt4pairIdiEaSEOS0_"
 "_ZNSt4pairIdiEC1IRdRiLb1EEEOT_OT0_"
 "_ZNSt4pairIiiEC1IRiS2_Lb1EEEOT_OT0_"
 "_ZNSt4pairINSt8__detail14_Node_iteratorIiLb1ELb0EEEbEC1IRS2_bLb1EEEOT_OT0_"
 "_ZNSt4pairINSt8__detail14_Node_iteratorIiLb1ELb0EEEbEC1IS2_bLb1EEEOT_OT0_"
 "_ZNSt4pairINSt8__detail14_Node_iteratorIyLb1ELb0EEEbEC1IRS2_bLb1EEEOT_OT0_"
 "_ZNSt4pairINSt8__detail14_Node_iteratorIyLb1ELb0EEEbEC1IS2_bLb1EEEOT_OT0_"
 "_ZNSt4pairIPSt18_Rb_tree_node_baseS1_EC1IRPSt13_Rb_tree_nodeIiERS1_Lb1EEEOT_OT0_"
 "_ZNSt4pairIPSt18_Rb_tree_node_baseS1_EC1IS1_S1_Lb1EEERKS1_S5_"
 "_ZNSt4pairISt17_Rb_tree_iteratorIiEbEC1IS1_bLb1EEEOT_OT0_"
 "_ZNSt4pairISt23_Rb_tree_const_iteratorIiEbEC1IRSt17_Rb_tree_iteratorIiERbLb1EEEOT_OT0_"
 "_ZNSt5dequeISt4pairIiiESaIS1_EE11_S_max_sizeERKS2_"
 "_ZNSt5dequeISt4pairIiiESaIS1_EE12emplace_backIJS1_EEERS1_DpOT_"
 "_ZNSt5dequeISt4pairIiiESaIS1_EE15_M_destroy_dataESt15_Deque_iteratorIS1_RS1_PS1_ES7_RKS2_"
 "_ZNSt5dequeISt4pairIiiESaIS1_EE16_M_pop_front_auxEv"
 "_ZNSt5dequeISt4pairIiiESaIS1_EE16_M_push_back_auxIJS1_EEEvDpOT_"
 "_ZNSt5dequeISt4pairIiiESaIS1_EE17_M_reallocate_mapEyb"
 "_ZNSt5dequeISt4pairIiiESaIS1_EE22_M_reserve_map_at_backEy"
 "_ZNSt5dequeISt4pairIiiESaIS1_EE3endEv"
 "_ZNSt5dequeISt4pairIiiESaIS1_EE4backEv"
 "_ZNSt5dequeISt4pairIiiESaIS1_EE5beginEv"
 "_ZNSt5dequeISt4pairIiiESaIS1_EE5frontEv"
 "_ZNSt5dequeISt4pairIiiESaIS1_EE9pop_frontEv"
 "_ZNSt5dequeISt4pairIiiESaIS1_EE9push_backEOS1_"
 "_ZNSt5dequeISt4pairIiiESaIS1_EEC1Ev"
 "_ZNSt5dequeISt4pairIiiESaIS1_EED1Ev"
 "_ZNSt5queueISt4pairIiiESt5dequeIS1_SaIS1_EEE3popEv"
 "_ZNSt5queueISt4pairIiiESt5dequeIS1_SaIS1_EEE4pushEOS1_"
 "_ZNSt5queueISt4pairIiiESt5dequeIS1_SaIS1_EEE5frontEv"
 "_ZNSt5queueISt4pairIiiESt5dequeIS1_SaIS1_EEEC1IS4_vEEv"
 "_ZNSt5queueISt4pairIiiESt5dequeIS1_SaIS1_EEED1Ev"
 "_ZNSt6vectorIdSaIdEE11_S_max_sizeERKS0_"
 "_ZNSt6vectorIdSaIdEE11_S_relocateEPdS2_S2_RS0_"
 "_ZNSt6vectorIdSaIdEE14_M_move_assignEOS1_St17integral_constantIbLb1EE"
 "_ZNSt6vectorIdSaIdEE15_M_range_insertIN9__gnu_cxx17__normal_iteratorIPKdS1_EEEEvNS4_IPdS1_EET_SA_St20forward_iterator_tag"
 "_ZNSt6vectorIdSaIdEE17_M_realloc_appendIJRKdEEEvDpOT_"
 "_ZNSt6vectorIdSaIdEE17_S_check_init_lenEyRKS0_"
 "_ZNSt6vectorIdSaIdEE18_M_fill_initializeEyRKd"
 "_ZNSt6vectorIdSaIdEE21_M_default_initializeEy"
 "_ZNSt6vectorIdSaIdEE21_M_range_initialize_nIPKdEEvT_S5_y"
 "_ZNSt6vectorIdSaIdEE3endEv"
 "_ZNSt6vectorIdSaIdEE5beginEv"
 "_ZNSt6vectorIdSaIdEE6insertIN9__gnu_cxx17__normal_iteratorIPKdS1_EEvEENS4_IPdS1_EES7_T_SA_"
 "_ZNSt6vectorIdSaIdEE7reserveEy"
 "_ZNSt6vectorIdSaIdEE9push_backERKd"
 "_ZNSt6vectorIdSaIdEEaSEOS1_"
 "_ZNSt6vectorIdSaIdEEC1EOS1_"
 "_ZNSt6vectorIdSaIdEEC1ERKS0_"
 "_ZNSt6vectorIdSaIdEEC1ERKS1_"
 "_ZNSt6vectorIdSaIdEEC1ESt16initializer_listIdERKS0_"
 "_ZNSt6vectorIdSaIdEEC1Ev"
 "_ZNSt6vectorIdSaIdEEC1EyRKdRKS0_"
 "_ZNSt6vectorIdSaIdEEC1EyRKS0_"
 "_ZNSt6vectorIdSaIdEED1Ev"
 "_ZNSt6vectorIdSaIdEEixEy"
 "_ZNSt6vectorIiSaIiEE11_S_max_sizeERKS0_"
 "_ZNSt6vectorIiSaIiEE11_S_relocateEPiS2_S2_RS0_"
 "_ZNSt6vectorIiSaIiEE14_M_move_assignEOS1_St17integral_constantIbLb1EE"
 "_ZNSt6vectorIiSaIiEE15_M_erase_at_endEPi"
 "_ZNSt6vectorIiSaIiEE15_M_range_insertIN9__gnu_cxx17__normal_iteratorIPiS1_EEEEvS6_T_S7_St20forward_iterator_tag"
 "_ZNSt6vectorIiSaIiEE17_M_realloc_appendIJRKiEEEvDpOT_"
 "_ZNSt6vectorIiSaIiEE17_S_check_init_lenEyRKS0_"
 "_ZNSt6vectorIiSaIiEE18_M_fill_initializeEyRKi"
 "_ZNSt6vectorIiSaIiEE21_M_range_initialize_nIPKiEEvT_S5_y"
 "_ZNSt6vectorIiSaIiEE3endEv"
 "_ZNSt6vectorIiSaIiEE5beginEv"
 "_ZNSt6vectorIiSaIiEE5eraseEN9__gnu_cxx17__normal_iteratorIPKiS1_EES6_"
 "_ZNSt6vectorIiSaIiEE6insertIN9__gnu_cxx17__normal_iteratorIPiS1_EEvEES6_NS4_IPKiS1_EET_SA_"
 "_ZNSt6vectorIiSaIiEE8_M_eraseEN9__gnu_cxx17__normal_iteratorIPiS1_EES5_"
 "_ZNSt6vectorIiSaIiEE9push_backERKi"
 "_ZNSt6vectorIiSaIiEEaSEOS1_"
 "_ZNSt6vectorIiSaIiEEC1EOS1_"
 "_ZNSt6vectorIiSaIiEEC1ERKS0_"
 "_ZNSt6vectorIiSaIiEEC1ESt16initializer_listIiERKS0_"
 "_ZNSt6vectorIiSaIiEEC1Ev"
 "_ZNSt6vectorIiSaIiEEC1EyRKiRKS0_"
 "_ZNSt6vectorIiSaIiEED1Ev"
 "_ZNSt6vectorIiSaIiEEixEy"
 "_ZNSt6vectorIS_IdSaIdEESaIS1_EE11_S_max_sizeERKS2_"
 "_ZNSt6vectorIS_IdSaIdEESaIS1_EE11_S_relocateEPS1_S4_S4_RS2_"
 "_ZNSt6vectorIS_IdSaIdEESaIS1_EE12emplace_backIJS1_EEERS1_DpOT_"
 "_ZNSt6vectorIS_IdSaIdEESaIS1_EE17_M_realloc_appendIJS1_EEEvDpOT_"
 "_ZNSt6vectorIS_IdSaIdEESaIS1_EE17_S_check_init_lenEyRKS2_"
 "_ZNSt6vectorIS_IdSaIdEESaIS1_EE18_M_fill_initializeEyRKS1_"
 "_ZNSt6vectorIS_IdSaIdEESaIS1_EE3endEv"
 "_ZNSt6vectorIS_IdSaIdEESaIS1_EE4backEv"
 "_ZNSt6vectorIS_IdSaIdEESaIS1_EE5beginEv"
 "_ZNSt6vectorIS_IdSaIdEESaIS1_EE7reserveEy"
 "_ZNSt6vectorIS_IdSaIdEESaIS1_EE9push_backEOS1_"
 "_ZNSt6vectorIS_IdSaIdEESaIS1_EEC1EOS3_"
 "_ZNSt6vectorIS_IdSaIdEESaIS1_EEC1Ev"
 "_ZNSt6vectorIS_IdSaIdEESaIS1_EEC1EyRKS1_RKS2_"
 "_ZNSt6vectorIS_IdSaIdEESaIS1_EED1Ev"
 "_ZNSt6vectorIS_IdSaIdEESaIS1_EEixEy"
 "_ZNSt6vectorIS_IiSaIiEESaIS1_EE11_S_max_sizeERKS2_"
 "_ZNSt6vectorIS_IiSaIiEESaIS1_EE17_S_check_init_lenEyRKS2_"
 "_ZNSt6vectorIS_IiSaIiEESaIS1_EE21_M_default_initializeEy"
 "_ZNSt6vectorIS_IiSaIiEESaIS1_EEC1EOS3_"
 "_ZNSt6vectorIS_IiSaIiEESaIS1_EEC1Ev"
 "_ZNSt6vectorIS_IiSaIiEESaIS1_EEC1EyRKS2_"
 "_ZNSt6vectorIS_IiSaIiEESaIS1_EED1Ev"
 "_ZNSt6vectorIS_IiSaIiEESaIS1_EEixEy"
 "_ZNSt6vectorIS_IS_IdSaIdEESaIS1_EESaIS3_EE11_S_max_sizeERKS4_"
 "_ZNSt6vectorIS_IS_IdSaIdEESaIS1_EESaIS3_EE11_S_relocateEPS3_S6_S6_RS4_"
 "_ZNSt6vectorIS_IS_IdSaIdEESaIS1_EESaIS3_EE12emplace_backIJS3_EEERS3_DpOT_"
 "_ZNSt6vectorIS_IS_IdSaIdEESaIS1_EESaIS3_EE17_M_realloc_appendIJS3_EEEvDpOT_"
 "_ZNSt6vectorIS_IS_IdSaIdEESaIS1_EESaIS3_EE3endEv"
 "_ZNSt6vectorIS_IS_IdSaIdEESaIS1_EESaIS3_EE4backEv"
 "_ZNSt6vectorIS_IS_IdSaIdEESaIS1_EESaIS3_EE5beginEv"
 "_ZNSt6vectorIS_IS_IdSaIdEESaIS1_EESaIS3_EE7reserveEy"
 "_ZNSt6vectorIS_IS_IdSaIdEESaIS1_EESaIS3_EE9push_backEOS3_"
 "_ZNSt6vectorIS_IS_IdSaIdEESaIS1_EESaIS3_EEC1EOS5_"
 "_ZNSt6vectorIS_IS_IdSaIdEESaIS1_EESaIS3_EEC1Ev"
 "_ZNSt6vectorIS_IS_IdSaIdEESaIS1_EESaIS3_EED1Ev"
 "_ZNSt6vectorIS_IS_IdSaIdEESaIS1_EESaIS3_EEixEy"
 "_ZNSt6vectorISt4pairIddESaIS1_EE11_S_max_sizeERKS2_"
 "_ZNSt6vectorISt4pairIddESaIS1_EE11_S_relocateEPS1_S4_S4_RS2_"
 "_ZNSt6vectorISt4pairIddESaIS1_EE12emplace_backIJdRKdEEERS1_DpOT_"
 "_ZNSt6vectorISt4pairIddESaIS1_EE17_M_realloc_appendIJdRKdEEEvDpOT_"
 "_ZNSt6vectorISt4pairIddESaIS1_EE3endEv"
 "_ZNSt6vectorISt4pairIddESaIS1_EE4backEv"
 "_ZNSt6vectorISt4pairIddESaIS1_EE5beginEv"
 "_ZNSt6vectorISt4pairIddESaIS1_EEC1Ev"
 "_ZNSt6vectorISt4pairIddESaIS1_EED1Ev"
 "_ZNSt6vectorISt4pairIddESaIS1_EEixEy"
 "_ZNSt6vectorISt4pairIdiESaIS1_EE11_S_max_sizeERKS2_"
 "_ZNSt6vectorISt4pairIdiESaIS1_EE11_S_relocateEPS1_S4_S4_RS2_"
 "_ZNSt6vectorISt4pairIdiESaIS1_EE12emplace_backIJRdRiEEERS1_DpOT_"
 "_ZNSt6vectorISt4pairIdiESaIS1_EE17_M_realloc_appendIJRdRiEEEvDpOT_"
 "_ZNSt6vectorISt4pairIdiESaIS1_EE3endEv"
 "_ZNSt6vectorISt4pairIdiESaIS1_EE4backEv"
 "_ZNSt6vectorISt4pairIdiESaIS1_EE5beginEv"
 "_ZNSt6vectorISt4pairIdiESaIS1_EEC1Ev"
 "_ZNSt6vectorISt4pairIdiESaIS1_EED1Ev"
 "_ZNSt6vectorISt4pairIdiESaIS1_EEixEy"
 "_ZNSt6vectorISt4pairIiiESaIS1_EE11_S_max_sizeERKS2_"
 "_ZNSt6vectorISt4pairIiiESaIS1_EE11_S_relocateEPS1_S4_S4_RS2_"
 "_ZNSt6vectorISt4pairIiiESaIS1_EE12emplace_backIJRiS5_EEERS1_DpOT_"
 "_ZNSt6vectorISt4pairIiiESaIS1_EE17_M_realloc_appendIJRiS5_EEEvDpOT_"
 "_ZNSt6vectorISt4pairIiiESaIS1_EE17_S_check_init_lenEyRKS2_"
 "_ZNSt6vectorISt4pairIiiESaIS1_EE21_M_range_initialize_nIPKS1_EEvT_S7_y"
 "_ZNSt6vectorISt4pairIiiESaIS1_EE3endEv"
 "_ZNSt6vectorISt4pairIiiESaIS1_EE4backEv"
 "_ZNSt6vectorISt4pairIiiESaIS1_EE5beginEv"
 "_ZNSt6vectorISt4pairIiiESaIS1_EEC1ESt16initializer_listIS1_ERKS2_"
 "_ZNSt6vectorISt4pairIiiESaIS1_EEC1Ev"
 "_ZNSt6vectorISt4pairIiiESaIS1_EED1Ev"
 "_ZNSt6vectorISt4pairIiiESaIS1_EEixEy"
 "_ZNSt6vectorIySaIyEE11_S_max_sizeERKS0_"
 "_ZNSt6vectorIySaIyEE11_S_relocateEPyS2_S2_RS0_"
 "_ZNSt6vectorIySaIyEE17_M_realloc_appendIJRKyEEEvDpOT_"
 "_ZNSt6vectorIySaIyEE3endEv"
 "_ZNSt6vectorIySaIyEE5beginEv"
 "_ZNSt6vectorIySaIyEE9push_backERKy"
 "_ZNSt6vectorIySaIyEEC1Ev"
 "_ZNSt6vectorIySaIyEED1Ev"
 "_ZNSt8__detail10_AllocNodeISaINS_10_Hash_nodeIiLb0EEEEEC1ERNS_16_Hashtable_allocIS3_EE"
 "_ZNSt8__detail10_AllocNodeISaINS_10_Hash_nodeIyLb0EEEEEC1ERNS_16_Hashtable_allocIS3_EE"
 "_ZNSt8__detail10_Hash_nodeIiLb0EEC1Ev"
 "_ZNSt8__detail10_Hash_nodeIyLb0EEC1Ev"
 "_ZNSt8__detail12_Insert_baseIiiSaIiENS_9_IdentityESt8equal_toIiESt4hashIiENS_18_Mod_range_hashingENS_20_Default_ranged_hashENS_20_Prime_rehash_policyENS_17_Hashtable_traitsILb0ELb1ELb1EEEE15_M_insert_rangeIN9__gnu_cxx17__normal_iteratorIPKiSt6vectorIiS1_EEENS_10_AllocNodeISaINS_10_Hash_nodeIiLb0EEEEEEEEvT_SQ_RKT0_St17integral_constantIbLb1EE"
 "_ZNSt8__detail12_Insert_baseIiiSaIiENS_9_IdentityESt8equal_toIiESt4hashIiENS_18_Mod_range_hashingENS_20_Default_ranged_hashENS_20_Prime_rehash_policyENS_17_Hashtable_traitsILb0ELb1ELb1EEEE20_M_conjure_hashtableEv"
 "_ZNSt8__detail12_Insert_baseIiiSaIiENS_9_IdentityESt8equal_toIiESt4hashIiENS_18_Mod_range_hashingENS_20_Default_ranged_hashENS_20_Prime_rehash_policyENS_17_Hashtable_traitsILb0ELb1ELb1EEEE6insertERKi"
 "_ZNSt8__detail12_Insert_baseIiiSaIiENS_9_IdentityESt8equal_toIiESt4hashIiENS_18_Mod_range_hashingENS_20_Default_ranged_hashENS_20_Prime_rehash_policyENS_17_Hashtable_traitsILb0ELb1ELb1EEEE6insertIN9__gnu_cxx17__normal_iteratorIPKiSt6vectorIiS1_EEEEEvT_SL_"
 "_ZNSt8__detail12_Insert_baseIyySaIyENS_9_IdentityESt8equal_toIyESt4hashIyENS_18_Mod_range_hashingENS_20_Default_ranged_hashENS_20_Prime_rehash_policyENS_17_Hashtable_traitsILb0ELb1ELb1EEEE20_M_conjure_hashtableEv"
 "_ZNSt8__detail12_NodeBuilderINS_9_IdentityEE8_S_buildIiiNS_10_AllocNodeISaINS_10_Hash_nodeIiLb0EEEEEEEENT1_10__node_ptrEOT_OT0_RKS9_"
 "_ZNSt8__detail12_NodeBuilderINS_9_IdentityEE8_S_buildIRKiS5_NS_10_AllocNodeISaINS_10_Hash_nodeIiLb0EEEEEEEENT1_10__node_ptrEOT_OT0_RKSB_"
 "_ZNSt8__detail12_NodeBuilderINS_9_IdentityEE8_S_buildIyyNS_10_AllocNodeISaINS_10_Hash_nodeIyLb0EEEEEEEENT1_10__node_ptrEOT_OT0_RKS9_"
 "_ZNSt8__detail14_Node_iteratorIiLb1ELb0EEC1EPNS_10_Hash_nodeIiLb0EEE"
 "_ZNSt8__detail14_Node_iteratorIyLb1ELb0EEC1EPNS_10_Hash_nodeIyLb0EEE"
 "_ZNSt8__detail15_Hash_code_baseIiiNS_9_IdentityESt4hashIiENS_18_Mod_range_hashingENS_20_Default_ranged_hashELb0EEC2ERKS3_"
 "_ZNSt8__detail15_Hash_code_baseIiiNS_9_IdentityESt4hashIiENS_18_Mod_range_hashingENS_20_Default_ranged_hashELb0EEC2Ev"
 "_ZNSt8__detail15_Hash_code_baseIyyNS_9_IdentityESt4hashIyENS_18_Mod_range_hashingENS_20_Default_ranged_hashELb0EEC2Ev"
 "_ZNSt8__detail15_Hash_node_baseC1Ev"
 "_ZNSt8__detail15_Hash_node_baseC2Ev"
 "_ZNSt8__detail15_Hashtable_baseIiiNS_9_IdentityESt8equal_toIiESt4hashIiENS_18_Mod_range_hashingENS_20_Default_ranged_hashENS_17_Hashtable_traitsILb0ELb1ELb1EEEE9_S_equalsEyRKNS_21_Hash_node_code_cacheILb0EEE"
 "_ZNSt8__detail15_Hashtable_baseIiiNS_9_IdentityESt8equal_toIiESt4hashIiENS_18_Mod_range_hashingENS_20_Default_ranged_hashENS_17_Hashtable_traitsILb0ELb1ELb1EEEEC2ERKS5_RKS3_"
 "_ZNSt8__detail15_Hashtable_baseIiiNS_9_IdentityESt8equal_toIiESt4hashIiENS_18_Mod_range_hashingENS_20_Default_ranged_hashENS_17_Hashtable_traitsILb0ELb1ELb1EEEEC2Ev"
 "_ZNSt8__detail15_Hashtable_baseIyyNS_9_IdentityESt8equal_toIyESt4hashIyENS_18_Mod_range_hashingENS_20_Default_ranged_hashENS_17_Hashtable_traitsILb0ELb1ELb1EEEE9_S_equalsEyRKNS_21_Hash_node_code_cacheILb0EEE"
 "_ZNSt8__detail15_Hashtable_baseIyyNS_9_IdentityESt8equal_toIyESt4hashIyENS_18_Mod_range_hashingENS_20_Default_ranged_hashENS_17_Hashtable_traitsILb0ELb1ELb1EEEEC2Ev"
 "_ZNSt8__detail16_Hashtable_allocISaINS_10_Hash_nodeIiLb0EEEEE16_M_allocate_nodeIJiEEEPS2_DpOT_"
 "_ZNSt8__detail16_Hashtable_allocISaINS_10_Hash_nodeIiLb0EEEEE16_M_allocate_nodeIJRKiEEEPS2_DpOT_"
 "_ZNSt8__detail16_Hashtable_allocISaINS_10_Hash_nodeIiLb0EEEEE17_M_node_allocatorEv"
 "_ZNSt8__detail16_Hashtable_allocISaINS_10_Hash_nodeIiLb0EEEEE18_M_deallocate_nodeEPS2_"
 "_ZNSt8__detail16_Hashtable_allocISaINS_10_Hash_nodeIiLb0EEEEE19_M_allocate_bucketsEy"
 "_ZNSt8__detail16_Hashtable_allocISaINS_10_Hash_nodeIiLb0EEEEE19_M_deallocate_nodesEPS2_"
 "_ZNSt8__detail16_Hashtable_allocISaINS_10_Hash_nodeIiLb0EEEEE21_M_deallocate_bucketsEPPNS_15_Hash_node_baseEy"
 "_ZNSt8__detail16_Hashtable_allocISaINS_10_Hash_nodeIiLb0EEEEE22_M_deallocate_node_ptrEPS2_"
 "_ZNSt8__detail16_Hashtable_allocISaINS_10_Hash_nodeIiLb0EEEEEC2Ev"
 "_ZNSt8__detail16_Hashtable_allocISaINS_10_Hash_nodeIiLb0EEEEEC2IS3_EEOT_"
 "_ZNSt8__detail16_Hashtable_allocISaINS_10_Hash_nodeIiLb0EEEEED2Ev"
 "_ZNSt8__detail16_Hashtable_allocISaINS_10_Hash_nodeIyLb0EEEEE16_M_allocate_nodeIJyEEEPS2_DpOT_"
 "_ZNSt8__detail16_Hashtable_allocISaINS_10_Hash_nodeIyLb0EEEEE17_M_node_allocatorEv"
 "_ZNSt8__detail16_Hashtable_allocISaINS_10_Hash_nodeIyLb0EEEEE18_M_deallocate_nodeEPS2_"
 "_ZNSt8__detail16_Hashtable_allocISaINS_10_Hash_nodeIyLb0EEEEE19_M_allocate_bucketsEy"
 "_ZNSt8__detail16_Hashtable_allocISaINS_10_Hash_nodeIyLb0EEEEE19_M_deallocate_nodesEPS2_"
 "_ZNSt8__detail16_Hashtable_allocISaINS_10_Hash_nodeIyLb0EEEEE21_M_deallocate_bucketsEPPNS_15_Hash_node_baseEy"
 "_ZNSt8__detail16_Hashtable_allocISaINS_10_Hash_nodeIyLb0EEEEE22_M_deallocate_node_ptrEPS2_"
 "_ZNSt8__detail16_Hashtable_allocISaINS_10_Hash_nodeIyLb0EEEEEC2Ev"
 "_ZNSt8__detail16_Hashtable_allocISaINS_10_Hash_nodeIyLb0EEEEED2Ev"
 "_ZNSt8__detail17_RehashStateGuardINS_20_Prime_rehash_policyEEC1ERS1_"
 "_ZNSt8__detail17_RehashStateGuardINS_20_Prime_rehash_policyEED1Ev"
 "_ZNSt8__detail19_Node_iterator_baseIiLb0EEC2EPNS_10_Hash_nodeIiLb0EEE"
 "_ZNSt8__detail19_Node_iterator_baseIyLb0EEC2EPNS_10_Hash_nodeIyLb0EEE"
 "_ZNSt8__detail20_Node_const_iteratorIiLb1ELb0EEC1EPNS_10_Hash_nodeIiLb0EEE"
 "_ZNSt8__detail20_Node_const_iteratorIyLb1ELb0EEC1EPNS_10_Hash_nodeIyLb0EEE"
 "_ZNSt8__detail20_Prime_rehash_policy8_M_resetEy"
 "_ZNSt8__detail20_Prime_rehash_policyC1Ef"
 "_ZNSt8__detail21_Hashtable_ebo_helperILi0ESaINS_10_Hash_nodeIiLb0EEEELb1EE6_M_getEv"
 "_ZNSt8__detail21_Hashtable_ebo_helperILi0ESaINS_10_Hash_nodeIiLb0EEEELb1EEC2Ev"
 "_ZNSt8__detail21_Hashtable_ebo_helperILi0ESaINS_10_Hash_nodeIiLb0EEEELb1EEC2IS3_EEOT_"
 "_ZNSt8__detail21_Hashtable_ebo_helperILi0ESaINS_10_Hash_nodeIiLb0EEEELb1EED2Ev"
 "_ZNSt8__detail21_Hashtable_ebo_helperILi0ESaINS_10_Hash_nodeIyLb0EEEELb1EE6_M_getEv"
 "_ZNSt8__detail21_Hashtable_ebo_helperILi0ESaINS_10_Hash_nodeIyLb0EEEELb1EEC2Ev"
 "_ZNSt8__detail21_Hashtable_ebo_helperILi0ESaINS_10_Hash_nodeIyLb0EEEELb1EED2Ev"
 "_ZNSt8__detail21_Hashtable_ebo_helperILi0ESt8equal_toIiELb1EEC2Ev"
 "_ZNSt8__detail21_Hashtable_ebo_helperILi0ESt8equal_toIiELb1EEC2IRKS2_EEOT_"
 "_ZNSt8__detail21_Hashtable_ebo_helperILi0ESt8equal_toIyELb1EEC2Ev"
 "_ZNSt8__detail21_Hashtable_ebo_helperILi1ESt4hashIiELb1EEC2Ev"
 "_ZNSt8__detail21_Hashtable_ebo_helperILi1ESt4hashIiELb1EEC2IRKS2_EEOT_"
 "_ZNSt8__detail21_Hashtable_ebo_helperILi1ESt4hashIyELb1EEC2Ev"
 "_ZNSt8__detail22_Hashtable_hash_traitsISt4hashIiEE22__small_size_thresholdEv"
 "_ZNSt8__detail22_Hashtable_hash_traitsISt4hashIyEE22__small_size_thresholdEv"
 "_ZNSt8__detail7_InsertIiiSaIiENS_9_IdentityESt8equal_toIiESt4hashIiENS_18_Mod_range_hashingENS_20_Default_ranged_hashENS_20_Prime_rehash_policyENS_17_Hashtable_traitsILb0ELb1ELb1EEELb1EE6insertEOi"
 "_ZNSt8__detail7_InsertIyySaIyENS_9_IdentityESt8equal_toIyESt4hashIyENS_18_Mod_range_hashingENS_20_Default_ranged_hashENS_20_Prime_rehash_policyENS_17_Hashtable_traitsILb0ELb1ELb1EEELb1EE6insertEOy"
 "_ZNSt8_Rb_treeIiiSt9_IdentityIiESt4lessIiESaIiEE10_M_insert_IRKiNS5_11_Alloc_nodeEEESt17_Rb_tree_iteratorIiEPSt18_Rb_tree_node_baseSD_OT_RT0_"
 "_ZNSt8_Rb_treeIiiSt9_IdentityIiESt4lessIiESaIiEE11_Alloc_nodeC1ERS5_"
 "_ZNSt8_Rb_treeIiiSt9_IdentityIiESt4lessIiESaIiEE11_M_get_nodeEv"
 "_ZNSt8_Rb_treeIiiSt9_IdentityIiESt4lessIiESaIiEE11_M_put_nodeEPSt13_Rb_tree_nodeIiE"
 "_ZNSt8_Rb_treeIiiSt9_IdentityIiESt4lessIiESaIiEE12_M_drop_nodeEPSt13_Rb_tree_nodeIiE"
 "_ZNSt8_Rb_treeIiiSt9_IdentityIiESt4lessIiESaIiEE13_Rb_tree_implIS3_Lb1EEC1Ev"
 "_ZNSt8_Rb_treeIiiSt9_IdentityIiESt4lessIiESaIiEE13_Rb_tree_implIS3_Lb1EED1Ev"
 "_ZNSt8_Rb_treeIiiSt9_IdentityIiESt4lessIiESaIiEE14_M_create_nodeIJRKiEEEPSt13_Rb_tree_nodeIiEDpOT_"
 "_ZNSt8_Rb_treeIiiSt9_IdentityIiESt4lessIiESaIiEE15_M_destroy_nodeEPSt13_Rb_tree_nodeIiE"
 "_ZNSt8_Rb_treeIiiSt9_IdentityIiESt4lessIiESaIiEE16_M_insert_uniqueIRKiEESt4pairISt17_Rb_tree_iteratorIiEbEOT_"
 "_ZNSt8_Rb_treeIiiSt9_IdentityIiESt4lessIiESaIiEE17_M_construct_nodeIJRKiEEEvPSt13_Rb_tree_nodeIiEDpOT_"
 "_ZNSt8_Rb_treeIiiSt9_IdentityIiESt4lessIiESaIiEE21_M_get_Node_allocatorEv"
 "_ZNSt8_Rb_treeIiiSt9_IdentityIiESt4lessIiESaIiEE24_M_get_insert_unique_posERKi"
 "_ZNSt8_Rb_treeIiiSt9_IdentityIiESt4lessIiESaIiEE5beginEv"
 "_ZNSt8_Rb_treeIiiSt9_IdentityIiESt4lessIiESaIiEE6_M_endEv"
 "_ZNSt8_Rb_treeIiiSt9_IdentityIiESt4lessIiESaIiEE6_S_keyEPKSt13_Rb_tree_nodeIiE"
 "_ZNSt8_Rb_treeIiiSt9_IdentityIiESt4lessIiESaIiEE6_S_keyEPKSt18_Rb_tree_node_base"
 "_ZNSt8_Rb_treeIiiSt9_IdentityIiESt4lessIiESaIiEE7_S_leftEPSt18_Rb_tree_node_base"
 "_ZNSt8_Rb_treeIiiSt9_IdentityIiESt4lessIiESaIiEE8_M_beginEv"
 "_ZNSt8_Rb_treeIiiSt9_IdentityIiESt4lessIiESaIiEE8_M_eraseEPSt13_Rb_tree_nodeIiE"
 "_ZNSt8_Rb_treeIiiSt9_IdentityIiESt4lessIiESaIiEE8_S_rightEPSt18_Rb_tree_node_base"
 "_ZNSt8_Rb_treeIiiSt9_IdentityIiESt4lessIiESaIiEEC1Ev"
 "_ZNSt8_Rb_treeIiiSt9_IdentityIiESt4lessIiESaIiEED1Ev"
 "_ZnwyPv"
 "_ZSt10__fill_n_aIPdydET_S1_T0_RKT1_St26random_access_iterator_tag"
 "_ZSt10__fill_n_aIPiyiET_S1_T0_RKT1_St26random_access_iterator_tag"
 "_ZSt10__pop_heapIN9__gnu_cxx17__normal_iteratorIPiSt6vectorIiSaIiEEEENS0_5__ops15_Iter_less_iterEEvT_S9_S9_RT0_"
 "_ZSt10__pop_heapIN9__gnu_cxx17__normal_iteratorIPSt4pairIdiESt6vectorIS3_SaIS3_EEEENS0_5__ops15_Iter_less_iterEEvT_SB_SB_RT0_"
 "_ZSt10_ConstructIdJEEvPT_DpOT0_"
 "_ZSt10_ConstructISt4pairIiiEJRKS1_EEvPT_DpOT0_"
 "_ZSt10_ConstructISt6vectorIdSaIdEEJRKS2_EEvPT_DpOT0_"
 "_ZSt10_ConstructISt6vectorIiSaIiEEJEEvPT_DpOT0_"
 "_ZSt11__addressofIdEPT_RS0_"
 "_ZSt11__addressofINSt8__detail10_Hash_nodeIiLb0EEEEPT_RS3_"
 "_ZSt11__addressofINSt8__detail10_Hash_nodeIyLb0EEEEPT_RS3_"
 "_ZSt11__addressofINSt8__detail20_Prime_rehash_policyEEPT_RS2_"
 "_ZSt11__addressofIPNSt8__detail15_Hash_node_baseEEPT_RS3_"
 "_ZSt11__addressofISt4pairIddEEPT_RS2_"
 "_ZSt11__addressofISt4pairIdiEEPT_RS2_"
 "_ZSt11__addressofISt4pairIiiEEPT_RS2_"
 "_ZSt11__addressofISt6vectorIdSaIdEEEPT_RS3_"
 "_ZSt11__addressofISt6vectorIiSaIiEEEPT_RS3_"
 "_ZSt11__addressofISt6vectorIS0_IdSaIdEESaIS2_EEEPT_RS5_"
 "_ZSt11__bit_widthIyEiT_"
 "_ZSt11__make_heapIN9__gnu_cxx17__normal_iteratorIPiSt6vectorIiSaIiEEEENS0_5__ops15_Iter_less_iterEEvT_S9_RT0_"
 "_ZSt11__make_heapIN9__gnu_cxx17__normal_iteratorIPSt4pairIdiESt6vectorIS3_SaIS3_EEEENS0_5__ops15_Iter_less_iterEEvT_SB_RT0_"
 "_ZSt11__push_heapIN9__gnu_cxx17__normal_iteratorIPiSt6vectorIiSaIiEEEExiNS0_5__ops14_Iter_less_valEEvT_T0_SA_T1_RT2_"
 "_ZSt11__push_heapIN9__gnu_cxx17__normal_iteratorIPSt4pairIdiESt6vectorIS3_SaIS3_EEEExS3_NS0_5__ops14_Iter_less_valEEvT_T0_SC_T1_RT2_"
 "_ZSt11__sort_heapIN9__gnu_cxx17__normal_iteratorIPiSt6vectorIiSaIiEEEENS0_5__ops15_Iter_less_iterEEvT_S9_RT0_"
 "_ZSt11__sort_heapIN9__gnu_cxx17__normal_iteratorIPSt4pairIdiESt6vectorIS3_SaIS3_EEEENS0_5__ops15_Iter_less_iterEEvT_SB_RT0_"
 "_ZSt12__miter_baseIN9__gnu_cxx17__normal_iteratorIPiSt6vectorIiSaIiEEEEET_S7_"
 "_ZSt12__miter_baseIN9__gnu_cxx17__normal_iteratorIPKdSt6vectorIdSaIdEEEEET_S8_"
 "_ZSt12__miter_baseIN9__gnu_cxx17__normal_iteratorIPSt4pairIddESt6vectorIS3_SaIS3_EEEEET_S9_"
 "_ZSt12__miter_baseIN9__gnu_cxx17__normal_iteratorIPSt4pairIdiESt6vectorIS3_SaIS3_EEEEET_S9_"
 "_ZSt12__miter_baseIPdEDTcl12__miter_basecldtfp_4baseEEESt13move_iteratorIT_E"
 "_ZSt12__miter_baseIPdET_S1_"
 "_ZSt12__miter_baseIPiEDTcl12__miter_basecldtfp_4baseEEESt13move_iteratorIT_E"
 "_ZSt12__miter_baseIPiET_S1_"
 "_ZSt12__miter_baseIPKdET_S2_"
 "_ZSt12__miter_baseIPKiET_S2_"
 "_ZSt12__miter_baseIPPSt4pairIiiEET_S4_"
 "_ZSt12__niter_baseIPdET_S1_"
 "_ZSt12__niter_baseIPdSt6vectorIdSaIdEEET_N9__gnu_cxx17__normal_iteratorIS4_T0_EE"
 "_ZSt12__niter_baseIPiET_S1_"
 "_ZSt12__niter_baseIPiSt6vectorIiSaIiEEET_N9__gnu_cxx17__normal_iteratorIS4_T0_EE"
 "_ZSt12__niter_baseIPKdET_S2_"
 "_ZSt12__niter_baseIPKdSt6vectorIdSaIdEEET_N9__gnu_cxx17__normal_iteratorIS5_T0_EE"
 "_ZSt12__niter_baseIPKiET_S2_"
 "_ZSt12__niter_baseIPPSt4pairIiiEET_S4_"
 "_ZSt12__niter_baseIPSt4pairIddEET_S3_"
 "_ZSt12__niter_baseIPSt4pairIddESt6vectorIS1_SaIS1_EEET_N9__gnu_cxx17__normal_iteratorIS6_T0_EE"
 "_ZSt12__niter_baseIPSt4pairIdiEET_S3_"
 "_ZSt12__niter_baseIPSt4pairIdiESt6vectorIS1_SaIS1_EEET_N9__gnu_cxx17__normal_iteratorIS6_T0_EE"
 "_ZSt12__niter_baseIPSt4pairIiiEET_S3_"
 "_ZSt12__niter_baseIPSt6vectorIdSaIdEEET_S4_"
 "_ZSt12__niter_baseIPSt6vectorIS0_IdSaIdEESaIS2_EEET_S6_"
 "_ZSt12__niter_baseIPyET_S1_"
 "_ZSt12__niter_wrapIN9__gnu_cxx17__normal_iteratorIPdSt6vectorIdSaIdEEEES2_ET_S7_T0_"
 "_ZSt12__niter_wrapIN9__gnu_cxx17__normal_iteratorIPiSt6vectorIiSaIiEEEES2_ET_S7_T0_"
 "_ZSt12__niter_wrapIN9__gnu_cxx17__normal_iteratorIPSt4pairIddESt6vectorIS3_SaIS3_EEEES4_ET_S9_T0_"
 "_ZSt12__niter_wrapIN9__gnu_cxx17__normal_iteratorIPSt4pairIdiESt6vectorIS3_SaIS3_EEEES4_ET_S9_T0_"
 "_ZSt12__niter_wrapIPdET_RKS1_S1_"
 "_ZSt12__niter_wrapIPiET_RKS1_S1_"
 "_ZSt12__niter_wrapIPPSt4pairIiiEET_RKS4_S4_"
 "_ZSt12__relocate_aIPdS0_SaIdEET0_T_S3_S2_RT1_"
 "_ZSt12__relocate_aIPiS0_SaIiEET0_T_S3_S2_RT1_"
 "_ZSt12__relocate_aIPSt4pairIddES2_SaIS1_EET0_T_S5_S4_RT1_"
 "_ZSt12__relocate_aIPSt4pairIdiES2_SaIS1_EET0_T_S5_S4_RT1_"
 "_ZSt12__relocate_aIPSt4pairIiiES2_SaIS1_EET0_T_S5_S4_RT1_"
 "_ZSt12__relocate_aIPSt6vectorIdSaIdEES3_SaIS2_EET0_T_S6_S5_RT1_"
 "_ZSt12__relocate_aIPSt6vectorIS0_IdSaIdEESaIS2_EES5_SaIS4_EET0_T_S8_S7_RT1_"
 "_ZSt12__relocate_aIPyS0_SaIyEET0_T_S3_S2_RT1_"
 "_ZSt12__to_addressIdEPT_S1_"
 "_ZSt12__to_addressIiEPT_S1_"
 "_ZSt12__to_addressINSt8__detail10_Hash_nodeIiLb0EEEEPT_S4_"
 "_ZSt12__to_addressINSt8__detail10_Hash_nodeIyLb0EEEEPT_S4_"
 "_ZSt12__to_addressIPNSt8__detail15_Hash_node_baseEEPT_S4_"
 "_ZSt12__to_addressISt4pairIddEEPT_S3_"
 "_ZSt12__to_addressISt4pairIdiEEPT_S3_"
 "_ZSt12__to_addressISt4pairIiiEEPT_S3_"
 "_ZSt12__to_addressISt6vectorIdSaIdEEEPT_S4_"
 "_ZSt12__to_addressISt6vectorIS0_IdSaIdEESaIS2_EEEPT_S6_"
 "_ZSt12__to_addressIyEPT_S1_"
 "_ZSt13__adjust_heapIN9__gnu_cxx17__normal_iteratorIPiSt6vectorIiSaIiEEEExiNS0_5__ops15_Iter_less_iterEEvT_T0_SA_T1_T2_"
 "_ZSt13__adjust_heapIN9__gnu_cxx17__normal_iteratorIPSt4pairIdiESt6vectorIS3_SaIS3_EEEExS3_NS0_5__ops15_Iter_less_iterEEvT_T0_SC_T1_T2_"
 "_ZSt13__copy_move_aILb0EN9__gnu_cxx17__normal_iteratorIPiSt6vectorIiSaIiEEEES2_ET1_T0_S8_S7_"
 "_ZSt13__copy_move_aILb0EN9__gnu_cxx17__normal_iteratorIPiSt6vectorIiSaIiEEEES6_ET1_T0_S8_S7_"
 "_ZSt13__copy_move_aILb0EN9__gnu_cxx17__normal_iteratorIPKdSt6vectorIdSaIdEEEENS1_IPdS6_EEET1_T0_SB_SA_"
 "_ZSt13__copy_move_aILb0EN9__gnu_cxx17__normal_iteratorIPKdSt6vectorIdSaIdEEEEPdET1_T0_SA_S9_"
 "_ZSt13__copy_move_aILb0EPKdPdET1_T0_S4_S3_"
 "_ZSt13__copy_move_aILb0EPKiPiET1_T0_S4_S3_"
 "_ZSt13__copy_move_aILb0EPPSt4pairIiiES3_ET1_T0_S5_S4_"
 "_ZSt13__copy_move_aILb1EN9__gnu_cxx17__normal_iteratorIPiSt6vectorIiSaIiEEEES6_ET1_T0_S8_S7_"
 "_ZSt13__copy_move_aILb1EPdS0_ET1_T0_S2_S1_"
 "_ZSt13__copy_move_aILb1EPiS0_ET1_T0_S2_S1_"
 "_ZSt13__countl_zeroIyEiT_"
 "_ZSt13__heap_selectIN9__gnu_cxx17__normal_iteratorIPiSt6vectorIiSaIiEEEENS0_5__ops15_Iter_less_iterEEvT_S9_S9_T0_"
 "_ZSt13__heap_selectIN9__gnu_cxx17__normal_iteratorIPSt4pairIdiESt6vectorIS3_SaIS3_EEEENS0_5__ops15_Iter_less_iterEEvT_SB_SB_T0_"
 "_ZSt13__max_elementIPKiN9__gnu_cxx5__ops15_Iter_less_iterEET_S5_S5_T0_"
 "_ZSt13copy_backwardIPPSt4pairIiiES3_ET0_T_S5_S4_"
 "_ZSt13move_backwardIN9__gnu_cxx17__normal_iteratorIPiSt6vectorIiSaIiEEEES6_ET0_T_S8_S7_"
 "_ZSt13move_backwardIN9__gnu_cxx17__normal_iteratorIPSt4pairIddESt6vectorIS3_SaIS3_EEEES8_ET0_T_SA_S9_"
 "_ZSt13move_backwardIN9__gnu_cxx17__normal_iteratorIPSt4pairIdiESt6vectorIS3_SaIS3_EEEES8_ET0_T_SA_S9_"
 "_ZSt13move_backwardIPdS0_ET0_T_S2_S1_"
 "_ZSt13move_backwardIPiS0_ET0_T_S2_S1_"
 "_ZSt14__copy_move_a1ILb0EPiS0_ET1_T0_S2_S1_"
 "_ZSt14__copy_move_a1ILb0EPKdPdET1_T0_S4_S3_"
 "_ZSt14__copy_move_a1ILb0EPKiPiET1_T0_S4_S3_"
 "_ZSt14__copy_move_a1ILb0EPPSt4pairIiiES3_ET1_T0_S5_S4_"
 "_ZSt14__copy_move_a1ILb1EPdS0_ET1_T0_S2_S1_"
 "_ZSt14__copy_move_a1ILb1EPiS0_ET1_T0_S2_S1_"
 "_ZSt14__copy_move_a2ILb0EPiS0_ET1_T0_S2_S1_"
 "_ZSt14__copy_move_a2ILb0EPKdPdET1_T0_S4_S3_"
 "_ZSt14__copy_move_a2ILb0EPKiPiET1_T0_S4_S3_"
 "_ZSt14__copy_move_a2ILb0EPPSt4pairIiiES3_ET1_T0_S5_S4_"
 "_ZSt14__copy_move_a2ILb1EPdS0_ET1_T0_S2_S1_"
 "_ZSt14__copy_move_a2ILb1EPiS0_ET1_T0_S2_S1_"
 "_ZSt14__partial_sortIN9__gnu_cxx17__normal_iteratorIPiSt6vectorIiSaIiEEEENS0_5__ops15_Iter_less_iterEEvT_S9_S9_T0_"
 "_ZSt14__partial_sortIN9__gnu_cxx17__normal_iteratorIPSt4pairIdiESt6vectorIS3_SaIS3_EEEENS0_5__ops15_Iter_less_iterEEvT_SB_SB_T0_"
 "_ZSt14__relocate_a_1IddENSt9enable_ifIXsrSt24__is_bitwise_relocatableIT_vE5valueEPS2_E4typeES4_S4_S4_RSaIT0_E"
 "_ZSt14__relocate_a_1IiiENSt9enable_ifIXsrSt24__is_bitwise_relocatableIT_vE5valueEPS2_E4typeES4_S4_S4_RSaIT0_E"
 "_ZSt14__relocate_a_1IPSt4pairIddES2_SaIS1_EET0_T_S5_S4_RT1_"
 "_ZSt14__relocate_a_1IPSt4pairIdiES2_SaIS1_EET0_T_S5_S4_RT1_"
 "_ZSt14__relocate_a_1IPSt4pairIiiES2_SaIS1_EET0_T_S5_S4_RT1_"
 "_ZSt14__relocate_a_1IPSt6vectorIdSaIdEES3_SaIS2_EET0_T_S6_S5_RT1_"
 "_ZSt14__relocate_a_1IPSt6vectorIS0_IdSaIdEESaIS2_EES5_SaIS4_EET0_T_S8_S7_RT1_"
 "_ZSt14__relocate_a_1IyyENSt9enable_ifIXsrSt24__is_bitwise_relocatableIT_vE5valueEPS2_E4typeES4_S4_S4_RSaIT0_E"
 "_ZSt15__adjacent_findIN9__gnu_cxx17__normal_iteratorIPiSt6vectorIiSaIiEEEENS0_5__ops19_Iter_equal_to_iterEET_S9_S9_T0_"
 "_ZSt16__deque_buf_sizey"
 "_ZSt16__do_uninit_copyIPKSt4pairIiiEPS1_ET0_T_S6_S5_"
 "_ZSt16__insertion_sortIN9__gnu_cxx17__normal_iteratorIPiSt6vectorIiSaIiEEEENS0_5__ops15_Iter_less_iterEEvT_S9_T0_"
 "_ZSt16__insertion_sortIN9__gnu_cxx17__normal_iteratorIPSt4pairIdiESt6vectorIS3_SaIS3_EEEENS0_5__ops15_Iter_less_iterEEvT_SB_T0_"
 "_ZSt16__introsort_loopIN9__gnu_cxx17__normal_iteratorIPiSt6vectorIiSaIiEEEExNS0_5__ops15_Iter_less_iterEEvT_S9_T0_T1_"
 "_ZSt16__introsort_loopIN9__gnu_cxx17__normal_iteratorIPSt4pairIdiESt6vectorIS3_SaIS3_EEEExNS0_5__ops15_Iter_less_iterEEvT_SB_T0_T1_"
 "_ZSt17__size_to_integery"
 "_ZSt18__do_uninit_fill_nIPSt6vectorIdSaIdEEyS2_ET_S4_T0_RKT1_"
 "_ZSt18make_move_iteratorIPdESt13move_iteratorIT_ES2_"
 "_ZSt18make_move_iteratorIPiESt13move_iteratorIT_ES2_"
 "_ZSt18uninitialized_copyIN9__gnu_cxx17__normal_iteratorIPiSt6vectorIiSaIiEEEES2_ET0_T_S8_S7_"
 "_ZSt18uninitialized_copyIN9__gnu_cxx17__normal_iteratorIPKdSt6vectorIdSaIdEEEEPdET0_T_SA_S9_"
 "_ZSt18uninitialized_copyIPKdPdET0_T_S4_S3_"
 "_ZSt18uninitialized_copyIPKiPiET0_T_S4_S3_"
 "_ZSt18uninitialized_copyIPKSt4pairIiiEPS1_ET0_T_S6_S5_"
 "_ZSt18uninitialized_copyISt13move_iteratorIPdES1_ET0_T_S4_S3_"
 "_ZSt18uninitialized_copyISt13move_iteratorIPiES1_ET0_T_S4_S3_"
 "_ZSt19__relocate_object_aISt4pairIddES1_SaIS1_EEvPT_PT0_RT1_"
 "_ZSt19__relocate_object_aISt4pairIdiES1_SaIS1_EEvPT_PT0_RT1_"
 "_ZSt19__relocate_object_aISt4pairIiiES1_SaIS1_EEvPT_PT0_RT1_"
 "_ZSt19__relocate_object_aISt6vectorIdSaIdEES2_SaIS2_EEvPT_PT0_RT1_"
 "_ZSt19__relocate_object_aISt6vectorIS0_IdSaIdEESaIS2_EES4_SaIS4_EEvPT_PT0_RT1_"
 "_ZSt20uninitialized_fill_nIPdydET_S1_T0_RKT1_"
 "_ZSt20uninitialized_fill_nIPiyiET_S1_T0_RKT1_"
 "_ZSt20uninitialized_fill_nIPSt6vectorIdSaIdEEyS2_ET_S4_T0_RKT1_"
 "_ZSt21__unguarded_partitionIN9__gnu_cxx17__normal_iteratorIPiSt6vectorIiSaIiEEEENS0_5__ops15_Iter_less_iterEET_S9_S9_S9_T0_"
 "_ZSt21__unguarded_partitionIN9__gnu_cxx17__normal_iteratorIPSt4pairIdiESt6vectorIS3_SaIS3_EEEENS0_5__ops15_Iter_less_iterEET_SB_SB_SB_T0_"
 "_ZSt22__copy_move_backward_aILb0EPPSt4pairIiiES3_ET1_T0_S5_S4_"
 "_ZSt22__copy_move_backward_aILb1EN9__gnu_cxx17__normal_iteratorIPiSt6vectorIiSaIiEEEES6_ET1_T0_S8_S7_"
 "_ZSt22__copy_move_backward_aILb1EN9__gnu_cxx17__normal_iteratorIPSt4pairIddESt6vectorIS3_SaIS3_EEEES8_ET1_T0_SA_S9_"
 "_ZSt22__copy_move_backward_aILb1EN9__gnu_cxx17__normal_iteratorIPSt4pairIdiESt6vectorIS3_SaIS3_EEEES8_ET1_T0_SA_S9_"
 "_ZSt22__copy_move_backward_aILb1EPdS0_ET1_T0_S2_S1_"
 "_ZSt22__copy_move_backward_aILb1EPiS0_ET1_T0_S2_S1_"
 "_ZSt22__final_insertion_sortIN9__gnu_cxx17__normal_iteratorIPiSt6vectorIiSaIiEEEENS0_5__ops15_Iter_less_iterEEvT_S9_T0_"
 "_ZSt22__final_insertion_sortIN9__gnu_cxx17__normal_iteratorIPSt4pairIdiESt6vectorIS3_SaIS3_EEEENS0_5__ops15_Iter_less_iterEEvT_SB_T0_"
 "_ZSt22__move_median_to_firstIN9__gnu_cxx17__normal_iteratorIPiSt6vectorIiSaIiEEEENS0_5__ops15_Iter_less_iterEEvT_S9_S9_S9_T0_"
 "_ZSt22__move_median_to_firstIN9__gnu_cxx17__normal_iteratorIPSt4pairIdiESt6vectorIS3_SaIS3_EEEENS0_5__ops15_Iter_less_iterEEvT_SB_SB_SB_T0_"
 "_ZSt22__uninitialized_copy_aIN9__gnu_cxx17__normal_iteratorIPiSt6vectorIiSaIiEEEES2_iET0_T_S8_S7_RSaIT1_E"
 "_ZSt22__uninitialized_copy_aIN9__gnu_cxx17__normal_iteratorIPKdSt6vectorIdSaIdEEEEPddET0_T_SA_S9_RSaIT1_E"
 "_ZSt22__uninitialized_copy_aIPKdPddET0_T_S4_S3_RSaIT1_E"
 "_ZSt22__uninitialized_copy_aIPKiPiiET0_T_S4_S3_RSaIT1_E"
 "_ZSt22__uninitialized_copy_aIPKSt4pairIiiEPS1_S1_ET0_T_S6_S5_RSaIT1_E"
 "_ZSt22__uninitialized_copy_aISt13move_iteratorIPdES1_dET0_T_S4_S3_RSaIT1_E"
 "_ZSt22__uninitialized_copy_aISt13move_iteratorIPiES1_iET0_T_S4_S3_RSaIT1_E"
 "_ZSt22__uninitialized_move_aIPdS0_SaIdEET0_T_S3_S2_RT1_"
 "_ZSt22__uninitialized_move_aIPiS0_SaIiEET0_T_S3_S2_RT1_"
 "_ZSt23__copy_move_backward_a1ILb0EPPSt4pairIiiES3_ET1_T0_S5_S4_"
 "_ZSt23__copy_move_backward_a1ILb1EPdS0_ET1_T0_S2_S1_"
 "_ZSt23__copy_move_backward_a1ILb1EPiS0_ET1_T0_S2_S1_"
 "_ZSt23__copy_move_backward_a1ILb1EPSt4pairIddES2_ET1_T0_S4_S3_"
 "_ZSt23__copy_move_backward_a1ILb1EPSt4pairIdiES2_ET1_T0_S4_S3_"
 "_ZSt23__copy_move_backward_a2ILb0EPPSt4pairIiiES3_ET1_T0_S5_S4_"
 "_ZSt23__copy_move_backward_a2ILb1EPdS0_ET1_T0_S2_S1_"
 "_ZSt23__copy_move_backward_a2ILb1EPiS0_ET1_T0_S2_S1_"
 "_ZSt23__copy_move_backward_a2ILb1EPSt4pairIddES2_ET1_T0_S4_S3_"
 "_ZSt23__copy_move_backward_a2ILb1EPSt4pairIdiES2_ET1_T0_S4_S3_"
 "_ZSt24__uninitialized_fill_n_aIPdyddET_S1_T0_RKT1_RSaIT2_E"
 "_ZSt24__uninitialized_fill_n_aIPiyiiET_S1_T0_RKT1_RSaIT2_E"
 "_ZSt24__uninitialized_fill_n_aIPSt6vectorIdSaIdEEyS2_S2_ET_S4_T0_RKT1_RSaIT2_E"
 "_ZSt25__unguarded_linear_insertIN9__gnu_cxx17__normal_iteratorIPiSt6vectorIiSaIiEEEENS0_5__ops14_Val_less_iterEEvT_T0_"
 "_ZSt25__unguarded_linear_insertIN9__gnu_cxx17__normal_iteratorIPSt4pairIdiESt6vectorIS3_SaIS3_EEEENS0_5__ops14_Val_less_iterEEvT_T0_"
 "_ZSt25__uninitialized_default_nIPdyET_S1_T0_"
 "_ZSt25__uninitialized_default_nIPSt6vectorIiSaIiEEyET_S4_T0_"
 "_ZSt26__unguarded_insertion_sortIN9__gnu_cxx17__normal_iteratorIPiSt6vectorIiSaIiEEEENS0_5__ops15_Iter_less_iterEEvT_S9_T0_"
 "_ZSt26__unguarded_insertion_sortIN9__gnu_cxx17__normal_iteratorIPSt4pairIdiESt6vectorIS3_SaIS3_EEEENS0_5__ops15_Iter_less_iterEEvT_SB_T0_"
 "_ZSt27__unguarded_partition_pivotIN9__gnu_cxx17__normal_iteratorIPiSt6vectorIiSaIiEEEENS0_5__ops15_Iter_less_iterEET_S9_S9_T0_"
 "_ZSt27__unguarded_partition_pivotIN9__gnu_cxx17__normal_iteratorIPSt4pairIdiESt6vectorIS3_SaIS3_EEEENS0_5__ops15_Iter_less_iterEET_SB_SB_T0_"
 "_ZSt27__uninitialized_default_n_aIPdydET_S1_T0_RSaIT1_E"
 "_ZSt27__uninitialized_default_n_aIPSt6vectorIiSaIiEEyS2_ET_S4_T0_RSaIT1_E"
 "_ZSt32__make_move_if_noexcept_iteratorIdSt13move_iteratorIPdEET0_PT_"
 "_ZSt32__make_move_if_noexcept_iteratorIiSt13move_iteratorIPiEET0_PT_"
 "_ZSt34__uninitialized_move_if_noexcept_aIPdS0_SaIdEET0_T_S3_S2_RT1_"
 "_ZSt34__uninitialized_move_if_noexcept_aIPiS0_SaIiEET0_T_S3_S2_RT1_"
 "_ZSt3absd"
 "_ZSt3getILy0EiiEOKNSt13tuple_elementIXT_ESt4pairIT0_T1_EE4typeEOKS4_"
 "_ZSt3getILy0EiiEONSt13tuple_elementIXT_ESt4pairIT0_T1_EE4typeEOS4_"
 "_ZSt3getILy0EiiERKNSt13tuple_elementIXT_ESt4pairIT0_T1_EE4typeERKS4_"
 "_ZSt3getILy1EiiEOKNSt13tuple_elementIXT_ESt4pairIT0_T1_EE4typeEOKS4_"
 "_ZSt3getILy1EiiEONSt13tuple_elementIXT_ESt4pairIT0_T1_EE4typeEOS4_"
 "_ZSt3getILy1EiiERKNSt13tuple_elementIXT_ESt4pairIT0_T1_EE4typeERKS4_"
 "_ZSt3maxIiERKT_S2_S2_"
 "_ZSt3maxIiET_St16initializer_listIS0_E"
 "_ZSt3maxIyERKT_S2_S2_"
 "_ZSt3minIyERKT_S2_S2_"
 "_ZSt4__lgIxET_S0_"
 "_ZSt4copyIN9__gnu_cxx17__normal_iteratorIPiSt6vectorIiSaIiEEEES2_ET0_T_S8_S7_"
 "_ZSt4copyIN9__gnu_cxx17__normal_iteratorIPiSt6vectorIiSaIiEEEES6_ET0_T_S8_S7_"
 "_ZSt4copyIN9__gnu_cxx17__normal_iteratorIPKdSt6vectorIdSaIdEEEENS1_IPdS6_EEET0_T_SB_SA_"
 "_ZSt4copyIN9__gnu_cxx17__normal_iteratorIPKdSt6vectorIdSaIdEEEEPdET0_T_SA_S9_"
 "_ZSt4copyIPKdPdET0_T_S4_S3_"
 "_ZSt4copyIPKiPiET0_T_S4_S3_"
 "_ZSt4copyIPPSt4pairIiiES3_ET0_T_S5_S4_"
 "_ZSt4copyISt13move_iteratorIPdES1_ET0_T_S4_S3_"
 "_ZSt4copyISt13move_iteratorIPiES1_ET0_T_S4_S3_"
 "_ZSt4moveIN9__gnu_cxx17__normal_iteratorIPiSt6vectorIiSaIiEEEES6_ET0_T_S8_S7_"
 "_ZSt4moveIRdEONSt16remove_referenceIT_E4typeEOS2_"
 "_ZSt4moveIRiEONSt16remove_referenceIT_E4typeEOS2_"
 "_ZSt4moveIRKSt4pairIiiEEONSt16remove_referenceIT_E4typeEOS5_"
 "_ZSt4moveIRN9__gnu_cxx5__ops15_Iter_less_iterEEONSt16remove_referenceIT_E4typeEOS5_"
 "_ZSt4moveIRNSt12_Vector_baseIdSaIdEE12_Vector_implEEONSt16remove_referenceIT_E4typeEOS6_"
 "_ZSt4moveIRNSt12_Vector_baseIiSaIiEE12_Vector_implEEONSt16remove_referenceIT_E4typeEOS6_"
 "_ZSt4moveIRNSt12_Vector_baseISt6vectorIdSaIdEESaIS3_EE12_Vector_implEEONSt16remove_referenceIT_E4typeEOS9_"
 "_ZSt4moveIRNSt12_Vector_baseISt6vectorIiSaIiEESaIS3_EE12_Vector_implEEONSt16remove_referenceIT_E4typeEOS9_"
 "_ZSt4moveIRNSt12_Vector_baseISt6vectorIS1_IdSaIdEESaIS3_EESaIS5_EE12_Vector_implEEONSt16remove_referenceIT_E4typeEOSB_"
 "_ZSt4moveIRPdEONSt16remove_referenceIT_E4typeEOS3_"
 "_ZSt4moveIRPiEONSt16remove_referenceIT_E4typeEOS3_"
 "_ZSt4moveIRPKdEONSt16remove_referenceIT_E4typeEOS4_"
 "_ZSt4moveIRPKiEONSt16remove_referenceIT_E4typeEOS4_"
 "_ZSt4moveIRPKSt4pairIiiEEONSt16remove_referenceIT_E4typeEOS6_"
 "_ZSt4moveIRSaIdEEONSt16remove_referenceIT_E4typeEOS3_"
 "_ZSt4moveIRSaIiEEONSt16remove_referenceIT_E4typeEOS3_"
 "_ZSt4moveIRSt4pairIddEEONSt16remove_referenceIT_E4typeEOS4_"
 "_ZSt4moveIRSt4pairIdiEEONSt16remove_referenceIT_E4typeEOS4_"
 "_ZSt4moveIRSt4pairIiiEEONSt16remove_referenceIT_E4typeEOS4_"
 "_ZSt4moveIRSt6vectorIdSaIdEEEONSt16remove_referenceIT_E4typeEOS5_"
 "_ZSt4moveIRSt6vectorIiSaIiEEEONSt16remove_referenceIT_E4typeEOS5_"
 "_ZSt4moveIRSt6vectorIS0_IdSaIdEESaIS2_EEEONSt16remove_referenceIT_E4typeEOS7_"
 "_ZSt4moveIRyEONSt16remove_referenceIT_E4typeEOS2_"
 "_ZSt4sortIN9__gnu_cxx17__normal_iteratorIPiSt6vectorIiSaIiEEEEEvT_S7_"
 "_ZSt4sortIN9__gnu_cxx17__normal_iteratorIPSt4pairIdiESt6vectorIS3_SaIS3_EEEEEvT_S9_"
 "_ZSt4sqrtIiEN9__gnu_cxx11__enable_ifIXsrSt12__is_integerIT_E7__valueEdE6__typeES3_"
 "_ZSt4swapIddENSt9enable_ifIXsrSt6__and_IJSt14__is_swappableIT_ES2_IT0_EEE5valueEvE4typeERSt4pairIS3_S5_ESC_"
 "_ZSt4swapIdENSt9enable_ifIXsrSt6__and_IJSt6__not_ISt15__is_tuple_likeIT_EESt21is_move_constructibleIS4_ESt18is_move_assignableIS4_EEE5valueEvE4typeERS4_SE_"
 "_ZSt4swapIdiENSt9enable_ifIXsrSt6__and_IJSt14__is_swappableIT_ES2_IT0_EEE5valueEvE4typeERSt4pairIS3_S5_ESC_"
 "_ZSt4swapIiENSt9enable_ifIXsrSt6__and_IJSt6__not_ISt15__is_tuple_likeIT_EESt21is_move_constructibleIS4_ESt18is_move_assignableIS4_EEE5valueEvE4typeERS4_SE_"
 "_ZSt5isnand"
 "_ZSt6__sortIN9__gnu_cxx17__normal_iteratorIPiSt6vectorIiSaIiEEEENS0_5__ops15_Iter_less_iterEEvT_S9_T0_"
 "_ZSt6__sortIN9__gnu_cxx17__normal_iteratorIPSt4pairIdiESt6vectorIS3_SaIS3_EEEENS0_5__ops15_Iter_less_iterEEvT_SB_T0_"
 "_ZSt6fill_nIPdydET_S1_T0_RKT1_"
 "_ZSt6fill_nIPiyiET_S1_T0_RKT1_"
 "_ZSt6uniqueIN9__gnu_cxx17__normal_iteratorIPiSt6vectorIiSaIiEEEEET_S7_S7_"
 "_ZSt7forwardIbEOT_RNSt16remove_referenceIS0_E4typeE"
 "_ZSt7forwardIdEOT_RNSt16remove_referenceIS0_E4typeE"
 "_ZSt7forwardIiEOT_RNSt16remove_referenceIS0_E4typeE"
 "_ZSt7forwardIKiEOT_RNSt16remove_referenceIS1_E4typeE"
 "_ZSt7forwardINSt8__detail14_Node_iteratorIiLb1ELb0EEEEOT_RNSt16remove_referenceIS3_E4typeE"
 "_ZSt7forwardINSt8__detail14_Node_iteratorIyLb1ELb0EEEEOT_RNSt16remove_referenceIS3_E4typeE"
 "_ZSt7forwardIRbEOT_RNSt16remove_referenceIS1_E4typeE"
 "_ZSt7forwardIRdEOT_RNSt16remove_referenceIS1_E4typeE"
 "_ZSt7forwardIRiEOT_RNSt16remove_referenceIS1_E4typeE"
 "_ZSt7forwardIRKdEOT_RNSt16remove_referenceIS2_E4typeE"
 "_ZSt7forwardIRKiEOT_RNSt16remove_referenceIS2_E4typeE"
 "_ZSt7forwardIRKSt4hashIiEEOT_RNSt16remove_referenceIS4_E4typeE"
 "_ZSt7forwardIRKSt4pairIiiEEOT_RNSt16remove_referenceIS4_E4typeE"
 "_ZSt7forwardIRKSt6vectorIdSaIdEEEOT_RNSt16remove_referenceIS5_E4typeE"
 "_ZSt7forwardIRKSt8equal_toIiEEOT_RNSt16remove_referenceIS4_E4typeE"
 "_ZSt7forwardIRKyEOT_RNSt16remove_referenceIS2_E4typeE"
 "_ZSt7forwardIRNSt8__detail14_Node_iteratorIiLb1ELb0EEEEOT_RNSt16remove_referenceIS4_E4typeE"
 "_ZSt7forwardIRNSt8__detail14_Node_iteratorIyLb1ELb0EEEEOT_RNSt16remove_referenceIS4_E4typeE"
 "_ZSt7forwardIRPSt13_Rb_tree_nodeIiEEOT_RNSt16remove_referenceIS4_E4typeE"
 "_ZSt7forwardIRPSt18_Rb_tree_node_baseEOT_RNSt16remove_referenceIS3_E4typeE"
 "_ZSt7forwardIRSt17_Rb_tree_iteratorIiEEOT_RNSt16remove_referenceIS3_E4typeE"
 "_ZSt7forwardISaINSt8__detail10_Hash_nodeIiLb0EEEEEOT_RNSt16remove_referenceIS4_E4typeE"
 "_ZSt7forwardISt17_Rb_tree_iteratorIiEEOT_RNSt16remove_referenceIS2_E4typeE"
 "_ZSt7forwardISt4pairIddEEOT_RNSt16remove_referenceIS2_E4typeE"
 "_ZSt7forwardISt4pairIdiEEOT_RNSt16remove_referenceIS2_E4typeE"
 "_ZSt7forwardISt4pairIiiEEOT_RNSt16remove_referenceIS2_E4typeE"
 "_ZSt7forwardISt6vectorIdSaIdEEEOT_RNSt16remove_referenceIS3_E4typeE"
 "_ZSt7forwardISt6vectorIS0_IdSaIdEESaIS2_EEEOT_RNSt16remove_referenceIS5_E4typeE"
 "_ZSt7forwardIyEOT_RNSt16remove_referenceIS0_E4typeE"
 "_ZSt8__fill_aIPddEvT_S1_RKT0_"
 "_ZSt8__fill_aIPiiEvT_S1_RKT0_"
 "_ZSt8__uniqueIN9__gnu_cxx17__normal_iteratorIPiSt6vectorIiSaIiEEEENS0_5__ops19_Iter_equal_to_iterEET_S9_S9_T0_"
 "_ZSt8_DestroyIPdEvT_S1_"
 "_ZSt8_DestroyIPiEvT_S1_"
 "_ZSt8_DestroyIPSt4pairIddEEvT_S3_"
 "_ZSt8_DestroyIPSt4pairIdiEEvT_S3_"
 "_ZSt8_DestroyIPSt4pairIiiEEvT_S3_"
 "_ZSt8_DestroyIPSt6vectorIdSaIdEEEvT_S4_"
 "_ZSt8_DestroyIPSt6vectorIiSaIiEEEvT_S4_"
 "_ZSt8_DestroyIPSt6vectorIS0_IdSaIdEESaIS2_EEEvT_S6_"
 "_ZSt8_DestroyIPyEvT_S1_"
 "_ZSt8_DestroyISt6vectorIdSaIdEEEvPT_"
 "_ZSt8_DestroyISt6vectorIiSaIiEEEvPT_"
 "_ZSt8_DestroyISt6vectorIS0_IdSaIdEESaIS2_EEEvPT_"
 "_ZSt9__advanceIN9__gnu_cxx17__normal_iteratorIPiSt6vectorIiSaIiEEEExEvRT_T0_St26random_access_iterator_tag"
 "_ZSt9__advanceIN9__gnu_cxx17__normal_iteratorIPKdSt6vectorIdSaIdEEEExEvRT_T0_St26random_access_iterator_tag"
 "_ZSt9__fill_a1IPddEN9__gnu_cxx11__enable_ifIXsrSt11__is_scalarIT0_E7__valueEvE6__typeET_S8_RKS4_"
 "_ZSt9__fill_a1IPiiEN9__gnu_cxx11__enable_ifIXsrSt11__is_scalarIT0_E7__valueEvE6__typeET_S8_RKS4_"
 "_ZSt9addressofINSt8__detail10_Hash_nodeIiLb0EEEEPT_RS3_"
 "_ZSt9addressofINSt8__detail10_Hash_nodeIyLb0EEEEPT_RS3_"
 "_ZSt9addressofIPNSt8__detail15_Hash_node_baseEEPT_RS3_"
 "_ZSt9iter_swapIN9__gnu_cxx17__normal_iteratorIPiSt6vectorIiSaIiEEEES6_EvT_T0_"
 "_ZSt9iter_swapIN9__gnu_cxx17__normal_iteratorIPSt4pairIddESt6vectorIS3_SaIS3_EEEES8_EvT_T0_"
 "_ZSt9iter_swapIN9__gnu_cxx17__normal_iteratorIPSt4pairIdiESt6vectorIS3_SaIS3_EEEES8_EvT_T0_"
 "_ZSteqRKSt15_Deque_iteratorISt4pairIiiERS1_PS1_ES6_"
 "_ZSteqRKSt17_Rb_tree_iteratorIiES2_"
 "_ZStltIdiEbRKSt4pairIT_T0_ES5_"
 "_ZStmiRKSt15_Deque_iteratorISt4pairIiiERS1_PS1_ES6_"
 "_ZStneRKSt23_Rb_tree_const_iteratorIiES2_"
 "_ZZNSt6vectorIdSaIdEE17_M_realloc_appendIJRKdEEEvDpOT_EN6_GuardC1EPdyRS0_"
 "_ZZNSt6vectorIdSaIdEE17_M_realloc_appendIJRKdEEEvDpOT_EN6_GuardD1Ev"
 "_ZZNSt6vectorIiSaIiEE17_M_realloc_appendIJRKiEEEvDpOT_EN6_GuardC1EPiyRS0_"
 "_ZZNSt6vectorIiSaIiEE17_M_realloc_appendIJRKiEEEvDpOT_EN6_GuardD1Ev"
 "_ZZNSt6vectorIS_IdSaIdEESaIS1_EE17_M_realloc_appendIJS1_EEEvDpOT_EN6_GuardC1EPS1_yRS2_"
 "_ZZNSt6vectorIS_IdSaIdEESaIS1_EE17_M_realloc_appendIJS1_EEEvDpOT_EN6_GuardD1Ev"
 "_ZZNSt6vectorIS_IS_IdSaIdEESaIS1_EESaIS3_EE17_M_realloc_appendIJS3_EEEvDpOT_EN6_GuardC1EPS3_yRS4_"
 "_ZZNSt6vectorIS_IS_IdSaIdEESaIS1_EESaIS3_EE17_M_realloc_appendIJS3_EEEvDpOT_EN6_GuardD1Ev"
 "_ZZNSt6vectorISt4pairIddESaIS1_EE17_M_realloc_appendIJdRKdEEEvDpOT_EN6_GuardC1EPS1_yRS2_"
 "_ZZNSt6vectorISt4pairIddESaIS1_EE17_M_realloc_appendIJdRKdEEEvDpOT_EN6_GuardD1Ev"
 "_ZZNSt6vectorISt4pairIdiESaIS1_EE17_M_realloc_appendIJRdRiEEEvDpOT_EN6_GuardC1EPS1_yRS2_"
 "_ZZNSt6vectorISt4pairIdiESaIS1_EE17_M_realloc_appendIJRdRiEEEvDpOT_EN6_GuardD1Ev"
 "_ZZNSt6vectorISt4pairIiiESaIS1_EE17_M_realloc_appendIJRiS5_EEEvDpOT_EN6_GuardC1EPS1_yRS2_"
 "_ZZNSt6vectorISt4pairIiiESaIS1_EE17_M_realloc_appendIJRiS5_EEEvDpOT_EN6_GuardD1Ev"
 "_ZZNSt6vectorIySaIyEE17_M_realloc_appendIJRKyEEEvDpOT_EN6_GuardC1EPyyRS0_"
 "_ZZNSt6vectorIySaIyEE17_M_realloc_appendIJRKyEEEvDpOT_EN6_GuardD1Ev"
 "_Z16CppDivideLatticeRKSt6vectorIS_IiSaIiEESaIS1_EEi"
 "_Z19GenLatticeNeighborsRKSt6vectorIdSaIdEERKS_IS_IiSaIiEESaIS5_EERKS5_y"
 "_Z20CppLaggedVal4LatticeRKSt6vectorIdSaIdEERKS_IS_IiSaIiEESaIS5_EEi"
 "_Z20GenLatticeEmbeddingsRKSt6vectorIdSaIdEERKS_IS_IiSaIiEESaIS5_EEiii"
 "_Z23GenLatticeEmbeddingsComRKSt6vectorIdSaIdEERKS_IS_IiSaIiEESaIS5_EEiii"
 "_Z23GenLatticeSymbolizationRKSt6vectorIdSaIdEERKS_IS_IiSaIiEESaIS5_EERKS5_SB_y"
 "_Z25CppLaggedNeighbor4LatticeRKSt6vectorIS_IiSaIiEESaIS1_EEi"
 "_ZdlPvS_"
 "_ZN9__gnu_cxx16__aligned_bufferIiE6_M_ptrEv"
 "_ZN9__gnu_cxx16__aligned_bufferIiE7_M_addrEv"
 "_ZN9__gnu_cxx16__aligned_bufferISt4pairIKiSt6vectorIS3_IiSaIiEESaIS5_EEEE6_M_ptrEv"
 "_ZN9__gnu_cxx16__aligned_bufferISt4pairIKiSt6vectorIS3_IiSaIiEESaIS5_EEEE7_M_addrEv"
 "_ZN9__gnu_cxx17__normal_iteratorIPdSt6vectorIdSaIdEEEC1ERKS1_"
 "_ZN9__gnu_cxx17__normal_iteratorIPiSt6vectorIiSaIiEEEC1ERKS1_"
 "_ZN9__gnu_cxx17__normal_iteratorIPiSt6vectorIiSaIiEEEmmEv"
 "_ZN9__gnu_cxx17__normal_iteratorIPiSt6vectorIiSaIiEEEppEv"
 "_ZN9__gnu_cxx17__normal_iteratorIPKdSt6vectorIdSaIdEEEC1ERKS2_"
 "_ZN9__gnu_cxx17__normal_iteratorIPKiSt6vectorIiSaIiEEEC1ERKS2_"
 "_ZN9__gnu_cxx17__normal_iteratorIPKiSt6vectorIiSaIiEEEC1IPivEERKNS0_IT_S5_EE"
 "_ZN9__gnu_cxx17__normal_iteratorIPKiSt6vectorIiSaIiEEEppEv"
 "_ZN9__gnu_cxx17__normal_iteratorIPKSt6vectorIiSaIiEES1_IS3_SaIS3_EEEC1ERKS5_"
 "_ZN9__gnu_cxx17__normal_iteratorIPKSt6vectorIiSaIiEES1_IS3_SaIS3_EEEppEv"
 "_ZN9__gnu_cxx17__normal_iteratorIPSt6vectorIdSaIdEES1_IS3_SaIS3_EEEC1ERKS4_"
 "_ZN9__gnu_cxx17__normal_iteratorIPSt6vectorIiSaIiEES1_IS3_SaIS3_EEEC1ERKS4_"
 "_ZN9__gnu_cxx17__normal_iteratorIPSt6vectorIiSaIiEES1_IS3_SaIS3_EEEppEv"
 "_ZN9__gnu_cxx17__normal_iteratorIPSt6vectorIS1_IdSaIdEESaIS3_EES1_IS5_SaIS5_EEEC1ERKS6_"
 "_ZN9__gnu_cxx17__normal_iteratorIPySt6vectorIySaIyEEEC1ERKS1_"
 "_ZN9__gnu_cxx17__normal_iteratorIPySt6vectorIySaIyEEEppEv"
 "_ZN9__gnu_cxx5__ops14_Iter_less_valC1ENS0_15_Iter_less_iterE"
 "_ZN9__gnu_cxx5__ops15__val_comp_iterENS0_15_Iter_less_iterE"
 "_ZN9__gnu_cxx5__ops16__iter_less_iterEv"
 "_ZN9__gnu_cxx5__ops16_Iter_equals_valIKiEC1ERS2_"
 "_ZN9__gnu_cxx5__ops16_Iter_equals_valIKiEclINS_17__normal_iteratorIPS2_St6vectorIiSaIiEEEEEEbT_"
 "_ZN9__gnu_cxx5__ops17__iter_equals_valIKiEENS0_16_Iter_equals_valIT_EERS4_"
 "_ZN9__gnu_cxx5__ops20__iter_equal_to_iterEv"
 "_ZN9__gnu_cxxeqIPiSt6vectorIiSaIiEEEEbRKNS_17__normal_iteratorIT_T0_EESA_"
 "_ZN9__gnu_cxxeqIPKiSt6vectorIiSaIiEEEEbRKNS_17__normal_iteratorIT_T0_EESB_"
 "_ZN9__gnu_cxxltIPiSt6vectorIiSaIiEEEEbRKNS_17__normal_iteratorIT_T0_EESA_"
 "_ZN9__gnu_cxxmiIPdSt6vectorIdSaIdEEEENS_17__normal_iteratorIT_T0_E15difference_typeERKS8_SB_"
 "_ZN9__gnu_cxxmiIPiSt6vectorIiSaIiEEEENS_17__normal_iteratorIT_T0_E15difference_typeERKS8_SB_"
 "_ZN9__gnu_cxxmiIPKiSt6vectorIiSaIiEEEENS_17__normal_iteratorIT_T0_E15difference_typeERKS9_SC_"
 "_ZN9__gnu_cxxmiIPSt6vectorIdSaIdEES1_IS3_SaIS3_EEEENS_17__normal_iteratorIT_T0_E15difference_typeERKSA_SD_"
 "_ZN9__gnu_cxxmiIPSt6vectorIiSaIiEES1_IS3_SaIS3_EEEENS_17__normal_iteratorIT_T0_E15difference_typeERKSA_SD_"
 "_ZN9__gnu_cxxmiIPSt6vectorIS1_IdSaIdEESaIS3_EES1_IS5_SaIS5_EEEENS_17__normal_iteratorIT_T0_E15difference_typeERKSC_SF_"
 "_ZN9__gnu_cxxmiIPySt6vectorIySaIyEEEENS_17__normal_iteratorIT_T0_E15difference_typeERKS8_SB_"
 "_ZN9__gnu_cxxneIPiSt6vectorIiSaIiEEEEbRKNS_17__normal_iteratorIT_T0_EESA_"
 "_ZN9__gnu_cxxneIPKiSt6vectorIiSaIiEEEEbRKNS_17__normal_iteratorIT_T0_EESB_"
 "_ZN9__gnu_cxxneIPKSt6vectorIiSaIiEES1_IS3_SaIS3_EEEEbRKNS_17__normal_iteratorIT_T0_EESD_"
 "_ZN9__gnu_cxxneIPSt6vectorIiSaIiEES1_IS3_SaIS3_EEEEbRKNS_17__normal_iteratorIT_T0_EESC_"
 "_ZN9__gnu_cxxneIPySt6vectorIySaIyEEEEbRKNS_17__normal_iteratorIT_T0_EESA_"
 "_ZNK9__gnu_cxx16__aligned_bufferIiE6_M_ptrEv"
 "_ZNK9__gnu_cxx16__aligned_bufferIiE7_M_addrEv"
 "_ZNK9__gnu_cxx16__aligned_bufferISt4pairIKiSt6vectorIS3_IiSaIiEESaIS5_EEEE6_M_ptrEv"
 "_ZNK9__gnu_cxx16__aligned_bufferISt4pairIKiSt6vectorIS3_IiSaIiEESaIS5_EEEE7_M_addrEv"
 "_ZNK9__gnu_cxx17__normal_iteratorIPdSt6vectorIdSaIdEEE4baseEv"
 "_ZNK9__gnu_cxx17__normal_iteratorIPdSt6vectorIdSaIdEEEdeEv"
 "_ZNK9__gnu_cxx17__normal_iteratorIPdSt6vectorIdSaIdEEEmiEx"
 "_ZNK9__gnu_cxx17__normal_iteratorIPdSt6vectorIdSaIdEEEplEx"
 "_ZNK9__gnu_cxx17__normal_iteratorIPiSt6vectorIiSaIiEEE4baseEv"
 "_ZNK9__gnu_cxx17__normal_iteratorIPiSt6vectorIiSaIiEEEdeEv"
 "_ZNK9__gnu_cxx17__normal_iteratorIPiSt6vectorIiSaIiEEEmiEx"
 "_ZNK9__gnu_cxx17__normal_iteratorIPiSt6vectorIiSaIiEEEplEx"
 "_ZNK9__gnu_cxx17__normal_iteratorIPKdSt6vectorIdSaIdEEE4baseEv"
 "_ZNK9__gnu_cxx17__normal_iteratorIPKiSt6vectorIiSaIiEEE4baseEv"
 "_ZNK9__gnu_cxx17__normal_iteratorIPKiSt6vectorIiSaIiEEEdeEv"
 "_ZNK9__gnu_cxx17__normal_iteratorIPKSt6vectorIiSaIiEES1_IS3_SaIS3_EEE4baseEv"
 "_ZNK9__gnu_cxx17__normal_iteratorIPKSt6vectorIiSaIiEES1_IS3_SaIS3_EEEdeEv"
 "_ZNK9__gnu_cxx17__normal_iteratorIPSt6vectorIdSaIdEES1_IS3_SaIS3_EEE4baseEv"
 "_ZNK9__gnu_cxx17__normal_iteratorIPSt6vectorIdSaIdEES1_IS3_SaIS3_EEEdeEv"
 "_ZNK9__gnu_cxx17__normal_iteratorIPSt6vectorIdSaIdEES1_IS3_SaIS3_EEEmiEx"
 "_ZNK9__gnu_cxx17__normal_iteratorIPSt6vectorIiSaIiEES1_IS3_SaIS3_EEE4baseEv"
 "_ZNK9__gnu_cxx17__normal_iteratorIPSt6vectorIiSaIiEES1_IS3_SaIS3_EEEdeEv"
 "_ZNK9__gnu_cxx17__normal_iteratorIPSt6vectorIiSaIiEES1_IS3_SaIS3_EEEmiEx"
 "_ZNK9__gnu_cxx17__normal_iteratorIPSt6vectorIiSaIiEES1_IS3_SaIS3_EEEplEx"
 "_ZNK9__gnu_cxx17__normal_iteratorIPSt6vectorIS1_IdSaIdEESaIS3_EES1_IS5_SaIS5_EEE4baseEv"
 "_ZNK9__gnu_cxx17__normal_iteratorIPSt6vectorIS1_IdSaIdEESaIS3_EES1_IS5_SaIS5_EEEdeEv"
 "_ZNK9__gnu_cxx17__normal_iteratorIPSt6vectorIS1_IdSaIdEESaIS3_EES1_IS5_SaIS5_EEEmiEx"
 "_ZNK9__gnu_cxx17__normal_iteratorIPySt6vectorIySaIyEEE4baseEv"
 "_ZNK9__gnu_cxx17__normal_iteratorIPySt6vectorIySaIyEEEdeEv"
 "_ZNK9__gnu_cxx5__ops14_Iter_less_valclINS_17__normal_iteratorIPiSt6vectorIiSaIiEEEEiEEbT_RT0_"
 "_ZNK9__gnu_cxx5__ops14_Val_less_iterclIiNS_17__normal_iteratorIPiSt6vectorIiSaIiEEEEEEbRT_T0_"
 "_ZNK9__gnu_cxx5__ops15_Iter_less_iterclINS_17__normal_iteratorIPiSt6vectorIiSaIiEEEES8_EEbT_T0_"
 "_ZNK9__gnu_cxx5__ops19_Iter_equal_to_iterclINS_17__normal_iteratorIPiSt6vectorIiSaIiEEEES8_EEbT_T0_"
 "_ZNKSt10_HashtableIiiSaIiENSt8__detail9_IdentityESt8equal_toIiESt4hashIiENS1_18_Mod_range_hashingENS1_20_Default_ranged_hashENS1_20_Prime_rehash_policyENS1_17_Hashtable_traitsILb0ELb1ELb1EEEE12_M_find_nodeEyRKiy"
 "_ZNKSt10_HashtableIiiSaIiENSt8__detail9_IdentityESt8equal_toIiESt4hashIiENS1_18_Mod_range_hashingENS1_20_Default_ranged_hashENS1_20_Prime_rehash_policyENS1_17_Hashtable_traitsILb0ELb1ELb1EEEE15_M_bucket_indexERKNS1_16_Hash_node_valueIiLb0EEE"
 "_ZNKSt10_HashtableIiiSaIiENSt8__detail9_IdentityESt8equal_toIiESt4hashIiENS1_18_Mod_range_hashingENS1_20_Default_ranged_hashENS1_20_Prime_rehash_policyENS1_17_Hashtable_traitsILb0ELb1ELb1EEEE15_M_bucket_indexEy"
 "_ZNKSt10_HashtableIiiSaIiENSt8__detail9_IdentityESt8equal_toIiESt4hashIiENS1_18_Mod_range_hashingENS1_20_Default_ranged_hashENS1_20_Prime_rehash_policyENS1_17_Hashtable_traitsILb0ELb1ELb1EEEE15_M_find_node_trIiEEPNS1_10_Hash_nodeIiLb0EEEyRKT_y"
 "_ZNKSt10_HashtableIiiSaIiENSt8__detail9_IdentityESt8equal_toIiESt4hashIiENS1_18_Mod_range_hashingENS1_20_Default_ranged_hashENS1_20_Prime_rehash_policyENS1_17_Hashtable_traitsILb0ELb1ELb1EEEE19_M_find_before_nodeEyRKiy"
 "_ZNKSt10_HashtableIiiSaIiENSt8__detail9_IdentityESt8equal_toIiESt4hashIiENS1_18_Mod_range_hashingENS1_20_Default_ranged_hashENS1_20_Prime_rehash_policyENS1_17_Hashtable_traitsILb0ELb1ELb1EEEE21_M_uses_single_bucketEPPNS1_15_Hash_node_baseE"
 "_ZNKSt10_HashtableIiiSaIiENSt8__detail9_IdentityESt8equal_toIiESt4hashIiENS1_18_Mod_range_hashingENS1_20_Default_ranged_hashENS1_20_Prime_rehash_policyENS1_17_Hashtable_traitsILb0ELb1ELb1EEEE22_M_find_before_node_trIiEEPNS1_15_Hash_node_baseEyRKT_y"
 "_ZNKSt10_HashtableIiiSaIiENSt8__detail9_IdentityESt8equal_toIiESt4hashIiENS1_18_Mod_range_hashingENS1_20_Default_ranged_hashENS1_20_Prime_rehash_policyENS1_17_Hashtable_traitsILb0ELb1ELb1EEEE3endEv"
 "_ZNKSt10_HashtableIiiSaIiENSt8__detail9_IdentityESt8equal_toIiESt4hashIiENS1_18_Mod_range_hashingENS1_20_Default_ranged_hashENS1_20_Prime_rehash_policyENS1_17_Hashtable_traitsILb0ELb1ELb1EEEE4findERKi"
 "_ZNKSt10_HashtableIiiSaIiENSt8__detail9_IdentityESt8equal_toIiESt4hashIiENS1_18_Mod_range_hashingENS1_20_Default_ranged_hashENS1_20_Prime_rehash_policyENS1_17_Hashtable_traitsILb0ELb1ELb1EEEE4sizeEv"
 "_ZNKSt10_HashtableIiiSaIiENSt8__detail9_IdentityESt8equal_toIiESt4hashIiENS1_18_Mod_range_hashingENS1_20_Default_ranged_hashENS1_20_Prime_rehash_policyENS1_17_Hashtable_traitsILb0ELb1ELb1EEEE5countERKi"
 "_ZNKSt10_HashtableIiiSaIiENSt8__detail9_IdentityESt8equal_toIiESt4hashIiENS1_18_Mod_range_hashingENS1_20_Default_ranged_hashENS1_20_Prime_rehash_policyENS1_17_Hashtable_traitsILb0ELb1ELb1EEEE8_M_beginEv"
 "_ZNKSt10_HashtableIiSt4pairIKiSt6vectorIS2_IiSaIiEESaIS4_EEESaIS7_ENSt8__detail10_Select1stESt8equal_toIiESt4hashIiENS9_18_Mod_range_hashingENS9_20_Default_ranged_hashENS9_20_Prime_rehash_policyENS9_17_Hashtable_traitsILb0ELb0ELb1EEEE12_M_find_nodeEyRS1_y"
 "_ZNKSt10_HashtableIiSt4pairIKiSt6vectorIS2_IiSaIiEESaIS4_EEESaIS7_ENSt8__detail10_Select1stESt8equal_toIiESt4hashIiENS9_18_Mod_range_hashingENS9_20_Default_ranged_hashENS9_20_Prime_rehash_policyENS9_17_Hashtable_traitsILb0ELb0ELb1EEEE15_M_bucket_indexERKNS9_16_Hash_node_valueIS7_Lb0EEE"
 "_ZNKSt10_HashtableIiSt4pairIKiSt6vectorIS2_IiSaIiEESaIS4_EEESaIS7_ENSt8__detail10_Select1stESt8equal_toIiESt4hashIiENS9_18_Mod_range_hashingENS9_20_Default_ranged_hashENS9_20_Prime_rehash_policyENS9_17_Hashtable_traitsILb0ELb0ELb1EEEE15_M_bucket_indexEy"
 "_ZNKSt10_HashtableIiSt4pairIKiSt6vectorIS2_IiSaIiEESaIS4_EEESaIS7_ENSt8__detail10_Select1stESt8equal_toIiESt4hashIiENS9_18_Mod_range_hashingENS9_20_Default_ranged_hashENS9_20_Prime_rehash_policyENS9_17_Hashtable_traitsILb0ELb0ELb1EEEE19_M_find_before_nodeEyRS1_y"
 "_ZNKSt10_HashtableIiSt4pairIKiSt6vectorIS2_IiSaIiEESaIS4_EEESaIS7_ENSt8__detail10_Select1stESt8equal_toIiESt4hashIiENS9_18_Mod_range_hashingENS9_20_Default_ranged_hashENS9_20_Prime_rehash_policyENS9_17_Hashtable_traitsILb0ELb0ELb1EEEE21_M_uses_single_bucketEPPNS9_15_Hash_node_baseE"
 "_ZNKSt10_HashtableIiSt4pairIKiSt6vectorIS2_IiSaIiEESaIS4_EEESaIS7_ENSt8__detail10_Select1stESt8equal_toIiESt4hashIiENS9_18_Mod_range_hashingENS9_20_Default_ranged_hashENS9_20_Prime_rehash_policyENS9_17_Hashtable_traitsILb0ELb0ELb1EEEE8_M_beginEv"
 "_ZNKSt11_Deque_baseIiSaIiEE19_M_get_Tp_allocatorEv"
 "_ZNKSt11_Deque_baseIiSaIiEE20_M_get_map_allocatorEv"
 "_ZNKSt12_Vector_baseIdSaIdEE19_M_get_Tp_allocatorEv"
 "_ZNKSt12_Vector_baseIiSaIiEE19_M_get_Tp_allocatorEv"
 "_ZNKSt12_Vector_baseISt6vectorIdSaIdEESaIS2_EE19_M_get_Tp_allocatorEv"
 "_ZNKSt12_Vector_baseISt6vectorIiSaIiEESaIS2_EE19_M_get_Tp_allocatorEv"
 "_ZNKSt12_Vector_baseISt6vectorIS0_IdSaIdEESaIS2_EESaIS4_EE19_M_get_Tp_allocatorEv"
 "_ZNKSt12_Vector_baseIySaIyEE19_M_get_Tp_allocatorEv"
 "_ZNKSt13_Bit_iteratordeEv"
 "_ZNKSt13_Bit_iteratorixEx"
 "_ZNKSt13_Bvector_baseISaIbEE13_Bvector_impl11_M_end_addrEv"
 "_ZNKSt13unordered_setIiSt4hashIiESt8equal_toIiESaIiEE4sizeEv"
 "_ZNKSt13unordered_setIiSt4hashIiESt8equal_toIiESaIiEE5countERKi"
 "_ZNKSt14_Bit_referencecvbEv"
 "_ZNKSt15_Deque_iteratorIiRiPiEdeEv"
 "_ZNKSt16initializer_listIiE3endEv"
 "_ZNKSt16initializer_listIiE4sizeEv"
 "_ZNKSt16initializer_listIiE5beginEv"
 "_ZNKSt4hashIiEclEi"
 "_ZNKSt5dequeIiSaIiEE4sizeEv"
 "_ZNKSt5dequeIiSaIiEE5emptyEv"
 "_ZNKSt5dequeIiSaIiEE8max_sizeEv"
 "_ZNKSt5queueIiSt5dequeIiSaIiEEE5emptyEv"
 "_ZNKSt6vectorIdSaIdEE12_M_check_lenEyPKc"
 "_ZNKSt6vectorIdSaIdEE3endEv"
 "_ZNKSt6vectorIdSaIdEE4sizeEv"
 "_ZNKSt6vectorIdSaIdEE5beginEv"
 "_ZNKSt6vectorIdSaIdEE8capacityEv"
 "_ZNKSt6vectorIdSaIdEE8max_sizeEv"
 "_ZNKSt6vectorIdSaIdEEixEy"
 "_ZNKSt6vectorIiSaIiEE12_M_check_lenEyPKc"
 "_ZNKSt6vectorIiSaIiEE3endEv"
 "_ZNKSt6vectorIiSaIiEE4sizeEv"
 "_ZNKSt6vectorIiSaIiEE5beginEv"
 "_ZNKSt6vectorIiSaIiEE5emptyEv"
 "_ZNKSt6vectorIiSaIiEE6cbeginEv"
 "_ZNKSt6vectorIiSaIiEE8capacityEv"
 "_ZNKSt6vectorIiSaIiEE8max_sizeEv"
 "_ZNKSt6vectorIiSaIiEEixEy"
 "_ZNKSt6vectorIS_IdSaIdEESaIS1_EE12_M_check_lenEyPKc"
 "_ZNKSt6vectorIS_IdSaIdEESaIS1_EE4sizeEv"
 "_ZNKSt6vectorIS_IdSaIdEESaIS1_EE8capacityEv"
 "_ZNKSt6vectorIS_IdSaIdEESaIS1_EE8max_sizeEv"
 "_ZNKSt6vectorIS_IiSaIiEESaIS1_EE12_M_check_lenEyPKc"
 "_ZNKSt6vectorIS_IiSaIiEESaIS1_EE3endEv"
 "_ZNKSt6vectorIS_IiSaIiEESaIS1_EE4sizeEv"
 "_ZNKSt6vectorIS_IiSaIiEESaIS1_EE5beginEv"
 "_ZNKSt6vectorIS_IiSaIiEESaIS1_EE8capacityEv"
 "_ZNKSt6vectorIS_IiSaIiEESaIS1_EE8max_sizeEv"
 "_ZNKSt6vectorIS_IiSaIiEESaIS1_EEixEy"
 "_ZNKSt6vectorIS_IS_IdSaIdEESaIS1_EESaIS3_EE12_M_check_lenEyPKc"
 "_ZNKSt6vectorIS_IS_IdSaIdEESaIS1_EESaIS3_EE4sizeEv"
 "_ZNKSt6vectorIS_IS_IdSaIdEESaIS1_EESaIS3_EE8capacityEv"
 "_ZNKSt6vectorIS_IS_IdSaIdEESaIS1_EESaIS3_EE8max_sizeEv"
 "_ZNKSt6vectorIySaIyEE12_M_check_lenEyPKc"
 "_ZNKSt6vectorIySaIyEE4sizeEv"
 "_ZNKSt6vectorIySaIyEE8max_sizeEv"
 "_ZNKSt8__detail10_AllocNodeISaINS_10_Hash_nodeIiLb0EEEEEclIJRiEEEPS2_DpOT_"
 "_ZNKSt8__detail10_AllocNodeISaINS_10_Hash_nodeIiLb0EEEEEclIJRKiEEEPS2_DpOT_"
 "_ZNKSt8__detail10_Hash_nodeIiLb0EE7_M_nextEv"
 "_ZNKSt8__detail10_Hash_nodeISt4pairIKiSt6vectorIS3_IiSaIiEESaIS5_EEELb0EE7_M_nextEv"
 "_ZNKSt8__detail10_Select1stclIRKSt4pairIKiSt6vectorIS4_IiSaIiEESaIS6_EEEEEONS0_10__1st_typeIT_E4typeEOSD_"
 "_ZNKSt8__detail14_Node_iteratorIiLb1ELb0EEdeEv"
 "_ZNKSt8__detail14_Node_iteratorISt4pairIKiSt6vectorIS3_IiSaIiEESaIS5_EEELb0ELb0EEptEv"
 "_ZNKSt8__detail15_Hash_code_baseIiiNS_9_IdentityESt4hashIiENS_18_Mod_range_hashingENS_20_Default_ranged_hashELb0EE12_M_hash_codeERKi"
 "_ZNKSt8__detail15_Hash_code_baseIiiNS_9_IdentityESt4hashIiENS_18_Mod_range_hashingENS_20_Default_ranged_hashELb0EE13_M_store_codeERNS_21_Hash_node_code_cacheILb0EEEy"
 "_ZNKSt8__detail15_Hash_code_baseIiiNS_9_IdentityESt4hashIiENS_18_Mod_range_hashingENS_20_Default_ranged_hashELb0EE15_M_bucket_indexERKNS_16_Hash_node_valueIiLb0EEEy"
 "_ZNKSt8__detail15_Hash_code_baseIiiNS_9_IdentityESt4hashIiENS_18_Mod_range_hashingENS_20_Default_ranged_hashELb0EE15_M_bucket_indexEyy"
 "_ZNKSt8__detail15_Hash_code_baseIiiNS_9_IdentityESt4hashIiENS_18_Mod_range_hashingENS_20_Default_ranged_hashELb0EE15_M_hash_code_trIiEEyRKT_"
 "_ZNKSt8__detail15_Hash_code_baseIiiNS_9_IdentityESt4hashIiENS_18_Mod_range_hashingENS_20_Default_ranged_hashELb0EE7_M_hashEv"
 "_ZNKSt8__detail15_Hash_code_baseIiSt4pairIKiSt6vectorIS3_IiSaIiEESaIS5_EEENS_10_Select1stESt4hashIiENS_18_Mod_range_hashingENS_20_Default_ranged_hashELb0EE12_M_hash_codeERS2_"
 "_ZNKSt8__detail15_Hash_code_baseIiSt4pairIKiSt6vectorIS3_IiSaIiEESaIS5_EEENS_10_Select1stESt4hashIiENS_18_Mod_range_hashingENS_20_Default_ranged_hashELb0EE13_M_store_codeERNS_21_Hash_node_code_cacheILb0EEEy"
 "_ZNKSt8__detail15_Hash_code_baseIiSt4pairIKiSt6vectorIS3_IiSaIiEESaIS5_EEENS_10_Select1stESt4hashIiENS_18_Mod_range_hashingENS_20_Default_ranged_hashELb0EE15_M_bucket_indexERKNS_16_Hash_node_valueIS8_Lb0EEEy"
 "_ZNKSt8__detail15_Hash_code_baseIiSt4pairIKiSt6vectorIS3_IiSaIiEESaIS5_EEENS_10_Select1stESt4hashIiENS_18_Mod_range_hashingENS_20_Default_ranged_hashELb0EE15_M_bucket_indexEyy"
 "_ZNKSt8__detail15_Hash_code_baseIiSt4pairIKiSt6vectorIS3_IiSaIiEESaIS5_EEENS_10_Select1stESt4hashIiENS_18_Mod_range_hashingENS_20_Default_ranged_hashELb0EE7_M_hashEv"
 "_ZNKSt8__detail15_Hashtable_baseIiiNS_9_IdentityESt8equal_toIiESt4hashIiENS_18_Mod_range_hashingENS_20_Default_ranged_hashENS_17_Hashtable_traitsILb0ELb1ELb1EEEE12_M_equals_trIiEEbRKT_yRKNS_16_Hash_node_valueIiLb0EEE"
 "_ZNKSt8__detail15_Hashtable_baseIiiNS_9_IdentityESt8equal_toIiESt4hashIiENS_18_Mod_range_hashingENS_20_Default_ranged_hashENS_17_Hashtable_traitsILb0ELb1ELb1EEEE13_M_key_equalsERKiRKNS_16_Hash_node_valueIiLb0EEE"
 "_ZNKSt8__detail15_Hashtable_baseIiiNS_9_IdentityESt8equal_toIiESt4hashIiENS_18_Mod_range_hashingENS_20_Default_ranged_hashENS_17_Hashtable_traitsILb0ELb1ELb1EEEE16_M_key_equals_trIiEEbRKT_RKNS_16_Hash_node_valueIiLb0EEE"
 "_ZNKSt8__detail15_Hashtable_baseIiiNS_9_IdentityESt8equal_toIiESt4hashIiENS_18_Mod_range_hashingENS_20_Default_ranged_hashENS_17_Hashtable_traitsILb0ELb1ELb1EEEE5_M_eqEv"
 "_ZNKSt8__detail15_Hashtable_baseIiiNS_9_IdentityESt8equal_toIiESt4hashIiENS_18_Mod_range_hashingENS_20_Default_ranged_hashENS_17_Hashtable_traitsILb0ELb1ELb1EEEE9_M_equalsERKiyRKNS_16_Hash_node_valueIiLb0EEE"
 "_ZNKSt8__detail15_Hashtable_baseIiSt4pairIKiSt6vectorIS3_IiSaIiEESaIS5_EEENS_10_Select1stESt8equal_toIiESt4hashIiENS_18_Mod_range_hashingENS_20_Default_ranged_hashENS_17_Hashtable_traitsILb0ELb0ELb1EEEE13_M_key_equalsERS2_RKNS_16_Hash_node_valueIS8_Lb0EEE"
 "_ZNKSt8__detail15_Hashtable_baseIiSt4pairIKiSt6vectorIS3_IiSaIiEESaIS5_EEENS_10_Select1stESt8equal_toIiESt4hashIiENS_18_Mod_range_hashingENS_20_Default_ranged_hashENS_17_Hashtable_traitsILb0ELb0ELb1EEEE5_M_eqEv"
 "_ZNKSt8__detail15_Hashtable_baseIiSt4pairIKiSt6vectorIS3_IiSaIiEESaIS5_EEENS_10_Select1stESt8equal_toIiESt4hashIiENS_18_Mod_range_hashingENS_20_Default_ranged_hashENS_17_Hashtable_traitsILb0ELb0ELb1EEEE9_M_equalsERS2_yRKNS_16_Hash_node_valueIS8_Lb0EEE"
 "_ZNKSt8__detail18_Mod_range_hashingclEyy"
 "_ZNKSt8__detail20_Prime_rehash_policy8_M_stateEv"
 "_ZNKSt8__detail21_Hashtable_ebo_helperILi0ESt8equal_toIiELb1EE7_M_cgetEv"
 "_ZNKSt8__detail21_Hashtable_ebo_helperILi1ESt4hashIiELb1EE7_M_cgetEv"
 "_ZNKSt8__detail9_IdentityclIRiEEOT_S4_"
 "_ZNKSt8__detail9_IdentityclIRKiEEOT_S5_"
 "_ZNKSt8equal_toIiEclERKiS2_"
 "_ZNSt10_HashtableIiiSaIiENSt8__detail9_IdentityESt8equal_toIiESt4hashIiENS1_18_Mod_range_hashingENS1_20_Default_ranged_hashENS1_20_Prime_rehash_policyENS1_17_Hashtable_traitsILb0ELb1ELb1EEEE12_Scoped_nodeC1EPNS1_10_Hash_nodeIiLb0EEEPNS1_16_Hashtable_allocISaISF_EEE"
 "_ZNSt10_HashtableIiiSaIiENSt8__detail9_IdentityESt8equal_toIiESt4hashIiENS1_18_Mod_range_hashingENS1_20_Default_ranged_hashENS1_20_Prime_rehash_policyENS1_17_Hashtable_traitsILb0ELb1ELb1EEEE12_Scoped_nodeD1Ev"
 "_ZNSt10_HashtableIiiSaIiENSt8__detail9_IdentityESt8equal_toIiESt4hashIiENS1_18_Mod_range_hashingENS1_20_Default_ranged_hashENS1_20_Prime_rehash_policyENS1_17_Hashtable_traitsILb0ELb1ELb1EEEE16_M_insert_uniqueIRiSE_NS1_10_AllocNodeISaINS1_10_Hash_nodeIiLb0EEEEEEEESt4pairINS1_14_Node_iteratorIiLb1ELb0EEEbEOT_OT0_RKT1_"
 "_ZNSt10_HashtableIiiSaIiENSt8__detail9_IdentityESt8equal_toIiESt4hashIiENS1_18_Mod_range_hashingENS1_20_Default_ranged_hashENS1_20_Prime_rehash_policyENS1_17_Hashtable_traitsILb0ELb1ELb1EEEE16_M_insert_uniqueIRKiSF_NS1_10_AllocNodeISaINS1_10_Hash_nodeIiLb0EEEEEEEESt4pairINS1_14_Node_iteratorIiLb1ELb0EEEbEOT_OT0_RKT1_"
 "_ZNSt10_HashtableIiiSaIiENSt8__detail9_IdentityESt8equal_toIiESt4hashIiENS1_18_Mod_range_hashingENS1_20_Default_ranged_hashENS1_20_Prime_rehash_policyENS1_17_Hashtable_traitsILb0ELb1ELb1EEEE19_M_allocate_bucketsEy"
 "_ZNSt10_HashtableIiiSaIiENSt8__detail9_IdentityESt8equal_toIiESt4hashIiENS1_18_Mod_range_hashingENS1_20_Default_ranged_hashENS1_20_Prime_rehash_policyENS1_17_Hashtable_traitsILb0ELb1ELb1EEEE20_M_insert_unique_auxIRiNS1_10_AllocNodeISaINS1_10_Hash_nodeIiLb0EEEEEEEESt4pairINS1_14_Node_iteratorIiLb1ELb0EEEbEOT_RKT0_"
 "_ZNSt10_HashtableIiiSaIiENSt8__detail9_IdentityESt8equal_toIiESt4hashIiENS1_18_Mod_range_hashingENS1_20_Default_ranged_hashENS1_20_Prime_rehash_policyENS1_17_Hashtable_traitsILb0ELb1ELb1EEEE20_M_insert_unique_auxIRKiNS1_10_AllocNodeISaINS1_10_Hash_nodeIiLb0EEEEEEEESt4pairINS1_14_Node_iteratorIiLb1ELb0EEEbEOT_RKT0_"
 "_ZNSt10_HashtableIiiSaIiENSt8__detail9_IdentityESt8equal_toIiESt4hashIiENS1_18_Mod_range_hashingENS1_20_Default_ranged_hashENS1_20_Prime_rehash_policyENS1_17_Hashtable_traitsILb0ELb1ELb1EEEE21_M_deallocate_bucketsEPPNS1_15_Hash_node_baseEy"
 "_ZNSt10_HashtableIiiSaIiENSt8__detail9_IdentityESt8equal_toIiESt4hashIiENS1_18_Mod_range_hashingENS1_20_Default_ranged_hashENS1_20_Prime_rehash_policyENS1_17_Hashtable_traitsILb0ELb1ELb1EEEE21_M_deallocate_bucketsEv"
 "_ZNSt10_HashtableIiiSaIiENSt8__detail9_IdentityESt8equal_toIiESt4hashIiENS1_18_Mod_range_hashingENS1_20_Default_ranged_hashENS1_20_Prime_rehash_policyENS1_17_Hashtable_traitsILb0ELb1ELb1EEEE21_M_insert_unique_nodeEyyPNS1_10_Hash_nodeIiLb0EEEy"
 "_ZNSt10_HashtableIiiSaIiENSt8__detail9_IdentityESt8equal_toIiESt4hashIiENS1_18_Mod_range_hashingENS1_20_Default_ranged_hashENS1_20_Prime_rehash_policyENS1_17_Hashtable_traitsILb0ELb1ELb1EEEE22__small_size_thresholdEv"
 "_ZNSt10_HashtableIiiSaIiENSt8__detail9_IdentityESt8equal_toIiESt4hashIiENS1_18_Mod_range_hashingENS1_20_Default_ranged_hashENS1_20_Prime_rehash_policyENS1_17_Hashtable_traitsILb0ELb1ELb1EEEE22_M_insert_bucket_beginEyPNS1_10_Hash_nodeIiLb0EEE"
 "_ZNSt10_HashtableIiiSaIiENSt8__detail9_IdentityESt8equal_toIiESt4hashIiENS1_18_Mod_range_hashingENS1_20_Default_ranged_hashENS1_20_Prime_rehash_policyENS1_17_Hashtable_traitsILb0ELb1ELb1EEEE3endEv"
 "_ZNSt10_HashtableIiiSaIiENSt8__detail9_IdentityESt8equal_toIiESt4hashIiENS1_18_Mod_range_hashingENS1_20_Default_ranged_hashENS1_20_Prime_rehash_policyENS1_17_Hashtable_traitsILb0ELb1ELb1EEEE4findERKi"
 "_ZNSt10_HashtableIiiSaIiENSt8__detail9_IdentityESt8equal_toIiESt4hashIiENS1_18_Mod_range_hashingENS1_20_Default_ranged_hashENS1_20_Prime_rehash_policyENS1_17_Hashtable_traitsILb0ELb1ELb1EEEE5beginEv"
 "_ZNSt10_HashtableIiiSaIiENSt8__detail9_IdentityESt8equal_toIiESt4hashIiENS1_18_Mod_range_hashingENS1_20_Default_ranged_hashENS1_20_Prime_rehash_policyENS1_17_Hashtable_traitsILb0ELb1ELb1EEEE5clearEv"
 "_ZNSt10_HashtableIiiSaIiENSt8__detail9_IdentityESt8equal_toIiESt4hashIiENS1_18_Mod_range_hashingENS1_20_Default_ranged_hashENS1_20_Prime_rehash_policyENS1_17_Hashtable_traitsILb0ELb1ELb1EEEE9_M_insertIRiNS1_10_AllocNodeISaINS1_10_Hash_nodeIiLb0EEEEEEEESt4pairINS1_14_Node_iteratorIiLb1ELb0EEEbEOT_RKT0_St17integral_constantIbLb1EE"
 "_ZNSt10_HashtableIiiSaIiENSt8__detail9_IdentityESt8equal_toIiESt4hashIiENS1_18_Mod_range_hashingENS1_20_Default_ranged_hashENS1_20_Prime_rehash_policyENS1_17_Hashtable_traitsILb0ELb1ELb1EEEE9_M_insertIRKiNS1_10_AllocNodeISaINS1_10_Hash_nodeIiLb0EEEEEEEESt4pairINS1_14_Node_iteratorIiLb1ELb0EEEbEOT_RKT0_St17integral_constantIbLb1EE"
 "_ZNSt10_HashtableIiiSaIiENSt8__detail9_IdentityESt8equal_toIiESt4hashIiENS1_18_Mod_range_hashingENS1_20_Default_ranged_hashENS1_20_Prime_rehash_policyENS1_17_Hashtable_traitsILb0ELb1ELb1EEEE9_M_rehashEySt17integral_constantIbLb1EE"
 "_ZNSt10_HashtableIiiSaIiENSt8__detail9_IdentityESt8equal_toIiESt4hashIiENS1_18_Mod_range_hashingENS1_20_Default_ranged_hashENS1_20_Prime_rehash_policyENS1_17_Hashtable_traitsILb0ELb1ELb1EEEEC1ERKS6_RKS4_RKS0_"
 "_ZNSt10_HashtableIiiSaIiENSt8__detail9_IdentityESt8equal_toIiESt4hashIiENS1_18_Mod_range_hashingENS1_20_Default_ranged_hashENS1_20_Prime_rehash_policyENS1_17_Hashtable_traitsILb0ELb1ELb1EEEEC1Ev"
 "_ZNSt10_HashtableIiiSaIiENSt8__detail9_IdentityESt8equal_toIiESt4hashIiENS1_18_Mod_range_hashingENS1_20_Default_ranged_hashENS1_20_Prime_rehash_policyENS1_17_Hashtable_traitsILb0ELb1ELb1EEEEC1EyRKS6_RKS4_RKS0_"
 "_ZNSt10_HashtableIiiSaIiENSt8__detail9_IdentityESt8equal_toIiESt4hashIiENS1_18_Mod_range_hashingENS1_20_Default_ranged_hashENS1_20_Prime_rehash_policyENS1_17_Hashtable_traitsILb0ELb1ELb1EEEEC1IN9__gnu_cxx17__normal_iteratorIPiSt6vectorIiS0_EEEEET_SK_yRKS6_RKS4_RKS0_"
 "_ZNSt10_HashtableIiiSaIiENSt8__detail9_IdentityESt8equal_toIiESt4hashIiENS1_18_Mod_range_hashingENS1_20_Default_ranged_hashENS1_20_Prime_rehash_policyENS1_17_Hashtable_traitsILb0ELb1ELb1EEEEC1IN9__gnu_cxx17__normal_iteratorIPiSt6vectorIiS0_EEEEET_SK_yRKS6_RKS4_RKS0_St17integral_constantIbLb1EE"
 "_ZNSt10_HashtableIiiSaIiENSt8__detail9_IdentityESt8equal_toIiESt4hashIiENS1_18_Mod_range_hashingENS1_20_Default_ranged_hashENS1_20_Prime_rehash_policyENS1_17_Hashtable_traitsILb0ELb1ELb1EEEEC1IN9__gnu_cxx17__normal_iteratorIPKiSt6vectorIiS0_EEEEET_SL_yRKS6_RKS4_RKS0_"
 "_ZNSt10_HashtableIiiSaIiENSt8__detail9_IdentityESt8equal_toIiESt4hashIiENS1_18_Mod_range_hashingENS1_20_Default_ranged_hashENS1_20_Prime_rehash_policyENS1_17_Hashtable_traitsILb0ELb1ELb1EEEEC1IN9__gnu_cxx17__normal_iteratorIPKiSt6vectorIiS0_EEEEET_SL_yRKS6_RKS4_RKS0_St17integral_constantIbLb1EE"
 "_ZNSt10_HashtableIiiSaIiENSt8__detail9_IdentityESt8equal_toIiESt4hashIiENS1_18_Mod_range_hashingENS1_20_Default_ranged_hashENS1_20_Prime_rehash_policyENS1_17_Hashtable_traitsILb0ELb1ELb1EEEED1Ev"
 "_ZNSt10_HashtableIiSt4pairIKiSt6vectorIS2_IiSaIiEESaIS4_EEESaIS7_ENSt8__detail10_Select1stESt8equal_toIiESt4hashIiENS9_18_Mod_range_hashingENS9_20_Default_ranged_hashENS9_20_Prime_rehash_policyENS9_17_Hashtable_traitsILb0ELb0ELb1EEEE12_Scoped_nodeC1IJRKSt21piecewise_construct_tSt5tupleIJOiEESQ_IJEEEEEPNS9_16_Hashtable_allocISaINS9_10_Hash_nodeIS7_Lb0EEEEEEDpOT_"
 "_ZNSt10_HashtableIiSt4pairIKiSt6vectorIS2_IiSaIiEESaIS4_EEESaIS7_ENSt8__detail10_Select1stESt8equal_toIiESt4hashIiENS9_18_Mod_range_hashingENS9_20_Default_ranged_hashENS9_20_Prime_rehash_policyENS9_17_Hashtable_traitsILb0ELb0ELb1EEEE12_Scoped_nodeC1IJRKSt21piecewise_construct_tSt5tupleIJRS1_EESQ_IJEEEEEPNS9_16_Hashtable_allocISaINS9_10_Hash_nodeIS7_Lb0EEEEEEDpOT_"
 "_ZNSt10_HashtableIiSt4pairIKiSt6vectorIS2_IiSaIiEESaIS4_EEESaIS7_ENSt8__detail10_Select1stESt8equal_toIiESt4hashIiENS9_18_Mod_range_hashingENS9_20_Default_ranged_hashENS9_20_Prime_rehash_policyENS9_17_Hashtable_traitsILb0ELb0ELb1EEEE12_Scoped_nodeD1Ev"
 "_ZNSt10_HashtableIiSt4pairIKiSt6vectorIS2_IiSaIiEESaIS4_EEESaIS7_ENSt8__detail10_Select1stESt8equal_toIiESt4hashIiENS9_18_Mod_range_hashingENS9_20_Default_ranged_hashENS9_20_Prime_rehash_policyENS9_17_Hashtable_traitsILb0ELb0ELb1EEEE19_M_allocate_bucketsEy"
 "_ZNSt10_HashtableIiSt4pairIKiSt6vectorIS2_IiSaIiEESaIS4_EEESaIS7_ENSt8__detail10_Select1stESt8equal_toIiESt4hashIiENS9_18_Mod_range_hashingENS9_20_Default_ranged_hashENS9_20_Prime_rehash_policyENS9_17_Hashtable_traitsILb0ELb0ELb1EEEE21_M_deallocate_bucketsEPPNS9_15_Hash_node_baseEy"
 "_ZNSt10_HashtableIiSt4pairIKiSt6vectorIS2_IiSaIiEESaIS4_EEESaIS7_ENSt8__detail10_Select1stESt8equal_toIiESt4hashIiENS9_18_Mod_range_hashingENS9_20_Default_ranged_hashENS9_20_Prime_rehash_policyENS9_17_Hashtable_traitsILb0ELb0ELb1EEEE21_M_deallocate_bucketsEv"
 "_ZNSt10_HashtableIiSt4pairIKiSt6vectorIS2_IiSaIiEESaIS4_EEESaIS7_ENSt8__detail10_Select1stESt8equal_toIiESt4hashIiENS9_18_Mod_range_hashingENS9_20_Default_ranged_hashENS9_20_Prime_rehash_policyENS9_17_Hashtable_traitsILb0ELb0ELb1EEEE21_M_insert_unique_nodeEyyPNS9_10_Hash_nodeIS7_Lb0EEEy"
 "_ZNSt10_HashtableIiSt4pairIKiSt6vectorIS2_IiSaIiEESaIS4_EEESaIS7_ENSt8__detail10_Select1stESt8equal_toIiESt4hashIiENS9_18_Mod_range_hashingENS9_20_Default_ranged_hashENS9_20_Prime_rehash_policyENS9_17_Hashtable_traitsILb0ELb0ELb1EEEE22_M_insert_bucket_beginEyPNS9_10_Hash_nodeIS7_Lb0EEE"
 "_ZNSt10_HashtableIiSt4pairIKiSt6vectorIS2_IiSaIiEESaIS4_EEESaIS7_ENSt8__detail10_Select1stESt8equal_toIiESt4hashIiENS9_18_Mod_range_hashingENS9_20_Default_ranged_hashENS9_20_Prime_rehash_policyENS9_17_Hashtable_traitsILb0ELb0ELb1EEEE5clearEv"
 "_ZNSt10_HashtableIiSt4pairIKiSt6vectorIS2_IiSaIiEESaIS4_EEESaIS7_ENSt8__detail10_Select1stESt8equal_toIiESt4hashIiENS9_18_Mod_range_hashingENS9_20_Default_ranged_hashENS9_20_Prime_rehash_policyENS9_17_Hashtable_traitsILb0ELb0ELb1EEEE9_M_rehashEySt17integral_constantIbLb1EE"
 "_ZNSt10_HashtableIiSt4pairIKiSt6vectorIS2_IiSaIiEESaIS4_EEESaIS7_ENSt8__detail10_Select1stESt8equal_toIiESt4hashIiENS9_18_Mod_range_hashingENS9_20_Default_ranged_hashENS9_20_Prime_rehash_policyENS9_17_Hashtable_traitsILb0ELb0ELb1EEEEC1Ev"
 "_ZNSt10_HashtableIiSt4pairIKiSt6vectorIS2_IiSaIiEESaIS4_EEESaIS7_ENSt8__detail10_Select1stESt8equal_toIiESt4hashIiENS9_18_Mod_range_hashingENS9_20_Default_ranged_hashENS9_20_Prime_rehash_policyENS9_17_Hashtable_traitsILb0ELb0ELb1EEEED1Ev"
 "_ZNSt10_Head_baseILy0EOiLb0EE7_M_headERS1_"
 "_ZNSt10_Head_baseILy0EOiLb0EEC2IiEEOT_"
 "_ZNSt10_Head_baseILy0ERKiLb0EE7_M_headERS2_"
 "_ZNSt10_Head_baseILy0ERKiLb0EEC2ES1_"
 "_ZNSt11__copy_moveILb0ELb0ESt20forward_iterator_tagE8__copy_mINSt8__detail14_Node_iteratorIiLb1ELb0EEEPiEET0_T_S8_S7_"
 "_ZNSt11__copy_moveILb0ELb0ESt26random_access_iterator_tagE12__assign_oneIddEEvPT_PT0_"
 "_ZNSt11__copy_moveILb0ELb0ESt26random_access_iterator_tagE12__assign_oneIdKdEEvPT_PT0_"
 "_ZNSt11__copy_moveILb0ELb0ESt26random_access_iterator_tagE12__assign_oneIiiEEvPT_PT0_"
 "_ZNSt11__copy_moveILb0ELb0ESt26random_access_iterator_tagE12__assign_oneIiKiEEvPT_PT0_"
 "_ZNSt11__copy_moveILb0ELb0ESt26random_access_iterator_tagE12__assign_oneIPiS3_EEvPT_PT0_"
 "_ZNSt11__copy_moveILb0ELb0ESt26random_access_iterator_tagE8__copy_mIPKSt6vectorIiSaIiEEPS5_EET0_T_SA_S9_"
 "_ZNSt11__copy_moveILb0ELb0ESt26random_access_iterator_tagE8__copy_mIPSt6vectorIiSaIiEES6_EET0_T_S8_S7_"
 "_ZNSt11__copy_moveILb0ELb1ESt26random_access_iterator_tagE8__copy_mIddEEPT0_PT_S6_S4_"
 "_ZNSt11__copy_moveILb0ELb1ESt26random_access_iterator_tagE8__copy_mIiiEEPT0_PT_S6_S4_"
 "_ZNSt11__copy_moveILb0ELb1ESt26random_access_iterator_tagE8__copy_mIKddEEPT0_PT_S7_S5_"
 "_ZNSt11__copy_moveILb0ELb1ESt26random_access_iterator_tagE8__copy_mIKiiEEPT0_PT_S7_S5_"
 "_ZNSt11__copy_moveILb0ELb1ESt26random_access_iterator_tagE8__copy_mIPiS3_EEPT0_PT_S7_S5_"
 "_ZNSt11__copy_moveILb1ELb0ESt26random_access_iterator_tagE12__assign_oneIiiEEvPT_PT0_"
 "_ZNSt11__copy_moveILb1ELb1ESt26random_access_iterator_tagE8__copy_mIiiEEPT0_PT_S6_S4_"
 "_ZNSt11_Deque_baseIiSaIiEE11_Deque_implC1Ev"
 "_ZNSt11_Deque_baseIiSaIiEE11_Deque_implD1Ev"
 "_ZNSt11_Deque_baseIiSaIiEE15_M_allocate_mapEy"
 "_ZNSt11_Deque_baseIiSaIiEE15_M_create_nodesEPPiS3_"
 "_ZNSt11_Deque_baseIiSaIiEE16_Deque_impl_dataC2Ev"
 "_ZNSt11_Deque_baseIiSaIiEE16_M_allocate_nodeEv"
 "_ZNSt11_Deque_baseIiSaIiEE16_M_destroy_nodesEPPiS3_"
 "_ZNSt11_Deque_baseIiSaIiEE17_M_deallocate_mapEPPiy"
 "_ZNSt11_Deque_baseIiSaIiEE17_M_initialize_mapEy"
 "_ZNSt11_Deque_baseIiSaIiEE18_M_deallocate_nodeEPi"
 "_ZNSt11_Deque_baseIiSaIiEE19_M_get_Tp_allocatorEv"
 "_ZNSt11_Deque_baseIiSaIiEEC2Ev"
 "_ZNSt11_Deque_baseIiSaIiEED2Ev"
 "_ZNSt11_Tuple_implILy0EJOiEE7_M_headERS1_"
 "_ZNSt11_Tuple_implILy0EJOiEEC2EOS1_"
 "_ZNSt11_Tuple_implILy0EJOiEEC2IiEEOT_"
 "_ZNSt11_Tuple_implILy0EJRKiEE7_M_headERS2_"
 "_ZNSt11_Tuple_implILy0EJRKiEEC2EOS2_"
 "_ZNSt11_Tuple_implILy0EJRKiEEC2ES1_"
 "_ZNSt12_Destroy_auxILb0EE9__destroyIN9__gnu_cxx17__normal_iteratorIPSt6vectorIiSaIiEES4_IS6_SaIS6_EEEEEEvT_SB_"
 "_ZNSt12_Destroy_auxILb0EE9__destroyIPSt6vectorIdSaIdEEEEvT_S6_"
 "_ZNSt12_Destroy_auxILb0EE9__destroyIPSt6vectorIiSaIiEEEEvT_S6_"
 "_ZNSt12_Destroy_auxILb0EE9__destroyIPSt6vectorIS2_IdSaIdEESaIS4_EEEEvT_S8_"
 "_ZNSt12_Destroy_auxILb1EE9__destroyIN9__gnu_cxx17__normal_iteratorIPdSt6vectorIdSaIdEEEEEEvT_S9_"
 "_ZNSt12_Destroy_auxILb1EE9__destroyIN9__gnu_cxx17__normal_iteratorIPiSt6vectorIiSaIiEEEEEEvT_S9_"
 "_ZNSt12_Destroy_auxILb1EE9__destroyIPdEEvT_S3_"
 "_ZNSt12_Destroy_auxILb1EE9__destroyIPiEEvT_S3_"
 "_ZNSt12_Destroy_auxILb1EE9__destroyIPyEEvT_S3_"
 "_ZNSt12_Vector_baseIdSaIdEE11_M_allocateEy"
 "_ZNSt12_Vector_baseIdSaIdEE12_Vector_implC1EOS2_"
 "_ZNSt12_Vector_baseIdSaIdEE12_Vector_implC1ERKS0_"
 "_ZNSt12_Vector_baseIdSaIdEE12_Vector_implC1Ev"
 "_ZNSt12_Vector_baseIdSaIdEE12_Vector_implD1Ev"
 "_ZNSt12_Vector_baseIdSaIdEE13_M_deallocateEPdy"
 "_ZNSt12_Vector_baseIdSaIdEE17_M_create_storageEy"
 "_ZNSt12_Vector_baseIdSaIdEE17_Vector_impl_dataC2EOS2_"
 "_ZNSt12_Vector_baseIdSaIdEE17_Vector_impl_dataC2Ev"
 "_ZNSt12_Vector_baseIdSaIdEE19_M_get_Tp_allocatorEv"
 "_ZNSt12_Vector_baseIdSaIdEEC2EOS1_"
 "_ZNSt12_Vector_baseIdSaIdEEC2Ev"
 "_ZNSt12_Vector_baseIdSaIdEEC2EyRKS0_"
 "_ZNSt12_Vector_baseIdSaIdEED2Ev"
 "_ZNSt12_Vector_baseIiSaIiEE11_M_allocateEy"
 "_ZNSt12_Vector_baseIiSaIiEE12_Vector_implC1EOS2_"
 "_ZNSt12_Vector_baseIiSaIiEE12_Vector_implC1ERKS0_"
 "_ZNSt12_Vector_baseIiSaIiEE12_Vector_implC1Ev"
 "_ZNSt12_Vector_baseIiSaIiEE12_Vector_implD1Ev"
 "_ZNSt12_Vector_baseIiSaIiEE13_M_deallocateEPiy"
 "_ZNSt12_Vector_baseIiSaIiEE17_M_create_storageEy"
 "_ZNSt12_Vector_baseIiSaIiEE17_Vector_impl_dataC2EOS2_"
 "_ZNSt12_Vector_baseIiSaIiEE17_Vector_impl_dataC2Ev"
 "_ZNSt12_Vector_baseIiSaIiEE19_M_get_Tp_allocatorEv"
 "_ZNSt12_Vector_baseIiSaIiEEC2EOS1_"
 "_ZNSt12_Vector_baseIiSaIiEEC2ERKS0_"
 "_ZNSt12_Vector_baseIiSaIiEEC2Ev"
 "_ZNSt12_Vector_baseIiSaIiEEC2EyRKS0_"
 "_ZNSt12_Vector_baseIiSaIiEED2Ev"
 "_ZNSt12_Vector_baseISt6vectorIdSaIdEESaIS2_EE11_M_allocateEy"
 "_ZNSt12_Vector_baseISt6vectorIdSaIdEESaIS2_EE12_Vector_implC1EOS5_"
 "_ZNSt12_Vector_baseISt6vectorIdSaIdEESaIS2_EE12_Vector_implC1ERKS3_"
 "_ZNSt12_Vector_baseISt6vectorIdSaIdEESaIS2_EE12_Vector_implC1Ev"
 "_ZNSt12_Vector_baseISt6vectorIdSaIdEESaIS2_EE12_Vector_implD1Ev"
 "_ZNSt12_Vector_baseISt6vectorIdSaIdEESaIS2_EE13_M_deallocateEPS2_y"
 "_ZNSt12_Vector_baseISt6vectorIdSaIdEESaIS2_EE17_M_create_storageEy"
 "_ZNSt12_Vector_baseISt6vectorIdSaIdEESaIS2_EE17_Vector_impl_dataC2EOS5_"
 "_ZNSt12_Vector_baseISt6vectorIdSaIdEESaIS2_EE17_Vector_impl_dataC2Ev"
 "_ZNSt12_Vector_baseISt6vectorIdSaIdEESaIS2_EE19_M_get_Tp_allocatorEv"
 "_ZNSt12_Vector_baseISt6vectorIdSaIdEESaIS2_EEC2EOS4_"
 "_ZNSt12_Vector_baseISt6vectorIdSaIdEESaIS2_EEC2Ev"
 "_ZNSt12_Vector_baseISt6vectorIdSaIdEESaIS2_EEC2EyRKS3_"
 "_ZNSt12_Vector_baseISt6vectorIdSaIdEESaIS2_EED2Ev"
 "_ZNSt12_Vector_baseISt6vectorIiSaIiEESaIS2_EE11_M_allocateEy"
 "_ZNSt12_Vector_baseISt6vectorIiSaIiEESaIS2_EE12_Vector_implC1EOS5_"
 "_ZNSt12_Vector_baseISt6vectorIiSaIiEESaIS2_EE12_Vector_implC1ERKS3_"
 "_ZNSt12_Vector_baseISt6vectorIiSaIiEESaIS2_EE12_Vector_implC1Ev"
 "_ZNSt12_Vector_baseISt6vectorIiSaIiEESaIS2_EE12_Vector_implD1Ev"
 "_ZNSt12_Vector_baseISt6vectorIiSaIiEESaIS2_EE13_M_deallocateEPS2_y"
 "_ZNSt12_Vector_baseISt6vectorIiSaIiEESaIS2_EE17_M_create_storageEy"
 "_ZNSt12_Vector_baseISt6vectorIiSaIiEESaIS2_EE17_Vector_impl_dataC2EOS5_"
 "_ZNSt12_Vector_baseISt6vectorIiSaIiEESaIS2_EE17_Vector_impl_dataC2Ev"
 "_ZNSt12_Vector_baseISt6vectorIiSaIiEESaIS2_EE19_M_get_Tp_allocatorEv"
 "_ZNSt12_Vector_baseISt6vectorIiSaIiEESaIS2_EEC2EOS4_"
 "_ZNSt12_Vector_baseISt6vectorIiSaIiEESaIS2_EEC2Ev"
 "_ZNSt12_Vector_baseISt6vectorIiSaIiEESaIS2_EEC2EyRKS3_"
 "_ZNSt12_Vector_baseISt6vectorIiSaIiEESaIS2_EED2Ev"
 "_ZNSt12_Vector_baseISt6vectorIS0_IdSaIdEESaIS2_EESaIS4_EE11_M_allocateEy"
 "_ZNSt12_Vector_baseISt6vectorIS0_IdSaIdEESaIS2_EESaIS4_EE12_Vector_implC1EOS7_"
 "_ZNSt12_Vector_baseISt6vectorIS0_IdSaIdEESaIS2_EESaIS4_EE12_Vector_implC1Ev"
 "_ZNSt12_Vector_baseISt6vectorIS0_IdSaIdEESaIS2_EESaIS4_EE12_Vector_implD1Ev"
 "_ZNSt12_Vector_baseISt6vectorIS0_IdSaIdEESaIS2_EESaIS4_EE13_M_deallocateEPS4_y"
 "_ZNSt12_Vector_baseISt6vectorIS0_IdSaIdEESaIS2_EESaIS4_EE17_Vector_impl_dataC2EOS7_"
 "_ZNSt12_Vector_baseISt6vectorIS0_IdSaIdEESaIS2_EESaIS4_EE17_Vector_impl_dataC2Ev"
 "_ZNSt12_Vector_baseISt6vectorIS0_IdSaIdEESaIS2_EESaIS4_EE19_M_get_Tp_allocatorEv"
 "_ZNSt12_Vector_baseISt6vectorIS0_IdSaIdEESaIS2_EESaIS4_EEC2EOS6_"
 "_ZNSt12_Vector_baseISt6vectorIS0_IdSaIdEESaIS2_EESaIS4_EEC2Ev"
 "_ZNSt12_Vector_baseISt6vectorIS0_IdSaIdEESaIS2_EESaIS4_EED2Ev"
 "_ZNSt12_Vector_baseIySaIyEE11_M_allocateEy"
 "_ZNSt12_Vector_baseIySaIyEE12_Vector_implC1Ev"
 "_ZNSt12_Vector_baseIySaIyEE12_Vector_implD1Ev"
 "_ZNSt12_Vector_baseIySaIyEE13_M_deallocateEPyy"
 "_ZNSt12_Vector_baseIySaIyEE17_Vector_impl_dataC2Ev"
 "_ZNSt12_Vector_baseIySaIyEE19_M_get_Tp_allocatorEv"
 "_ZNSt12_Vector_baseIySaIyEEC2Ev"
 "_ZNSt12_Vector_baseIySaIyEED2Ev"
 "_ZNSt13_Bit_iteratorC1EPmj"
 "_ZNSt13_Bit_iteratorC1Ev"
 "_ZNSt13_Bit_iteratorpLEx"
 "_ZNSt13_Bvector_baseISaIbEE11_M_allocateEy"
 "_ZNSt13_Bvector_baseISaIbEE13_Bvector_implC1ERKSaImE"
 "_ZNSt13_Bvector_baseISaIbEE13_Bvector_implD1Ev"
 "_ZNSt13_Bvector_baseISaIbEE13_M_deallocateEv"
 "_ZNSt13_Bvector_baseISaIbEE18_Bvector_impl_data8_M_resetEv"
 "_ZNSt13_Bvector_baseISaIbEE18_Bvector_impl_dataC1Ev"
 "_ZNSt13_Bvector_baseISaIbEE18_Bvector_impl_dataC2Ev"
 "_ZNSt13_Bvector_baseISaIbEE8_S_nwordEy"
 "_ZNSt13_Bvector_baseISaIbEEC2ERKS0_"
 "_ZNSt13_Bvector_baseISaIbEED2Ev"
 "_ZNSt13unordered_mapIiSt6vectorIS0_IiSaIiEESaIS2_EESt4hashIiESt8equal_toIiESaISt4pairIKiS4_EEEC1Ev"
 "_ZNSt13unordered_mapIiSt6vectorIS0_IiSaIiEESaIS2_EESt4hashIiESt8equal_toIiESaISt4pairIKiS4_EEED1Ev"
 "_ZNSt13unordered_mapIiSt6vectorIS0_IiSaIiEESaIS2_EESt4hashIiESt8equal_toIiESaISt4pairIKiS4_EEEixEOi"
 "_ZNSt13unordered_mapIiSt6vectorIS0_IiSaIiEESaIS2_EESt4hashIiESt8equal_toIiESaISt4pairIKiS4_EEEixERSA_"
 "_ZNSt13unordered_setIiSt4hashIiESt8equal_toIiESaIiEE3endEv"
 "_ZNSt13unordered_setIiSt4hashIiESt8equal_toIiESaIiEE4findERKi"
 "_ZNSt13unordered_setIiSt4hashIiESt8equal_toIiESaIiEE5beginEv"
 "_ZNSt13unordered_setIiSt4hashIiESt8equal_toIiESaIiEE6insertERKi"
 "_ZNSt13unordered_setIiSt4hashIiESt8equal_toIiESaIiEE6insertINSt8__detail14_Node_iteratorIiLb1ELb0EEEEEvT_SA_"
 "_ZNSt13unordered_setIiSt4hashIiESt8equal_toIiESaIiEEC1Ev"
 "_ZNSt13unordered_setIiSt4hashIiESt8equal_toIiESaIiEEC1IN9__gnu_cxx17__normal_iteratorIPiSt6vectorIiS4_EEEEET_SD_yRKS1_RKS3_RKS4_"
 "_ZNSt13unordered_setIiSt4hashIiESt8equal_toIiESaIiEEC1IN9__gnu_cxx17__normal_iteratorIPKiSt6vectorIiS4_EEEEET_SE_yRKS1_RKS3_RKS4_"
 "_ZNSt13unordered_setIiSt4hashIiESt8equal_toIiESaIiEED1Ev"
 "_ZNSt14_Bit_referenceaSEb"
 "_ZNSt14_Bit_referenceC1EPmm"
 "_ZNSt14numeric_limitsIdE9quiet_NaNEv"
 "_ZNSt14numeric_limitsIiE3minEv"
 "_ZNSt15__new_allocatorIbED2Ev"
 "_ZNSt15__new_allocatorIdE10deallocateEPdy"
 "_ZNSt15__new_allocatorIdE8allocateEyPKv"
 "_ZNSt15__new_allocatorIdED2Ev"
 "_ZNSt15__new_allocatorIiE10deallocateEPiy"
 "_ZNSt15__new_allocatorIiE8allocateEyPKv"
 "_ZNSt15__new_allocatorIiED2Ev"
 "_ZNSt15__new_allocatorImE10deallocateEPmy"
 "_ZNSt15__new_allocatorImE8allocateEyPKv"
 "_ZNSt15__new_allocatorImED2Ev"
 "_ZNSt15__new_allocatorINSt8__detail10_Hash_nodeIiLb0EEEE10deallocateEPS2_y"
 "_ZNSt15__new_allocatorINSt8__detail10_Hash_nodeIiLb0EEEE8allocateEyPKv"
 "_ZNSt15__new_allocatorINSt8__detail10_Hash_nodeIiLb0EEEED2Ev"
 "_ZNSt15__new_allocatorINSt8__detail10_Hash_nodeISt4pairIKiSt6vectorIS4_IiSaIiEESaIS6_EEELb0EEEE10deallocateEPSA_y"
 "_ZNSt15__new_allocatorINSt8__detail10_Hash_nodeISt4pairIKiSt6vectorIS4_IiSaIiEESaIS6_EEELb0EEEE8allocateEyPKv"
 "_ZNSt15__new_allocatorINSt8__detail10_Hash_nodeISt4pairIKiSt6vectorIS4_IiSaIiEESaIS6_EEELb0EEEED2Ev"
 "_ZNSt15__new_allocatorIPiE10deallocateEPS0_y"
 "_ZNSt15__new_allocatorIPiE8allocateEyPKv"
 "_ZNSt15__new_allocatorIPiED2Ev"
 "_ZNSt15__new_allocatorIPNSt8__detail15_Hash_node_baseEE10deallocateEPS2_y"
 "_ZNSt15__new_allocatorIPNSt8__detail15_Hash_node_baseEE8allocateEyPKv"
 "_ZNSt15__new_allocatorIPNSt8__detail15_Hash_node_baseEED2Ev"
 "_ZNSt15__new_allocatorISt6vectorIdSaIdEEE10deallocateEPS2_y"
 "_ZNSt15__new_allocatorISt6vectorIdSaIdEEE8allocateEyPKv"
 "_ZNSt15__new_allocatorISt6vectorIdSaIdEEED2Ev"
 "_ZNSt15__new_allocatorISt6vectorIiSaIiEEE10deallocateEPS2_y"
 "_ZNSt15__new_allocatorISt6vectorIiSaIiEEE8allocateEyPKv"
 "_ZNSt15__new_allocatorISt6vectorIiSaIiEEED2Ev"
 "_ZNSt15__new_allocatorISt6vectorIS0_IdSaIdEESaIS2_EEE10deallocateEPS4_y"
 "_ZNSt15__new_allocatorISt6vectorIS0_IdSaIdEESaIS2_EEE8allocateEyPKv"
 "_ZNSt15__new_allocatorISt6vectorIS0_IdSaIdEESaIS2_EEED2Ev"
 "_ZNSt15__new_allocatorIyE10deallocateEPyy"
 "_ZNSt15__new_allocatorIyE8allocateEyPKv"
 "_ZNSt15__new_allocatorIyED2Ev"
 "_ZNSt15_Deque_iteratorIiRiPiE11_M_set_nodeEPS1_"
 "_ZNSt15_Deque_iteratorIiRiPiE14_S_buffer_sizeEv"
 "_ZNSt15_Deque_iteratorIiRiPiEC1ERKS2_"
 "_ZNSt15_Deque_iteratorIiRiPiEC1Ev"
 "_ZNSt18_Bit_iterator_base7_M_incrEx"
 "_ZNSt18_Bit_iterator_baseC2EPmj"
 "_ZNSt19__ptr_traits_ptr_toIPNSt8__detail10_Hash_nodeIiLb0EEES2_Lb0EE10pointer_toERS2_"
 "_ZNSt19__ptr_traits_ptr_toIPNSt8__detail10_Hash_nodeISt4pairIKiSt6vectorIS4_IiSaIiEESaIS6_EEELb0EEESA_Lb0EE10pointer_toERSA_"
 "_ZNSt19__ptr_traits_ptr_toIPPNSt8__detail15_Hash_node_baseES2_Lb0EE10pointer_toERS2_"
 "_ZNSt20__copy_move_backwardILb0ELb1ESt26random_access_iterator_tagE13__copy_move_bIPiS3_EEPT0_PT_S7_S5_"
 "_ZNSt20__copy_move_backwardILb1ELb1ESt26random_access_iterator_tagE13__copy_move_bIiiEEPT0_PT_S6_S4_"
 "_ZNSt20__uninitialized_copyILb0EE13__uninit_copyIN9__gnu_cxx17__normal_iteratorIPKSt6vectorIiSaIiEES4_IS6_SaIS6_EEEEPS6_EET0_T_SE_SD_"
 "_ZNSt20__uninitialized_copyILb0EE13__uninit_copyIPSt6vectorIiSaIiEES5_EET0_T_S7_S6_"
 "_ZNSt20__uninitialized_copyILb1EE13__uninit_copyIN9__gnu_cxx17__normal_iteratorIPKdSt6vectorIdSaIdEEEEPdEET0_T_SC_SB_"
 "_ZNSt20__uninitialized_copyILb1EE13__uninit_copyIN9__gnu_cxx17__normal_iteratorIPKiSt6vectorIiSaIiEEEEPiEET0_T_SC_SB_"
 "_ZNSt20__uninitialized_copyILb1EE13__uninit_copyINSt8__detail14_Node_iteratorIiLb1ELb0EEEPiEET0_T_S7_S6_"
 "_ZNSt20__uninitialized_copyILb1EE13__uninit_copyIPdS2_EET0_T_S4_S3_"
 "_ZNSt20__uninitialized_copyILb1EE13__uninit_copyIPiS2_EET0_T_S4_S3_"
 "_ZNSt20__uninitialized_copyILb1EE13__uninit_copyIPKiPiEET0_T_S6_S5_"
 "_ZNSt22__uninitialized_fill_nILb0EE15__uninit_fill_nIPSt6vectorIdSaIdEEyS4_EET_S6_T0_RKT1_"
 "_ZNSt22__uninitialized_fill_nILb1EE15__uninit_fill_nIPdydEET_S3_T0_RKT1_"
 "_ZNSt22__uninitialized_fill_nILb1EE15__uninit_fill_nIPiyiEET_S3_T0_RKT1_"
 "_ZNSt27__uninitialized_default_n_1ILb0EE18__uninit_default_nIPSt6vectorIdSaIdEEyEET_S6_T0_"
 "_ZNSt27__uninitialized_default_n_1ILb0EE18__uninit_default_nIPSt6vectorIiSaIiEEyEET_S6_T0_"
 "_ZNSt27__uninitialized_default_n_1ILb1EE18__uninit_default_nIPdyEET_S3_T0_"
 "_ZNSt27__uninitialized_default_n_1ILb1EE18__uninit_default_nIPiyEET_S3_T0_"
 "_ZNSt27_Enable_default_constructorILb1ENSt8__detail15_Hash_node_baseEEC2ESt31_Enable_default_constructor_tag"
 "_ZNSt4pairIKiSt6vectorIS1_IiSaIiEESaIS3_EEEC1IJOiEJEEESt21piecewise_construct_tSt5tupleIJDpT_EESA_IJDpT0_EE"
 "_ZNSt4pairIKiSt6vectorIS1_IiSaIiEESaIS3_EEEC1IJOiEJLy0EEJEJEEERSt5tupleIJDpT_EERS9_IJDpT1_EESt12_Index_tupleIJXspT0_EEESI_IJXspT2_EEE"
 "_ZNSt4pairIKiSt6vectorIS1_IiSaIiEESaIS3_EEEC1IJRS0_EJEEESt21piecewise_construct_tSt5tupleIJDpT_EESA_IJDpT0_EE"
 "_ZNSt4pairIKiSt6vectorIS1_IiSaIiEESaIS3_EEEC1IJRS0_EJLy0EEJEJEEERSt5tupleIJDpT_EERS9_IJDpT1_EESt12_Index_tupleIJXspT0_EEESI_IJXspT2_EEE"
 "_ZNSt4pairIKiSt6vectorIS1_IiSaIiEESaIS3_EEED1Ev"
 "_ZNSt4pairINSt8__detail14_Node_iteratorIiLb1ELb0EEEbEC1IRS2_bLb1EEEOT_OT0_"
 "_ZNSt4pairINSt8__detail14_Node_iteratorIiLb1ELb0EEEbEC1IS2_bLb1EEEOT_OT0_"
 "_ZNSt5dequeIiSaIiEE11_S_max_sizeERKS0_"
 "_ZNSt5dequeIiSaIiEE15_M_destroy_dataESt15_Deque_iteratorIiRiPiES5_RKS0_"
 "_ZNSt5dequeIiSaIiEE16_M_pop_front_auxEv"
 "_ZNSt5dequeIiSaIiEE16_M_push_back_auxIJRKiEEEvDpOT_"
 "_ZNSt5dequeIiSaIiEE17_M_reallocate_mapEyb"
 "_ZNSt5dequeIiSaIiEE22_M_reserve_map_at_backEy"
 "_ZNSt5dequeIiSaIiEE3endEv"
 "_ZNSt5dequeIiSaIiEE5beginEv"
 "_ZNSt5dequeIiSaIiEE5frontEv"
 "_ZNSt5dequeIiSaIiEE9pop_frontEv"
 "_ZNSt5dequeIiSaIiEE9push_backERKi"
 "_ZNSt5dequeIiSaIiEEC1Ev"
 "_ZNSt5dequeIiSaIiEED1Ev"
 "_ZNSt5queueIiSt5dequeIiSaIiEEE3popEv"
 "_ZNSt5queueIiSt5dequeIiSaIiEEE4pushERKi"
 "_ZNSt5queueIiSt5dequeIiSaIiEEE5frontEv"
 "_ZNSt5queueIiSt5dequeIiSaIiEEEC1IS2_vEEv"
 "_ZNSt5queueIiSt5dequeIiSaIiEEED1Ev"
 "_ZNSt5tupleIJOiEEC1EOS1_"
 "_ZNSt5tupleIJOiEEC1IJiELb1ELb1EEEDpOT_"
 "_ZNSt5tupleIJRKiEEC1EOS2_"
 "_ZNSt5tupleIJRKiEEC1ILb1ELb1EEES1_"
 "_ZNSt6vectorIbSaIbEE13_M_initializeEy"
 "_ZNSt6vectorIbSaIbEE19_M_initialize_valueEb"
 "_ZNSt6vectorIbSaIbEE5beginEv"
 "_ZNSt6vectorIbSaIbEEC1EyRKbRKS0_"
 "_ZNSt6vectorIbSaIbEED1Ev"
 "_ZNSt6vectorIbSaIbEEixEy"
 "_ZNSt6vectorIdSaIdEE11_S_max_sizeERKS0_"
 "_ZNSt6vectorIdSaIdEE11_S_relocateEPdS2_S2_RS0_"
 "_ZNSt6vectorIdSaIdEE12emplace_backIJdEEERdDpOT_"
 "_ZNSt6vectorIdSaIdEE15_M_erase_at_endEPd"
 "_ZNSt6vectorIdSaIdEE17_M_realloc_appendIJdEEEvDpOT_"
 "_ZNSt6vectorIdSaIdEE17_M_realloc_appendIJRKdEEEvDpOT_"
 "_ZNSt6vectorIdSaIdEE17_S_check_init_lenEyRKS0_"
 "_ZNSt6vectorIdSaIdEE18_M_fill_initializeEyRKd"
 "_ZNSt6vectorIdSaIdEE20_M_allocate_and_copyIN9__gnu_cxx17__normal_iteratorIPKdS1_EEEEPdyT_S9_"
 "_ZNSt6vectorIdSaIdEE21_M_default_initializeEy"
 "_ZNSt6vectorIdSaIdEE3endEv"
 "_ZNSt6vectorIdSaIdEE4backEv"
 "_ZNSt6vectorIdSaIdEE5beginEv"
 "_ZNSt6vectorIdSaIdEE5clearEv"
 "_ZNSt6vectorIdSaIdEE9push_backEOd"
 "_ZNSt6vectorIdSaIdEE9push_backERKd"
 "_ZNSt6vectorIdSaIdEEaSERKS1_"
 "_ZNSt6vectorIdSaIdEEC1EOS1_"
 "_ZNSt6vectorIdSaIdEEC1ERKS1_"
 "_ZNSt6vectorIdSaIdEEC1Ev"
 "_ZNSt6vectorIdSaIdEEC1EyRKdRKS0_"
 "_ZNSt6vectorIdSaIdEEC1EyRKS0_"
 "_ZNSt6vectorIdSaIdEED1Ev"
 "_ZNSt6vectorIdSaIdEEixEy"
 "_ZNSt6vectorIiSaIiEE11_S_max_sizeERKS0_"
 "_ZNSt6vectorIiSaIiEE11_S_relocateEPiS2_S2_RS0_"
 "_ZNSt6vectorIiSaIiEE12emplace_backIJiEEERiDpOT_"
 "_ZNSt6vectorIiSaIiEE15_M_erase_at_endEPi"
 "_ZNSt6vectorIiSaIiEE17_M_default_appendEy"
 "_ZNSt6vectorIiSaIiEE17_M_realloc_appendIJiEEEvDpOT_"
 "_ZNSt6vectorIiSaIiEE17_M_realloc_appendIJRKiEEEvDpOT_"
 "_ZNSt6vectorIiSaIiEE17_S_check_init_lenEyRKS0_"
 "_ZNSt6vectorIiSaIiEE18_M_fill_initializeEyRKi"
 "_ZNSt6vectorIiSaIiEE19_M_range_initializeINSt8__detail14_Node_iteratorIiLb1ELb0EEEEEvT_S6_St20forward_iterator_tag"
 "_ZNSt6vectorIiSaIiEE20_M_allocate_and_copyIN9__gnu_cxx17__normal_iteratorIPKiS1_EEEEPiyT_S9_"
 "_ZNSt6vectorIiSaIiEE21_M_range_initialize_nINSt8__detail14_Node_iteratorIiLb1ELb0EEEEEvT_S6_y"
 "_ZNSt6vectorIiSaIiEE21_M_range_initialize_nIPKiEEvT_S5_y"
 "_ZNSt6vectorIiSaIiEE3endEv"
 "_ZNSt6vectorIiSaIiEE4backEv"
 "_ZNSt6vectorIiSaIiEE5beginEv"
 "_ZNSt6vectorIiSaIiEE5clearEv"
 "_ZNSt6vectorIiSaIiEE5eraseEN9__gnu_cxx17__normal_iteratorIPKiS1_EES6_"
 "_ZNSt6vectorIiSaIiEE6resizeEy"
 "_ZNSt6vectorIiSaIiEE8_M_eraseEN9__gnu_cxx17__normal_iteratorIPiS1_EES5_"
 "_ZNSt6vectorIiSaIiEE9push_backEOi"
 "_ZNSt6vectorIiSaIiEE9push_backERKi"
 "_ZNSt6vectorIiSaIiEEaSERKS1_"
 "_ZNSt6vectorIiSaIiEEC1EOS1_"
 "_ZNSt6vectorIiSaIiEEC1ERKS1_"
 "_ZNSt6vectorIiSaIiEEC1ESt16initializer_listIiERKS0_"
 "_ZNSt6vectorIiSaIiEEC1Ev"
 "_ZNSt6vectorIiSaIiEEC1EyRKiRKS0_"
 "_ZNSt6vectorIiSaIiEEC1INSt8__detail14_Node_iteratorIiLb1ELb0EEEvEET_S6_RKS0_"
 "_ZNSt6vectorIiSaIiEED1Ev"
 "_ZNSt6vectorIiSaIiEEixEy"
 "_ZNSt6vectorIS_IdSaIdEESaIS1_EE11_S_max_sizeERKS2_"
 "_ZNSt6vectorIS_IdSaIdEESaIS1_EE11_S_relocateEPS1_S4_S4_RS2_"
 "_ZNSt6vectorIS_IdSaIdEESaIS1_EE12emplace_backIJS1_EEERS1_DpOT_"
 "_ZNSt6vectorIS_IdSaIdEESaIS1_EE17_M_realloc_appendIJS1_EEEvDpOT_"
 "_ZNSt6vectorIS_IdSaIdEESaIS1_EE17_S_check_init_lenEyRKS2_"
 "_ZNSt6vectorIS_IdSaIdEESaIS1_EE18_M_fill_initializeEyRKS1_"
 "_ZNSt6vectorIS_IdSaIdEESaIS1_EE21_M_default_initializeEy"
 "_ZNSt6vectorIS_IdSaIdEESaIS1_EE3endEv"
 "_ZNSt6vectorIS_IdSaIdEESaIS1_EE4backEv"
 "_ZNSt6vectorIS_IdSaIdEESaIS1_EE5beginEv"
 "_ZNSt6vectorIS_IdSaIdEESaIS1_EE7reserveEy"
 "_ZNSt6vectorIS_IdSaIdEESaIS1_EE9push_backEOS1_"
 "_ZNSt6vectorIS_IdSaIdEESaIS1_EEC1EOS3_"
 "_ZNSt6vectorIS_IdSaIdEESaIS1_EEC1Ev"
 "_ZNSt6vectorIS_IdSaIdEESaIS1_EEC1EyRKS1_RKS2_"
 "_ZNSt6vectorIS_IdSaIdEESaIS1_EEC1EyRKS2_"
 "_ZNSt6vectorIS_IdSaIdEESaIS1_EED1Ev"
 "_ZNSt6vectorIS_IdSaIdEESaIS1_EEixEy"
 "_ZNSt6vectorIS_IiSaIiEESaIS1_EE11_S_max_sizeERKS2_"
 "_ZNSt6vectorIS_IiSaIiEESaIS1_EE11_S_relocateEPS1_S4_S4_RS2_"
 "_ZNSt6vectorIS_IiSaIiEESaIS1_EE12emplace_backIJS1_EEERS1_DpOT_"
 "_ZNSt6vectorIS_IiSaIiEESaIS1_EE15_M_erase_at_endEPS1_"
 "_ZNSt6vectorIS_IiSaIiEESaIS1_EE17_M_realloc_appendIJRKS1_EEEvDpOT_"
 "_ZNSt6vectorIS_IiSaIiEESaIS1_EE17_M_realloc_appendIJS1_EEEvDpOT_"
 "_ZNSt6vectorIS_IiSaIiEESaIS1_EE17_S_check_init_lenEyRKS2_"
 "_ZNSt6vectorIS_IiSaIiEESaIS1_EE20_M_allocate_and_copyIN9__gnu_cxx17__normal_iteratorIPKS1_S3_EEEEPS1_yT_SB_"
 "_ZNSt6vectorIS_IiSaIiEESaIS1_EE21_M_default_initializeEy"
 "_ZNSt6vectorIS_IiSaIiEESaIS1_EE3endEv"
 "_ZNSt6vectorIS_IiSaIiEESaIS1_EE4backEv"
 "_ZNSt6vectorIS_IiSaIiEESaIS1_EE5beginEv"
 "_ZNSt6vectorIS_IiSaIiEESaIS1_EE5clearEv"
 "_ZNSt6vectorIS_IiSaIiEESaIS1_EE7reserveEy"
 "_ZNSt6vectorIS_IiSaIiEESaIS1_EE9push_backEOS1_"
 "_ZNSt6vectorIS_IiSaIiEESaIS1_EE9push_backERKS1_"
 "_ZNSt6vectorIS_IiSaIiEESaIS1_EEaSERKS3_"
 "_ZNSt6vectorIS_IiSaIiEESaIS1_EEC1EOS3_"
 "_ZNSt6vectorIS_IiSaIiEESaIS1_EEC1ERKS3_"
 "_ZNSt6vectorIS_IiSaIiEESaIS1_EEC1Ev"
 "_ZNSt6vectorIS_IiSaIiEESaIS1_EEC1EyRKS2_"
 "_ZNSt6vectorIS_IiSaIiEESaIS1_EED1Ev"
 "_ZNSt6vectorIS_IiSaIiEESaIS1_EEixEy"
 "_ZNSt6vectorIS_IS_IdSaIdEESaIS1_EESaIS3_EE11_S_max_sizeERKS4_"
 "_ZNSt6vectorIS_IS_IdSaIdEESaIS1_EESaIS3_EE11_S_relocateEPS3_S6_S6_RS4_"
 "_ZNSt6vectorIS_IS_IdSaIdEESaIS1_EESaIS3_EE12emplace_backIJS3_EEERS3_DpOT_"
 "_ZNSt6vectorIS_IS_IdSaIdEESaIS1_EESaIS3_EE17_M_realloc_appendIJS3_EEEvDpOT_"
 "_ZNSt6vectorIS_IS_IdSaIdEESaIS1_EESaIS3_EE3endEv"
 "_ZNSt6vectorIS_IS_IdSaIdEESaIS1_EESaIS3_EE4backEv"
 "_ZNSt6vectorIS_IS_IdSaIdEESaIS1_EESaIS3_EE5beginEv"
 "_ZNSt6vectorIS_IS_IdSaIdEESaIS1_EESaIS3_EE7reserveEy"
 "_ZNSt6vectorIS_IS_IdSaIdEESaIS1_EESaIS3_EE9push_backEOS3_"
 "_ZNSt6vectorIS_IS_IdSaIdEESaIS1_EESaIS3_EEC1EOS5_"
 "_ZNSt6vectorIS_IS_IdSaIdEESaIS1_EESaIS3_EEC1Ev"
 "_ZNSt6vectorIS_IS_IdSaIdEESaIS1_EESaIS3_EED1Ev"
 "_ZNSt6vectorIS_IS_IdSaIdEESaIS1_EESaIS3_EEixEy"
 "_ZNSt6vectorIySaIyEE11_S_max_sizeERKS0_"
 "_ZNSt6vectorIySaIyEE11_S_relocateEPyS2_S2_RS0_"
 "_ZNSt6vectorIySaIyEE17_M_realloc_appendIJRKyEEEvDpOT_"
 "_ZNSt6vectorIySaIyEE3endEv"
 "_ZNSt6vectorIySaIyEE5beginEv"
 "_ZNSt6vectorIySaIyEE9push_backERKy"
 "_ZNSt6vectorIySaIyEEC1Ev"
 "_ZNSt6vectorIySaIyEED1Ev"
 "_ZNSt8__detail10_AllocNodeISaINS_10_Hash_nodeIiLb0EEEEEC1ERNS_16_Hashtable_allocIS3_EE"
 "_ZNSt8__detail10_Hash_nodeIiLb0EEC1Ev"
 "_ZNSt8__detail10_Hash_nodeISt4pairIKiSt6vectorIS3_IiSaIiEESaIS5_EEELb0EEC1Ev"
 "_ZNSt8__detail12_Insert_baseIiiSaIiENS_9_IdentityESt8equal_toIiESt4hashIiENS_18_Mod_range_hashingENS_20_Default_ranged_hashENS_20_Prime_rehash_policyENS_17_Hashtable_traitsILb0ELb1ELb1EEEE15_M_insert_rangeIN9__gnu_cxx17__normal_iteratorIPiSt6vectorIiS1_EEENS_10_AllocNodeISaINS_10_Hash_nodeIiLb0EEEEEEEEvT_SP_RKT0_St17integral_constantIbLb1EE"
 "_ZNSt8__detail12_Insert_baseIiiSaIiENS_9_IdentityESt8equal_toIiESt4hashIiENS_18_Mod_range_hashingENS_20_Default_ranged_hashENS_20_Prime_rehash_policyENS_17_Hashtable_traitsILb0ELb1ELb1EEEE15_M_insert_rangeIN9__gnu_cxx17__normal_iteratorIPKiSt6vectorIiS1_EEENS_10_AllocNodeISaINS_10_Hash_nodeIiLb0EEEEEEEEvT_SQ_RKT0_St17integral_constantIbLb1EE"
 "_ZNSt8__detail12_Insert_baseIiiSaIiENS_9_IdentityESt8equal_toIiESt4hashIiENS_18_Mod_range_hashingENS_20_Default_ranged_hashENS_20_Prime_rehash_policyENS_17_Hashtable_traitsILb0ELb1ELb1EEEE15_M_insert_rangeINS_14_Node_iteratorIiLb1ELb0EEENS_10_AllocNodeISaINS_10_Hash_nodeIiLb0EEEEEEEEvT_SL_RKT0_St17integral_constantIbLb1EE"
 "_ZNSt8__detail12_Insert_baseIiiSaIiENS_9_IdentityESt8equal_toIiESt4hashIiENS_18_Mod_range_hashingENS_20_Default_ranged_hashENS_20_Prime_rehash_policyENS_17_Hashtable_traitsILb0ELb1ELb1EEEE20_M_conjure_hashtableEv"
 "_ZNSt8__detail12_Insert_baseIiiSaIiENS_9_IdentityESt8equal_toIiESt4hashIiENS_18_Mod_range_hashingENS_20_Default_ranged_hashENS_20_Prime_rehash_policyENS_17_Hashtable_traitsILb0ELb1ELb1EEEE6insertERKi"
 "_ZNSt8__detail12_Insert_baseIiiSaIiENS_9_IdentityESt8equal_toIiESt4hashIiENS_18_Mod_range_hashingENS_20_Default_ranged_hashENS_20_Prime_rehash_policyENS_17_Hashtable_traitsILb0ELb1ELb1EEEE6insertIN9__gnu_cxx17__normal_iteratorIPiSt6vectorIiS1_EEEEEvT_SK_"
 "_ZNSt8__detail12_Insert_baseIiiSaIiENS_9_IdentityESt8equal_toIiESt4hashIiENS_18_Mod_range_hashingENS_20_Default_ranged_hashENS_20_Prime_rehash_policyENS_17_Hashtable_traitsILb0ELb1ELb1EEEE6insertIN9__gnu_cxx17__normal_iteratorIPKiSt6vectorIiS1_EEEEEvT_SL_"
 "_ZNSt8__detail12_Insert_baseIiiSaIiENS_9_IdentityESt8equal_toIiESt4hashIiENS_18_Mod_range_hashingENS_20_Default_ranged_hashENS_20_Prime_rehash_policyENS_17_Hashtable_traitsILb0ELb1ELb1EEEE6insertINS_14_Node_iteratorIiLb1ELb0EEEEEvT_SG_"
 "_ZNSt8__detail12_NodeBuilderINS_9_IdentityEE8_S_buildIRiS4_NS_10_AllocNodeISaINS_10_Hash_nodeIiLb0EEEEEEEENT1_10__node_ptrEOT_OT0_RKSA_"
 "_ZNSt8__detail12_NodeBuilderINS_9_IdentityEE8_S_buildIRKiS5_NS_10_AllocNodeISaINS_10_Hash_nodeIiLb0EEEEEEEENT1_10__node_ptrEOT_OT0_RKSB_"
 "_ZNSt8__detail14_Node_iteratorIiLb1ELb0EEC1EPNS_10_Hash_nodeIiLb0EEE"
 "_ZNSt8__detail14_Node_iteratorIiLb1ELb0EEppEv"
 "_ZNSt8__detail14_Node_iteratorISt4pairIKiSt6vectorIS3_IiSaIiEESaIS5_EEELb0ELb0EEC1EPNS_10_Hash_nodeIS8_Lb0EEE"
 "_ZNSt8__detail15_Hash_code_baseIiiNS_9_IdentityESt4hashIiENS_18_Mod_range_hashingENS_20_Default_ranged_hashELb0EEC2ERKS3_"
 "_ZNSt8__detail15_Hash_code_baseIiiNS_9_IdentityESt4hashIiENS_18_Mod_range_hashingENS_20_Default_ranged_hashELb0EEC2Ev"
 "_ZNSt8__detail15_Hash_code_baseIiSt4pairIKiSt6vectorIS3_IiSaIiEESaIS5_EEENS_10_Select1stESt4hashIiENS_18_Mod_range_hashingENS_20_Default_ranged_hashELb0EEC2Ev"
 "_ZNSt8__detail15_Hash_node_baseC1Ev"
 "_ZNSt8__detail15_Hash_node_baseC2Ev"
 "_ZNSt8__detail15_Hashtable_baseIiiNS_9_IdentityESt8equal_toIiESt4hashIiENS_18_Mod_range_hashingENS_20_Default_ranged_hashENS_17_Hashtable_traitsILb0ELb1ELb1EEEE9_S_equalsEyRKNS_21_Hash_node_code_cacheILb0EEE"
 "_ZNSt8__detail15_Hashtable_baseIiiNS_9_IdentityESt8equal_toIiESt4hashIiENS_18_Mod_range_hashingENS_20_Default_ranged_hashENS_17_Hashtable_traitsILb0ELb1ELb1EEEEC2ERKS5_RKS3_"
 "_ZNSt8__detail15_Hashtable_baseIiiNS_9_IdentityESt8equal_toIiESt4hashIiENS_18_Mod_range_hashingENS_20_Default_ranged_hashENS_17_Hashtable_traitsILb0ELb1ELb1EEEEC2Ev"
 "_ZNSt8__detail15_Hashtable_baseIiSt4pairIKiSt6vectorIS3_IiSaIiEESaIS5_EEENS_10_Select1stESt8equal_toIiESt4hashIiENS_18_Mod_range_hashingENS_20_Default_ranged_hashENS_17_Hashtable_traitsILb0ELb0ELb1EEEE9_S_equalsEyRKNS_21_Hash_node_code_cacheILb0EEE"
 "_ZNSt8__detail15_Hashtable_baseIiSt4pairIKiSt6vectorIS3_IiSaIiEESaIS5_EEENS_10_Select1stESt8equal_toIiESt4hashIiENS_18_Mod_range_hashingENS_20_Default_ranged_hashENS_17_Hashtable_traitsILb0ELb0ELb1EEEEC2Ev"
 "_ZNSt8__detail16_Hashtable_allocISaINS_10_Hash_nodeIiLb0EEEEE16_M_allocate_nodeIJRiEEEPS2_DpOT_"
 "_ZNSt8__detail16_Hashtable_allocISaINS_10_Hash_nodeIiLb0EEEEE16_M_allocate_nodeIJRKiEEEPS2_DpOT_"
 "_ZNSt8__detail16_Hashtable_allocISaINS_10_Hash_nodeIiLb0EEEEE17_M_node_allocatorEv"
 "_ZNSt8__detail16_Hashtable_allocISaINS_10_Hash_nodeIiLb0EEEEE18_M_deallocate_nodeEPS2_"
 "_ZNSt8__detail16_Hashtable_allocISaINS_10_Hash_nodeIiLb0EEEEE19_M_allocate_bucketsEy"
 "_ZNSt8__detail16_Hashtable_allocISaINS_10_Hash_nodeIiLb0EEEEE19_M_deallocate_nodesEPS2_"
 "_ZNSt8__detail16_Hashtable_allocISaINS_10_Hash_nodeIiLb0EEEEE21_M_deallocate_bucketsEPPNS_15_Hash_node_baseEy"
 "_ZNSt8__detail16_Hashtable_allocISaINS_10_Hash_nodeIiLb0EEEEE22_M_deallocate_node_ptrEPS2_"
 "_ZNSt8__detail16_Hashtable_allocISaINS_10_Hash_nodeIiLb0EEEEEC2Ev"
 "_ZNSt8__detail16_Hashtable_allocISaINS_10_Hash_nodeIiLb0EEEEEC2IS3_EEOT_"
 "_ZNSt8__detail16_Hashtable_allocISaINS_10_Hash_nodeIiLb0EEEEED2Ev"
 "_ZNSt8__detail16_Hashtable_allocISaINS_10_Hash_nodeISt4pairIKiSt6vectorIS4_IiSaIiEESaIS6_EEELb0EEEEE16_M_allocate_nodeIJRKSt21piecewise_construct_tSt5tupleIJOiEESH_IJEEEEEPSA_DpOT_"
 "_ZNSt8__detail16_Hashtable_allocISaINS_10_Hash_nodeISt4pairIKiSt6vectorIS4_IiSaIiEESaIS6_EEELb0EEEEE16_M_allocate_nodeIJRKSt21piecewise_construct_tSt5tupleIJRS3_EESH_IJEEEEEPSA_DpOT_"
 "_ZNSt8__detail16_Hashtable_allocISaINS_10_Hash_nodeISt4pairIKiSt6vectorIS4_IiSaIiEESaIS6_EEELb0EEEEE17_M_node_allocatorEv"
 "_ZNSt8__detail16_Hashtable_allocISaINS_10_Hash_nodeISt4pairIKiSt6vectorIS4_IiSaIiEESaIS6_EEELb0EEEEE18_M_deallocate_nodeEPSA_"
 "_ZNSt8__detail16_Hashtable_allocISaINS_10_Hash_nodeISt4pairIKiSt6vectorIS4_IiSaIiEESaIS6_EEELb0EEEEE19_M_allocate_bucketsEy"
 "_ZNSt8__detail16_Hashtable_allocISaINS_10_Hash_nodeISt4pairIKiSt6vectorIS4_IiSaIiEESaIS6_EEELb0EEEEE19_M_deallocate_nodesEPSA_"
 "_ZNSt8__detail16_Hashtable_allocISaINS_10_Hash_nodeISt4pairIKiSt6vectorIS4_IiSaIiEESaIS6_EEELb0EEEEE21_M_deallocate_bucketsEPPNS_15_Hash_node_baseEy"
 "_ZNSt8__detail16_Hashtable_allocISaINS_10_Hash_nodeISt4pairIKiSt6vectorIS4_IiSaIiEESaIS6_EEELb0EEEEE22_M_deallocate_node_ptrEPSA_"
 "_ZNSt8__detail16_Hashtable_allocISaINS_10_Hash_nodeISt4pairIKiSt6vectorIS4_IiSaIiEESaIS6_EEELb0EEEEEC2Ev"
 "_ZNSt8__detail16_Hashtable_allocISaINS_10_Hash_nodeISt4pairIKiSt6vectorIS4_IiSaIiEESaIS6_EEELb0EEEEED2Ev"
 "_ZNSt8__detail17_RehashStateGuardINS_20_Prime_rehash_policyEEC1ERS1_"
 "_ZNSt8__detail17_RehashStateGuardINS_20_Prime_rehash_policyEED1Ev"
 "_ZNSt8__detail19_Node_iterator_baseIiLb0EE7_M_incrEv"
 "_ZNSt8__detail19_Node_iterator_baseIiLb0EEC2EPNS_10_Hash_nodeIiLb0EEE"
 "_ZNSt8__detail19_Node_iterator_baseISt4pairIKiSt6vectorIS3_IiSaIiEESaIS5_EEELb0EEC2EPNS_10_Hash_nodeIS8_Lb0EEE"
 "_ZNSt8__detail20_Node_const_iteratorIiLb1ELb0EEC1EPNS_10_Hash_nodeIiLb0EEE"
 "_ZNSt8__detail20_Prime_rehash_policy8_M_resetEy"
 "_ZNSt8__detail20_Prime_rehash_policyC1Ef"
 "_ZNSt8__detail21_Hashtable_ebo_helperILi0ESaINS_10_Hash_nodeIiLb0EEEELb1EE6_M_getEv"
 "_ZNSt8__detail21_Hashtable_ebo_helperILi0ESaINS_10_Hash_nodeIiLb0EEEELb1EEC2Ev"
 "_ZNSt8__detail21_Hashtable_ebo_helperILi0ESaINS_10_Hash_nodeIiLb0EEEELb1EEC2IS3_EEOT_"
 "_ZNSt8__detail21_Hashtable_ebo_helperILi0ESaINS_10_Hash_nodeIiLb0EEEELb1EED2Ev"
 "_ZNSt8__detail21_Hashtable_ebo_helperILi0ESaINS_10_Hash_nodeISt4pairIKiSt6vectorIS4_IiSaIiEESaIS6_EEELb0EEEELb1EE6_M_getEv"
 "_ZNSt8__detail21_Hashtable_ebo_helperILi0ESaINS_10_Hash_nodeISt4pairIKiSt6vectorIS4_IiSaIiEESaIS6_EEELb0EEEELb1EEC2Ev"
 "_ZNSt8__detail21_Hashtable_ebo_helperILi0ESaINS_10_Hash_nodeISt4pairIKiSt6vectorIS4_IiSaIiEESaIS6_EEELb0EEEELb1EED2Ev"
 "_ZNSt8__detail21_Hashtable_ebo_helperILi0ESt8equal_toIiELb1EEC2Ev"
 "_ZNSt8__detail21_Hashtable_ebo_helperILi0ESt8equal_toIiELb1EEC2IRKS2_EEOT_"
 "_ZNSt8__detail21_Hashtable_ebo_helperILi1ESt4hashIiELb1EEC2Ev"
 "_ZNSt8__detail21_Hashtable_ebo_helperILi1ESt4hashIiELb1EEC2IRKS2_EEOT_"
 "_ZNSt8__detail22_Hashtable_hash_traitsISt4hashIiEE22__small_size_thresholdEv"
 "_ZNSt8__detail9_Map_baseIiSt4pairIKiSt6vectorIS3_IiSaIiEESaIS5_EEESaIS8_ENS_10_Select1stESt8equal_toIiESt4hashIiENS_18_Mod_range_hashingENS_20_Default_ranged_hashENS_20_Prime_rehash_policyENS_17_Hashtable_traitsILb0ELb0ELb1EEELb1EEixEOi"
 "_ZNSt8__detail9_Map_baseIiSt4pairIKiSt6vectorIS3_IiSaIiEESaIS5_EEESaIS8_ENS_10_Select1stESt8equal_toIiESt4hashIiENS_18_Mod_range_hashingENS_20_Default_ranged_hashENS_20_Prime_rehash_policyENS_17_Hashtable_traitsILb0ELb0ELb1EEELb1EEixERS2_"
 "_ZNSt8__detaileqERKNS_14_Node_iteratorIiLb1ELb0EEES3_"
 "_ZNSt8__detaileqERKNS_19_Node_iterator_baseIiLb0EEES3_"
 "_ZNSt8__detailneERKNS_14_Node_iteratorIiLb1ELb0EEES3_"
 "_ZnwyPv"
 "_ZSt10__distanceINSt8__detail14_Node_iteratorIiLb1ELb0EEEENSt15iterator_traitsIT_E15difference_typeES4_S4_St18input_iterator_tag"
 "_ZSt10__fill_n_aIPdydET_S1_T0_RKT1_St26random_access_iterator_tag"
 "_ZSt10__fill_n_aIPiyiET_S1_T0_RKT1_St26random_access_iterator_tag"
 "_ZSt10__pop_heapIN9__gnu_cxx17__normal_iteratorIPiSt6vectorIiSaIiEEEENS0_5__ops15_Iter_less_iterEEvT_S9_S9_RT0_"
 "_ZSt10_ConstructIdJEEvPT_DpOT0_"
 "_ZSt10_ConstructIiJEEvPT_DpOT0_"
 "_ZSt10_ConstructISt6vectorIdSaIdEEJEEvPT_DpOT0_"
 "_ZSt10_ConstructISt6vectorIdSaIdEEJRKS2_EEvPT_DpOT0_"
 "_ZSt10_ConstructISt6vectorIiSaIiEEJEEvPT_DpOT0_"
 "_ZSt10_ConstructISt6vectorIiSaIiEEJRKS2_EEvPT_DpOT0_"
 "_ZSt10_ConstructISt6vectorIiSaIiEEJRS2_EEvPT_DpOT0_"
 "_ZSt11__addressofIdEPT_RS0_"
 "_ZSt11__addressofIiEPT_RS0_"
 "_ZSt11__addressofIKSt6vectorIdSaIdEEEPT_RS4_"
 "_ZSt11__addressofIKSt6vectorIiSaIiEEEPT_RS4_"
 "_ZSt11__addressofIKSt6vectorIS0_IiSaIiEESaIS2_EEEPT_RS6_"
 "_ZSt11__addressofImEPT_RS0_"
 "_ZSt11__addressofINSt8__detail10_Hash_nodeIiLb0EEEEPT_RS3_"
 "_ZSt11__addressofINSt8__detail10_Hash_nodeISt4pairIKiSt6vectorIS4_IiSaIiEESaIS6_EEELb0EEEEPT_RSB_"
 "_ZSt11__addressofINSt8__detail20_Prime_rehash_policyEEPT_RS2_"
 "_ZSt11__addressofIPNSt8__detail15_Hash_node_baseEEPT_RS3_"
 "_ZSt11__addressofISt6vectorIdSaIdEEEPT_RS3_"
 "_ZSt11__addressofISt6vectorIiSaIiEEEPT_RS3_"
 "_ZSt11__addressofISt6vectorIS0_IdSaIdEESaIS2_EEEPT_RS5_"
 "_ZSt11__bit_widthIyEiT_"
 "_ZSt11__make_heapIN9__gnu_cxx17__normal_iteratorIPiSt6vectorIiSaIiEEEENS0_5__ops15_Iter_less_iterEEvT_S9_RT0_"
 "_ZSt11__push_heapIN9__gnu_cxx17__normal_iteratorIPiSt6vectorIiSaIiEEEExiNS0_5__ops14_Iter_less_valEEvT_T0_SA_T1_RT2_"
 "_ZSt11__sort_heapIN9__gnu_cxx17__normal_iteratorIPiSt6vectorIiSaIiEEEENS0_5__ops15_Iter_less_iterEEvT_S9_RT0_"
 "_ZSt12__get_helperILy0EOiJEERT0_RSt11_Tuple_implIXT_EJS1_DpT1_EE"
 "_ZSt12__get_helperILy0ERKiJEERT0_RSt11_Tuple_implIXT_EJS2_DpT1_EE"
 "_ZSt12__miter_baseIN9__gnu_cxx17__normal_iteratorIPiSt6vectorIiSaIiEEEEET_S7_"
 "_ZSt12__miter_baseIN9__gnu_cxx17__normal_iteratorIPKdSt6vectorIdSaIdEEEEET_S8_"
 "_ZSt12__miter_baseIN9__gnu_cxx17__normal_iteratorIPKiSt6vectorIiSaIiEEEEET_S8_"
 "_ZSt12__miter_baseIN9__gnu_cxx17__normal_iteratorIPKSt6vectorIiSaIiEES2_IS4_SaIS4_EEEEET_SA_"
 "_ZSt12__miter_baseINSt8__detail14_Node_iteratorIiLb1ELb0EEEET_S3_"
 "_ZSt12__miter_baseIPdET_S1_"
 "_ZSt12__miter_baseIPiET_S1_"
 "_ZSt12__miter_baseIPKiET_S2_"
 "_ZSt12__miter_baseIPPiET_S2_"
 "_ZSt12__miter_baseIPSt6vectorIiSaIiEEET_S4_"
 "_ZSt12__niter_baseINSt8__detail14_Node_iteratorIiLb1ELb0EEEET_S3_"
 "_ZSt12__niter_baseIPdET_S1_"
 "_ZSt12__niter_baseIPdSt6vectorIdSaIdEEET_N9__gnu_cxx17__normal_iteratorIS4_T0_EE"
 "_ZSt12__niter_baseIPiET_S1_"
 "_ZSt12__niter_baseIPiSt6vectorIiSaIiEEET_N9__gnu_cxx17__normal_iteratorIS4_T0_EE"
 "_ZSt12__niter_baseIPKdSt6vectorIdSaIdEEET_N9__gnu_cxx17__normal_iteratorIS5_T0_EE"
 "_ZSt12__niter_baseIPKiET_S2_"
 "_ZSt12__niter_baseIPKiSt6vectorIiSaIiEEET_N9__gnu_cxx17__normal_iteratorIS5_T0_EE"
 "_ZSt12__niter_baseIPKSt6vectorIiSaIiEES0_IS2_SaIS2_EEET_N9__gnu_cxx17__normal_iteratorIS7_T0_EE"
 "_ZSt12__niter_baseIPPiET_S2_"
 "_ZSt12__niter_baseIPSt6vectorIdSaIdEEET_S4_"
 "_ZSt12__niter_baseIPSt6vectorIiSaIiEEET_S4_"
 "_ZSt12__niter_baseIPSt6vectorIiSaIiEES0_IS2_SaIS2_EEET_N9__gnu_cxx17__normal_iteratorIS6_T0_EE"
 "_ZSt12__niter_baseIPSt6vectorIS0_IdSaIdEESaIS2_EEET_S6_"
 "_ZSt12__niter_baseIPyET_S1_"
 "_ZSt12__niter_wrapIN9__gnu_cxx17__normal_iteratorIPdSt6vectorIdSaIdEEEES2_ET_S7_T0_"
 "_ZSt12__niter_wrapIN9__gnu_cxx17__normal_iteratorIPiSt6vectorIiSaIiEEEES2_ET_S7_T0_"
 "_ZSt12__niter_wrapIN9__gnu_cxx17__normal_iteratorIPSt6vectorIiSaIiEES2_IS4_SaIS4_EEEES5_ET_S9_T0_"
 "_ZSt12__niter_wrapIPdET_RKS1_S1_"
 "_ZSt12__niter_wrapIPiET_RKS1_S1_"
 "_ZSt12__niter_wrapIPPiET_RKS2_S2_"
 "_ZSt12__niter_wrapIPSt6vectorIiSaIiEEET_RKS4_S4_"
 "_ZSt12__relocate_aIPdS0_SaIdEET0_T_S3_S2_RT1_"
 "_ZSt12__relocate_aIPiS0_SaIiEET0_T_S3_S2_RT1_"
 "_ZSt12__relocate_aIPSt6vectorIdSaIdEES3_SaIS2_EET0_T_S6_S5_RT1_"
 "_ZSt12__relocate_aIPSt6vectorIiSaIiEES3_SaIS2_EET0_T_S6_S5_RT1_"
 "_ZSt12__relocate_aIPSt6vectorIS0_IdSaIdEESaIS2_EES5_SaIS4_EET0_T_S8_S7_RT1_"
 "_ZSt12__relocate_aIPyS0_SaIyEET0_T_S3_S2_RT1_"
 "_ZSt12__to_addressIdEPT_S1_"
 "_ZSt12__to_addressIiEPT_S1_"
 "_ZSt12__to_addressINSt8__detail10_Hash_nodeIiLb0EEEEPT_S4_"
 "_ZSt12__to_addressINSt8__detail10_Hash_nodeISt4pairIKiSt6vectorIS4_IiSaIiEESaIS6_EEELb0EEEEPT_SC_"
 "_ZSt12__to_addressIPNSt8__detail15_Hash_node_baseEEPT_S4_"
 "_ZSt12__to_addressISt6vectorIdSaIdEEEPT_S4_"
 "_ZSt12__to_addressISt6vectorIiSaIiEEEPT_S4_"
 "_ZSt12__to_addressISt6vectorIS0_IdSaIdEESaIS2_EEEPT_S6_"
 "_ZSt12__to_addressIyEPT_S1_"
 "_ZSt13__adjust_heapIN9__gnu_cxx17__normal_iteratorIPiSt6vectorIiSaIiEEEExiNS0_5__ops15_Iter_less_iterEEvT_T0_SA_T1_T2_"
 "_ZSt13__copy_move_aILb0EN9__gnu_cxx17__normal_iteratorIPKdSt6vectorIdSaIdEEEENS1_IPdS6_EEET1_T0_SB_SA_"
 "_ZSt13__copy_move_aILb0EN9__gnu_cxx17__normal_iteratorIPKdSt6vectorIdSaIdEEEEPdET1_T0_SA_S9_"
 "_ZSt13__copy_move_aILb0EN9__gnu_cxx17__normal_iteratorIPKiSt6vectorIiSaIiEEEENS1_IPiS6_EEET1_T0_SB_SA_"
 "_ZSt13__copy_move_aILb0EN9__gnu_cxx17__normal_iteratorIPKiSt6vectorIiSaIiEEEEPiET1_T0_SA_S9_"
 "_ZSt13__copy_move_aILb0EN9__gnu_cxx17__normal_iteratorIPKSt6vectorIiSaIiEES2_IS4_SaIS4_EEEENS1_IPS4_S8_EEET1_T0_SD_SC_"
 "_ZSt13__copy_move_aILb0ENSt8__detail14_Node_iteratorIiLb1ELb0EEEPiET1_T0_S5_S4_"
 "_ZSt13__copy_move_aILb0EPdS0_ET1_T0_S2_S1_"
 "_ZSt13__copy_move_aILb0EPiS0_ET1_T0_S2_S1_"
 "_ZSt13__copy_move_aILb0EPKiPiET1_T0_S4_S3_"
 "_ZSt13__copy_move_aILb0EPPiS1_ET1_T0_S3_S2_"
 "_ZSt13__copy_move_aILb0EPSt6vectorIiSaIiEES3_ET1_T0_S5_S4_"
 "_ZSt13__copy_move_aILb1EN9__gnu_cxx17__normal_iteratorIPiSt6vectorIiSaIiEEEES6_ET1_T0_S8_S7_"
 "_ZSt13__countl_zeroIyEiT_"
 "_ZSt13__heap_selectIN9__gnu_cxx17__normal_iteratorIPiSt6vectorIiSaIiEEEENS0_5__ops15_Iter_less_iterEEvT_S9_S9_T0_"
 "_ZSt13copy_backwardIPPiS1_ET0_T_S3_S2_"
 "_ZSt13move_backwardIN9__gnu_cxx17__normal_iteratorIPiSt6vectorIiSaIiEEEES6_ET0_T_S8_S7_"
 "_ZSt14__copy_move_a1ILb0ENSt8__detail14_Node_iteratorIiLb1ELb0EEEPiET1_T0_S5_S4_"
 "_ZSt14__copy_move_a1ILb0EPdS0_ET1_T0_S2_S1_"
 "_ZSt14__copy_move_a1ILb0EPiS0_ET1_T0_S2_S1_"
 "_ZSt14__copy_move_a1ILb0EPKdPdET1_T0_S4_S3_"
 "_ZSt14__copy_move_a1ILb0EPKiPiET1_T0_S4_S3_"
 "_ZSt14__copy_move_a1ILb0EPKSt6vectorIiSaIiEEPS2_ET1_T0_S7_S6_"
 "_ZSt14__copy_move_a1ILb0EPPiS1_ET1_T0_S3_S2_"
 "_ZSt14__copy_move_a1ILb0EPSt6vectorIiSaIiEES3_ET1_T0_S5_S4_"
 "_ZSt14__copy_move_a1ILb1EPiS0_ET1_T0_S2_S1_"
 "_ZSt14__copy_move_a2ILb0ENSt8__detail14_Node_iteratorIiLb1ELb0EEEPiET1_T0_S5_S4_"
 "_ZSt14__copy_move_a2ILb0EPdS0_ET1_T0_S2_S1_"
 "_ZSt14__copy_move_a2ILb0EPiS0_ET1_T0_S2_S1_"
 "_ZSt14__copy_move_a2ILb0EPKdPdET1_T0_S4_S3_"
 "_ZSt14__copy_move_a2ILb0EPKiPiET1_T0_S4_S3_"
 "_ZSt14__copy_move_a2ILb0EPKSt6vectorIiSaIiEEPS2_ET1_T0_S7_S6_"
 "_ZSt14__copy_move_a2ILb0EPPiS1_ET1_T0_S3_S2_"
 "_ZSt14__copy_move_a2ILb0EPSt6vectorIiSaIiEES3_ET1_T0_S5_S4_"
 "_ZSt14__copy_move_a2ILb1EPiS0_ET1_T0_S2_S1_"
 "_ZSt14__partial_sortIN9__gnu_cxx17__normal_iteratorIPiSt6vectorIiSaIiEEEENS0_5__ops15_Iter_less_iterEEvT_S9_S9_T0_"
 "_ZSt14__relocate_a_1IddENSt9enable_ifIXsrSt24__is_bitwise_relocatableIT_vE5valueEPS2_E4typeES4_S4_S4_RSaIT0_E"
 "_ZSt14__relocate_a_1IiiENSt9enable_ifIXsrSt24__is_bitwise_relocatableIT_vE5valueEPS2_E4typeES4_S4_S4_RSaIT0_E"
 "_ZSt14__relocate_a_1IPSt6vectorIdSaIdEES3_SaIS2_EET0_T_S6_S5_RT1_"
 "_ZSt14__relocate_a_1IPSt6vectorIiSaIiEES3_SaIS2_EET0_T_S6_S5_RT1_"
 "_ZSt14__relocate_a_1IPSt6vectorIS0_IdSaIdEESaIS2_EES5_SaIS4_EET0_T_S8_S7_RT1_"
 "_ZSt14__relocate_a_1IyyENSt9enable_ifIXsrSt24__is_bitwise_relocatableIT_vE5valueEPS2_E4typeES4_S4_S4_RSaIT0_E"
 "_ZSt15__adjacent_findIN9__gnu_cxx17__normal_iteratorIPiSt6vectorIiSaIiEEEENS0_5__ops19_Iter_equal_to_iterEET_S9_S9_T0_"
 "_ZSt16__deque_buf_sizey"
 "_ZSt16__do_uninit_copyIN9__gnu_cxx17__normal_iteratorIPKSt6vectorIiSaIiEES2_IS4_SaIS4_EEEEPS4_ET0_T_SC_SB_"
 "_ZSt16__do_uninit_copyIPSt6vectorIiSaIiEES3_ET0_T_S5_S4_"
 "_ZSt16__fill_bvector_nPmyb"
 "_ZSt16__insertion_sortIN9__gnu_cxx17__normal_iteratorIPiSt6vectorIiSaIiEEEENS0_5__ops15_Iter_less_iterEEvT_S9_T0_"
 "_ZSt16__introsort_loopIN9__gnu_cxx17__normal_iteratorIPiSt6vectorIiSaIiEEEExNS0_5__ops15_Iter_less_iterEEvT_S9_T0_T1_"
 "_ZSt16forward_as_tupleIJiEESt5tupleIJDpOT_EES3_"
 "_ZSt17__size_to_integery"
 "_ZSt18__do_uninit_fill_nIPSt6vectorIdSaIdEEyS2_ET_S4_T0_RKT1_"
 "_ZSt18uninitialized_copyIN9__gnu_cxx17__normal_iteratorIPKdSt6vectorIdSaIdEEEEPdET0_T_SA_S9_"
 "_ZSt18uninitialized_copyIN9__gnu_cxx17__normal_iteratorIPKiSt6vectorIiSaIiEEEEPiET0_T_SA_S9_"
 "_ZSt18uninitialized_copyIN9__gnu_cxx17__normal_iteratorIPKSt6vectorIiSaIiEES2_IS4_SaIS4_EEEEPS4_ET0_T_SC_SB_"
 "_ZSt18uninitialized_copyINSt8__detail14_Node_iteratorIiLb1ELb0EEEPiET0_T_S5_S4_"
 "_ZSt18uninitialized_copyIPdS0_ET0_T_S2_S1_"
 "_ZSt18uninitialized_copyIPiS0_ET0_T_S2_S1_"
 "_ZSt18uninitialized_copyIPKiPiET0_T_S4_S3_"
 "_ZSt18uninitialized_copyIPSt6vectorIiSaIiEES3_ET0_T_S5_S4_"
 "_ZSt19__relocate_object_aISt6vectorIdSaIdEES2_SaIS2_EEvPT_PT0_RT1_"
 "_ZSt19__relocate_object_aISt6vectorIiSaIiEES2_SaIS2_EEvPT_PT0_RT1_"
 "_ZSt19__relocate_object_aISt6vectorIS0_IdSaIdEESaIS2_EES4_SaIS4_EEvPT_PT0_RT1_"
 "_ZSt19piecewise_construct"
 "_ZSt20uninitialized_fill_nIPdydET_S1_T0_RKT1_"
 "_ZSt20uninitialized_fill_nIPiyiET_S1_T0_RKT1_"
 "_ZSt20uninitialized_fill_nIPSt6vectorIdSaIdEEyS2_ET_S4_T0_RKT1_"
 "_ZSt21__unguarded_partitionIN9__gnu_cxx17__normal_iteratorIPiSt6vectorIiSaIiEEEENS0_5__ops15_Iter_less_iterEET_S9_S9_S9_T0_"
 "_ZSt22__copy_move_backward_aILb0EPPiS1_ET1_T0_S3_S2_"
 "_ZSt22__copy_move_backward_aILb1EN9__gnu_cxx17__normal_iteratorIPiSt6vectorIiSaIiEEEES6_ET1_T0_S8_S7_"
 "_ZSt22__final_insertion_sortIN9__gnu_cxx17__normal_iteratorIPiSt6vectorIiSaIiEEEENS0_5__ops15_Iter_less_iterEEvT_S9_T0_"
 "_ZSt22__move_median_to_firstIN9__gnu_cxx17__normal_iteratorIPiSt6vectorIiSaIiEEEENS0_5__ops15_Iter_less_iterEEvT_S9_S9_S9_T0_"
 "_ZSt22__uninitialized_copy_aIN9__gnu_cxx17__normal_iteratorIPKdSt6vectorIdSaIdEEEEPddET0_T_SA_S9_RSaIT1_E"
 "_ZSt22__uninitialized_copy_aIN9__gnu_cxx17__normal_iteratorIPKiSt6vectorIiSaIiEEEEPiiET0_T_SA_S9_RSaIT1_E"
 "_ZSt22__uninitialized_copy_aIN9__gnu_cxx17__normal_iteratorIPKSt6vectorIiSaIiEES2_IS4_SaIS4_EEEEPS4_S4_ET0_T_SC_SB_RSaIT1_E"
 "_ZSt22__uninitialized_copy_aINSt8__detail14_Node_iteratorIiLb1ELb0EEEPiiET0_T_S5_S4_RSaIT1_E"
 "_ZSt22__uninitialized_copy_aIPdS0_dET0_T_S2_S1_RSaIT1_E"
 "_ZSt22__uninitialized_copy_aIPiS0_iET0_T_S2_S1_RSaIT1_E"
 "_ZSt22__uninitialized_copy_aIPKiPiiET0_T_S4_S3_RSaIT1_E"
 "_ZSt22__uninitialized_copy_aIPSt6vectorIiSaIiEES3_S2_ET0_T_S5_S4_RSaIT1_E"
 "_ZSt23__copy_move_backward_a1ILb0EPPiS1_ET1_T0_S3_S2_"
 "_ZSt23__copy_move_backward_a1ILb1EPiS0_ET1_T0_S2_S1_"
 "_ZSt23__copy_move_backward_a2ILb0EPPiS1_ET1_T0_S3_S2_"
 "_ZSt23__copy_move_backward_a2ILb1EPiS0_ET1_T0_S2_S1_"
 "_ZSt24__uninitialized_fill_n_aIPdyddET_S1_T0_RKT1_RSaIT2_E"
 "_ZSt24__uninitialized_fill_n_aIPiyiiET_S1_T0_RKT1_RSaIT2_E"
 "_ZSt24__uninitialized_fill_n_aIPSt6vectorIdSaIdEEyS2_S2_ET_S4_T0_RKT1_RSaIT2_E"
 "_ZSt25__unguarded_linear_insertIN9__gnu_cxx17__normal_iteratorIPiSt6vectorIiSaIiEEEENS0_5__ops14_Val_less_iterEEvT_T0_"
 "_ZSt25__uninitialized_default_nIPdyET_S1_T0_"
 "_ZSt25__uninitialized_default_nIPiyET_S1_T0_"
 "_ZSt25__uninitialized_default_nIPSt6vectorIdSaIdEEyET_S4_T0_"
 "_ZSt25__uninitialized_default_nIPSt6vectorIiSaIiEEyET_S4_T0_"
 "_ZSt26__unguarded_insertion_sortIN9__gnu_cxx17__normal_iteratorIPiSt6vectorIiSaIiEEEENS0_5__ops15_Iter_less_iterEEvT_S9_T0_"
 "_ZSt27__unguarded_partition_pivotIN9__gnu_cxx17__normal_iteratorIPiSt6vectorIiSaIiEEEENS0_5__ops15_Iter_less_iterEET_S9_S9_T0_"
 "_ZSt27__uninitialized_default_n_aIPdydET_S1_T0_RSaIT1_E"
 "_ZSt27__uninitialized_default_n_aIPiyiET_S1_T0_RSaIT1_E"
 "_ZSt27__uninitialized_default_n_aIPSt6vectorIdSaIdEEyS2_ET_S4_T0_RSaIT1_E"
 "_ZSt27__uninitialized_default_n_aIPSt6vectorIiSaIiEEyS2_ET_S4_T0_RSaIT1_E"
 "_ZSt3absd"
 "_ZSt3getILy0EJOiEERNSt13tuple_elementIXT_ESt5tupleIJDpT0_EEE4typeERS5_"
 "_ZSt3getILy0EJRKiEERNSt13tuple_elementIXT_ESt5tupleIJDpT0_EEE4typeERS6_"
 "_ZSt3maxIyERKT_S2_S2_"
 "_ZSt3minIyERKT_S2_S2_"
 "_ZSt4__lgIxET_S0_"
 "_ZSt4copyIN9__gnu_cxx17__normal_iteratorIPKdSt6vectorIdSaIdEEEENS1_IPdS6_EEET0_T_SB_SA_"
 "_ZSt4copyIN9__gnu_cxx17__normal_iteratorIPKdSt6vectorIdSaIdEEEEPdET0_T_SA_S9_"
 "_ZSt4copyIN9__gnu_cxx17__normal_iteratorIPKiSt6vectorIiSaIiEEEENS1_IPiS6_EEET0_T_SB_SA_"
 "_ZSt4copyIN9__gnu_cxx17__normal_iteratorIPKiSt6vectorIiSaIiEEEEPiET0_T_SA_S9_"
 "_ZSt4copyIN9__gnu_cxx17__normal_iteratorIPKSt6vectorIiSaIiEES2_IS4_SaIS4_EEEENS1_IPS4_S8_EEET0_T_SD_SC_"
 "_ZSt4copyINSt8__detail14_Node_iteratorIiLb1ELb0EEEPiET0_T_S5_S4_"
 "_ZSt4copyIPdS0_ET0_T_S2_S1_"
 "_ZSt4copyIPiS0_ET0_T_S2_S1_"
 "_ZSt4copyIPKiPiET0_T_S4_S3_"
 "_ZSt4copyIPPiS1_ET0_T_S3_S2_"
 "_ZSt4copyIPSt6vectorIiSaIiEES3_ET0_T_S5_S4_"
 "_ZSt4findIN9__gnu_cxx17__normal_iteratorIPKiSt6vectorIiSaIiEEEEiET_S8_S8_RKT0_"
 "_ZSt4moveIN9__gnu_cxx17__normal_iteratorIPiSt6vectorIiSaIiEEEES6_ET0_T_S8_S7_"
 "_ZSt4moveIRdEONSt16remove_referenceIT_E4typeEOS2_"
 "_ZSt4moveIRiEONSt16remove_referenceIT_E4typeEOS2_"
 "_ZSt4moveIRN9__gnu_cxx5__ops15_Iter_less_iterEEONSt16remove_referenceIT_E4typeEOS5_"
 "_ZSt4moveIRNSt12_Vector_baseIdSaIdEE12_Vector_implEEONSt16remove_referenceIT_E4typeEOS6_"
 "_ZSt4moveIRNSt12_Vector_baseIiSaIiEE12_Vector_implEEONSt16remove_referenceIT_E4typeEOS6_"
 "_ZSt4moveIRNSt12_Vector_baseISt6vectorIdSaIdEESaIS3_EE12_Vector_implEEONSt16remove_referenceIT_E4typeEOS9_"
 "_ZSt4moveIRNSt12_Vector_baseISt6vectorIiSaIiEESaIS3_EE12_Vector_implEEONSt16remove_referenceIT_E4typeEOS9_"
 "_ZSt4moveIRNSt12_Vector_baseISt6vectorIS1_IdSaIdEESaIS3_EESaIS5_EE12_Vector_implEEONSt16remove_referenceIT_E4typeEOSB_"
 "_ZSt4moveIRNSt8__detail14_Node_iteratorIiLb1ELb0EEEEONSt16remove_referenceIT_E4typeEOS5_"
 "_ZSt4moveIRPKiEONSt16remove_referenceIT_E4typeEOS4_"
 "_ZSt4moveIRSt6vectorIdSaIdEEEONSt16remove_referenceIT_E4typeEOS5_"
 "_ZSt4moveIRSt6vectorIiSaIiEEEONSt16remove_referenceIT_E4typeEOS5_"
 "_ZSt4moveIRSt6vectorIS0_IdSaIdEESaIS2_EEEONSt16remove_referenceIT_E4typeEOS7_"
 "_ZSt4sortIN9__gnu_cxx17__normal_iteratorIPiSt6vectorIiSaIiEEEEEvT_S7_"
 "_ZSt4swapIiENSt9enable_ifIXsrSt6__and_IJSt6__not_ISt15__is_tuple_likeIT_EESt21is_move_constructibleIS4_ESt18is_move_assignableIS4_EEE5valueEvE4typeERS4_SE_"
 "_ZSt5isnand"
 "_ZSt6__sortIN9__gnu_cxx17__normal_iteratorIPiSt6vectorIiSaIiEEEENS0_5__ops15_Iter_less_iterEEvT_S9_T0_"
 "_ZSt6fill_nIPdydET_S1_T0_RKT1_"
 "_ZSt6fill_nIPiyiET_S1_T0_RKT1_"
 "_ZSt6uniqueIN9__gnu_cxx17__normal_iteratorIPiSt6vectorIiSaIiEEEEET_S7_S7_"
 "_ZSt7forwardIbEOT_RNSt16remove_referenceIS0_E4typeE"
 "_ZSt7forwardIdEOT_RNSt16remove_referenceIS0_E4typeE"
 "_ZSt7forwardIiEOT_RNSt16remove_referenceIS0_E4typeE"
 "_ZSt7forwardINSt8__detail14_Node_iteratorIiLb1ELb0EEEEOT_RNSt16remove_referenceIS3_E4typeE"
 "_ZSt7forwardIOiEOT_RNSt16remove_referenceIS1_E4typeE"
 "_ZSt7forwardIRiEOT_RNSt16remove_referenceIS1_E4typeE"
 "_ZSt7forwardIRKdEOT_RNSt16remove_referenceIS2_E4typeE"
 "_ZSt7forwardIRKiEOT_RNSt16remove_referenceIS2_E4typeE"
 "_ZSt7forwardIRKSt21piecewise_construct_tEOT_RNSt16remove_referenceIS3_E4typeE"
 "_ZSt7forwardIRKSt4hashIiEEOT_RNSt16remove_referenceIS4_E4typeE"
 "_ZSt7forwardIRKSt4pairIKiSt6vectorIS2_IiSaIiEESaIS4_EEEEOT_RNSt16remove_referenceISA_E4typeE"
 "_ZSt7forwardIRKSt6vectorIdSaIdEEEOT_RNSt16remove_referenceIS5_E4typeE"
 "_ZSt7forwardIRKSt6vectorIiSaIiEEEOT_RNSt16remove_referenceIS5_E4typeE"
 "_ZSt7forwardIRKSt8equal_toIiEEOT_RNSt16remove_referenceIS4_E4typeE"
 "_ZSt7forwardIRKyEOT_RNSt16remove_referenceIS2_E4typeE"
 "_ZSt7forwardIRNSt8__detail14_Node_iteratorIiLb1ELb0EEEEOT_RNSt16remove_referenceIS4_E4typeE"
 "_ZSt7forwardIRSt6vectorIiSaIiEEEOT_RNSt16remove_referenceIS4_E4typeE"
 "_ZSt7forwardISaINSt8__detail10_Hash_nodeIiLb0EEEEEOT_RNSt16remove_referenceIS4_E4typeE"
 "_ZSt7forwardISt5tupleIJEEEOT_RNSt16remove_referenceIS2_E4typeE"
 "_ZSt7forwardISt5tupleIJOiEEEOT_RNSt16remove_referenceIS3_E4typeE"
 "_ZSt7forwardISt5tupleIJRKiEEEOT_RNSt16remove_referenceIS4_E4typeE"
 "_ZSt7forwardISt6vectorIdSaIdEEEOT_RNSt16remove_referenceIS3_E4typeE"
 "_ZSt7forwardISt6vectorIiSaIiEEEOT_RNSt16remove_referenceIS3_E4typeE"
 "_ZSt7forwardISt6vectorIS0_IdSaIdEESaIS2_EEEOT_RNSt16remove_referenceIS5_E4typeE"
 "_ZSt8__fill_aIPddEvT_S1_RKT0_"
 "_ZSt8__fill_aIPiiEvT_S1_RKT0_"
 "_ZSt8__uniqueIN9__gnu_cxx17__normal_iteratorIPiSt6vectorIiSaIiEEEENS0_5__ops19_Iter_equal_to_iterEET_S9_S9_T0_"
 "_ZSt8_DestroyIN9__gnu_cxx17__normal_iteratorIPdSt6vectorIdSaIdEEEEEvT_S7_"
 "_ZSt8_DestroyIN9__gnu_cxx17__normal_iteratorIPiSt6vectorIiSaIiEEEEEvT_S7_"
 "_ZSt8_DestroyIN9__gnu_cxx17__normal_iteratorIPSt6vectorIiSaIiEES2_IS4_SaIS4_EEEEEvT_S9_"
 "_ZSt8_DestroyIPdEvT_S1_"
 "_ZSt8_DestroyIPiEvT_S1_"
 "_ZSt8_DestroyIPSt6vectorIdSaIdEEEvT_S4_"
 "_ZSt8_DestroyIPSt6vectorIiSaIiEEEvT_S4_"
 "_ZSt8_DestroyIPSt6vectorIS0_IdSaIdEESaIS2_EEEvT_S6_"
 "_ZSt8_DestroyIPyEvT_S1_"
 "_ZSt8_DestroyISt6vectorIdSaIdEEEvPT_"
 "_ZSt8_DestroyISt6vectorIiSaIiEEEvPT_"
 "_ZSt8_DestroyISt6vectorIS0_IdSaIdEESaIS2_EEEvPT_"
 "_ZSt9__fill_a1IPddEN9__gnu_cxx11__enable_ifIXsrSt11__is_scalarIT0_E7__valueEvE6__typeET_S8_RKS4_"
 "_ZSt9__fill_a1IPiiEN9__gnu_cxx11__enable_ifIXsrSt11__is_scalarIT0_E7__valueEvE6__typeET_S8_RKS4_"
 "_ZSt9__find_ifIN9__gnu_cxx17__normal_iteratorIPKiSt6vectorIiSaIiEEEENS0_5__ops16_Iter_equals_valIS2_EEET_SB_SB_T0_"
 "_ZSt9__find_ifIN9__gnu_cxx17__normal_iteratorIPKiSt6vectorIiSaIiEEEENS0_5__ops16_Iter_equals_valIS2_EEET_SB_SB_T0_St26random_access_iterator_tag"
 "_ZSt9addressofINSt8__detail10_Hash_nodeIiLb0EEEEPT_RS3_"
 "_ZSt9addressofINSt8__detail10_Hash_nodeISt4pairIKiSt6vectorIS4_IiSaIiEESaIS6_EEELb0EEEEPT_RSB_"
 "_ZSt9addressofIPNSt8__detail15_Hash_node_baseEEPT_RS3_"
 "_ZSt9iter_swapIN9__gnu_cxx17__normal_iteratorIPiSt6vectorIiSaIiEEEES6_EvT_T0_"
 "_ZSteqRKSt15_Deque_iteratorIiRiPiES4_"
 "_ZStmiRKSt15_Deque_iteratorIiRiPiES4_"
 "_ZStplRKSt13_Bit_iteratorx"
 "_ZZNSt6vectorIdSaIdEE17_M_realloc_appendIJdEEEvDpOT_EN6_GuardC1EPdyRS0_"
 "_ZZNSt6vectorIdSaIdEE17_M_realloc_appendIJdEEEvDpOT_EN6_GuardD1Ev"
 "_ZZNSt6vectorIdSaIdEE17_M_realloc_appendIJRKdEEEvDpOT_EN6_GuardC1EPdyRS0_"
 "_ZZNSt6vectorIdSaIdEE17_M_realloc_appendIJRKdEEEvDpOT_EN6_GuardD1Ev"
 "_ZZNSt6vectorIiSaIiEE17_M_default_appendEyEN6_GuardC1EPiyRS0_"
 "_ZZNSt6vectorIiSaIiEE17_M_default_appendEyEN6_GuardD1Ev"
 "_ZZNSt6vectorIiSaIiEE17_M_realloc_appendIJiEEEvDpOT_EN6_GuardC1EPiyRS0_"
 "_ZZNSt6vectorIiSaIiEE17_M_realloc_appendIJiEEEvDpOT_EN6_GuardD1Ev"
 "_ZZNSt6vectorIiSaIiEE17_M_realloc_appendIJRKiEEEvDpOT_EN6_GuardC1EPiyRS0_"
 "_ZZNSt6vectorIiSaIiEE17_M_realloc_appendIJRKiEEEvDpOT_EN6_GuardD1Ev"
 "_ZZNSt6vectorIS_IdSaIdEESaIS1_EE17_M_realloc_appendIJS1_EEEvDpOT_EN6_GuardC1EPS1_yRS2_"
 "_ZZNSt6vectorIS_IdSaIdEESaIS1_EE17_M_realloc_appendIJS1_EEEvDpOT_EN6_GuardD1Ev"
 "_ZZNSt6vectorIS_IiSaIiEESaIS1_EE17_M_realloc_appendIJRKS1_EEEvDpOT_EN6_GuardC1EPS1_yRS2_"
 "_ZZNSt6vectorIS_IiSaIiEESaIS1_EE17_M_realloc_appendIJRKS1_EEEvDpOT_EN6_GuardD1Ev"
 "_ZZNSt6vectorIS_IiSaIiEESaIS1_EE17_M_realloc_appendIJS1_EEEvDpOT_EN6_GuardC1EPS1_yRS2_"
 "_ZZNSt6vectorIS_IiSaIiEESaIS1_EE17_M_realloc_appendIJS1_EEEvDpOT_EN6_GuardD1Ev"
 "_ZZNSt6vectorIS_IS_IdSaIdEESaIS1_EESaIS3_EE17_M_realloc_appendIJS3_EEEvDpOT_EN6_GuardC1EPS3_yRS4_"
 "_ZZNSt6vectorIS_IS_IdSaIdEESaIS1_EESaIS3_EE17_M_realloc_appendIJS3_EEEvDpOT_EN6_GuardD1Ev"
 "_ZZNSt6vectorIySaIyEE17_M_realloc_appendIJRKyEEEvDpOT_EN6_GuardC1EPyyRS0_"
 "_ZZNSt6vectorIySaIyEE17_M_realloc_appendIJRKyEEEvDpOT_EN6_GuardD1Ev"
 "_Z10checkIntNAi"
 "_Z10CppAbsDiffRKSt6vectorIdSaIdEES3_"
 "_Z10CppCMCTestRKSt6vectorIdSaIdEERKNSt7__cxx1112basic_stringIcSt11char_traitsIcESaIcEEEdy"
 "_Z10CppCombinejj"
 "_Z10CppDigammad"
 "_Z10KendallCorRKSt6vectorIdSaIdEES3_b"
 "_Z10PartialCorRKSt6vectorIdSaIdEES3_RKS_IS1_SaIS1_EEbbd"
 "_Z10PearsonCorRKSt6vectorIdSaIdEES3_b"
 "_Z11CppQuantileRKSt6vectorIdSaIdEES3_b"
 "_Z11CppVarianceRKSt6vectorIdSaIdEEb"
 "_Z11SpearmanCorRKSt6vectorIdSaIdEES3_b"
 "_Z12CppFactorialj"
 "_Z13CppCovarianceRKSt6vectorIdSaIdEES3_b"
 "_Z13LinearTrendRMRKSt6vectorIdSaIdEES3_S3_b"
 "_Z15CppSumNormalizeRKSt6vectorIdSaIdEEb"
 "_Z16CppArithmeticSeqddy"
 "_Z16CppCorConfidencedyyd"
 "_Z16PartialCorTrivarRKSt6vectorIdSaIdEES3_S3_bbd"
 "_Z18CppCorSignificancedyy"
 "_Z20CppMeanCorConfidenceRKSt6vectorIdSaIdEEyyd"
 "_Z22CppDeLongAUCConfidenceRKSt6vectorIdSaIdEES3_RKNSt7__cxx1112basic_stringIcSt11char_traitsIcESaIcEEEd"
 "_Z22CppMeanCorSignificanceRKSt6vectorIdSaIdEEyy"
 "_Z23checkOneDimVectorHasNaNRKSt6vectorIdSaIdEE"
 "_Z26checkOneDimVectorNotNanNumRKSt6vectorIdSaIdEE"
 "_Z4isNAd"
 "_Z6CppLogdd"
 "_Z6CppMAERKSt6vectorIdSaIdEES3_b"
 "_Z6CppMaxRKSt6vectorIdSaIdEEb"
 "_Z6CppMinRKSt6vectorIdSaIdEEb"
 "_Z6CppSumRKSt6vectorIdSaIdEEb"
 "_Z6CppSVDRKSt6vectorIS_IdSaIdEESaIS1_EE"
 "_Z7CppMeanRKSt6vectorIdSaIdEEb"
 "_Z7CppRMSERKSt6vectorIdSaIdEES3_b"
 "_Z9CppCumSumRKSt6vectorIdSaIdEE"
 "_Z9CppMedianRKSt6vectorIdSaIdEEb"
 "_ZdlPvS_"
 "_ZN19DeLongPlacementsResD1Ev"
 "_ZN1R2ptEddii"
 "_ZN1R6pnorm5Edddii"
 "_ZN1R6qnorm5Edddii"
 "_ZN4arma10arma_checkIA27_cEEvbRKT_"
 "_ZN4arma10arma_checkIA31_cEEvbRKT_"
 "_ZN4arma10arma_checkIA32_cEEvbRKT_"
 "_ZN4arma10arma_checkIA33_cEEvbRKT_"
 "_ZN4arma10arma_checkIA37_cEEvbRKT_"
 "_ZN4arma10arma_checkIA39_cEEvbRKT_"
 "_ZN4arma10arma_checkIA41_cEEvbRKT_"
 "_ZN4arma10arma_checkIA43_cEEvbRKT_"
 "_ZN4arma10arma_checkIA44_cEEvbRKT_"
 "_ZN4arma10arma_checkIA45_cEEvbRKT_"
 "_ZN4arma10arma_checkIA47_cEEvbRKT_"
 "_ZN4arma10arma_checkIA53_cEEvbRKT_"
 "_ZN4arma10arma_checkIA54_cEEvbRKT_"
 "_ZN4arma10arma_checkIA58_cEEvbRKT_"
 "_ZN4arma10arma_checkIA59_cEEvbRKT_"
 "_ZN4arma10arma_checkIA74_cEEvbRKT_"
 "_ZN4arma10arma_checkIPcEEvbRKT_"
 "_ZN4arma10arma_checkIPKcEEvbRKT_"
 "_ZN4arma10arma_checkIZNS_6auxlib15solve_sym_rcondINS_3MatIdEEEEbRNS3_INT_8pod_typeEEERS6_S8_RKNS_4BaseIS6_S5_EEEUlvE_EEvbPKcRKS5_"
 "_ZN4arma10arma_checkIZNS_6auxlib16solve_band_rcondINS_3MatIdEEEEbRNS3_INT_9elem_typeEEERNS5_8pod_typeERKS7_jjRKNS_4BaseIS6_S5_EEEUlvE_EEvbPKcRKS5_"
 "_ZN4arma10arma_checkIZNS_6auxlib17solve_sympd_rcondINS_3MatIdEEEEbRNS3_INT_8pod_typeEEERbRS6_S8_RKNS_4BaseIS6_S5_EEEUlvE_EEvbPKcRKS5_"
 "_ZN4arma10arma_checkIZNS_6auxlib18solve_square_rcondINS_3MatIdEEEEbRNS3_INT_9elem_typeEEERNS5_8pod_typeES8_RKNS_4BaseIS6_S5_EEEUlvE_EEvbPKcRKS5_"
 "_ZN4arma10arma_checkIZNS_6auxlib18solve_trimat_rcondINS_3MatIdEEEEbRNS3_INT_9elem_typeEEERNS5_8pod_typeERKS7_RKNS_4BaseIS6_S5_EEjEUlvE_EEvbPKcRKS5_"
 "_ZN4arma10arma_isnanIdEEbT_"
 "_ZN4arma10arma_isnanIjEEbT_"
 "_ZN4arma10eglue_coreINS_11eglue_minusEE5applyINS_3MatIdEENS_3ColIdEENS_4GlueINS8_IS5_S5_NS_10glue_timesEEES7_S9_EEEEvRT_RKNS_5eGlueIT0_T1_S1_EE"
 "_ZN4arma10glue_times5applyIdLb0ELb0ELb0ELb0ENS_3MatIdEES3_NS_3ColIdEEEEvRNS2_IT_EERKT4_RKT5_RKT6_S6_"
 "_ZN4arma10glue_times5applyIdLb0ELb0ELb0ENS_3MatIdEENS_3ColIdEEEEvRNS2_IT_EERKT3_RKT4_S6_"
 "_ZN4arma10glue_times5applyIdLb0ELb0ELb0ENS_3MatIdEES3_EEvRNS2_IT_EERKT3_RKT4_S4_"
 "_ZN4arma10glue_times5applyIdLb0ELb1ELb0ENS_3ColIdEES3_EEvRNS_3MatIT_EERKT3_RKT4_S5_"
 "_ZN4arma10glue_times5applyIdLb0ELb1ELb0ENS_3MatIdEES3_EEvRNS2_IT_EERKT3_RKT4_S4_"
 "_ZN4arma10glue_times5applyIdLb1ELb0ELb0ENS_3MatIdEES3_EEvRNS2_IT_EERKT3_RKT4_S4_"
 "_ZN4arma10glue_times5applyINS_2OpINS_3MatIdEENS_9op_htransEEES4_EEvRNS3_INT_9elem_typeEEERKNS_4GlueIS7_T0_S0_EE"
 "_ZN4arma10glue_times5applyINS_2OpINS_4mtOpIdNS_3MatIdEENS_9op_stddevEEENS_9op_htransEEES7_EEvRNS_11Mat_noaliasINT_9elem_typeEEERKNS_4GlueISB_T0_S0_EE"
 "_ZN4arma10glue_times5applyINS_3ColIdEENS_2OpIS3_NS_9op_htransEEEEEvRNS_11Mat_noaliasINT_9elem_typeEEERKNS_4GlueIS8_T0_S0_EE"
 "_ZN4arma10glue_times5applyINS_3MatIdEENS_2OpIS3_NS_9op_htransEEEEEvRNS2_INT_9elem_typeEEERKNS_4GlueIS7_T0_S0_EE"
 "_ZN4arma10glue_times5applyINS_3MatIdEENS_3ColIdEEEEvRNS_11Mat_noaliasINT_9elem_typeEEERKNS_4GlueIS7_T0_S0_EE"
 "_ZN4arma10glue_times5applyINS_4GlueINS_3MatIdEES4_S0_EENS_3ColIdEEEEvRNS_11Mat_noaliasINT_9elem_typeEEERKNS2_IS9_T0_S0_EE"
 "_ZN4arma10sort_indexINS_3ColIdEEcEENS_10enable_if2IXaasrNS_12is_arma_typeIT_EE5valuesrNS_12is_same_typeIT0_cEE5valueEKNS_4mtOpIjS5_NS_13op_sort_indexEEEE6resultERKS5_PKS8_"
 "_ZN4arma10sort_indexINS_3MatIdEEEEKNS_4mtOpIjT_NS_13op_sort_indexEEERKNS_4BaseINS4_9elem_typeES4_EE"
 "_ZN4arma10sort_indexINS_4mtOpIjNS_3MatIdEENS_13op_sort_indexEEEEEKNS1_IjT_S4_EERKNS_4BaseINS6_9elem_typeES6_EE"
 "_ZN4arma10sym_helper11guess_sympdIdEEbRKNS_3MatIT_EEj"
 "_ZN4arma10sym_helper13is_approx_symIdEEbRKNS_3MatIT_EE"
 "_ZN4arma10sym_helper18guess_sympd_workerIdEENS_10enable_if2IXsrNS_5is_cxIT_EE2noEbE6resultERKNS_3MatIS4_EE"
 "_ZN4arma10sym_helper20is_approx_sym_workerIdEENS_10enable_if2IXsrNS_5is_cxIT_EE2noEbE6resultERKNS_3MatIS4_EE"
 "_ZN4arma11band_helper7is_bandIdEEbRjS2_RKNS_3MatIT_EEj"
 "_ZN4arma11band_helper8compressIdEEvRNS_3MatIT_EERKS4_jjb"
 "_ZN4arma11eglue_minus4textEv"
 "_ZN4arma11is_sym_exprINS_3MatIdEEE4evalERKS2_"
 "_ZN4arma11subview_colIdEaSINS_3ColIdEENS_8gen_onesEEENS_10enable_if2IXsrNS_12is_same_typeINT_9elem_typeEdEE5valueEvE6resultERKNS_3GenIS8_T0_EE"
 "_ZN4arma11subview_colIdEaSINS_3MatIdEEEEvRKNS_4BaseIdT_EE"
 "_ZN4arma11subview_colIdEC1ERKNS_3MatIdEEj"
 "_ZN4arma11subview_colIdED1Ev"
 "_ZN4arma11syrk_helper35inplace_copy_upper_tri_to_lower_triIdEEvRNS_3MatIT_EE"
 "_ZN4arma12quasi_unwrapINS_2OpINS_3MatIdEENS_7op_meanEEEEC1ERKS5_"
 "_ZN4arma12quasi_unwrapINS_2OpINS_3MatIdEENS_7op_meanEEEED1Ev"
 "_ZN4arma12quasi_unwrapINS_3MatIdEEEC1ERKS2_"
 "_ZN4arma12quasi_unwrapINS_4GlueINS_2OpINS_4mtOpIdNS_3MatIdEENS_9op_stddevEEENS_9op_htransEEES7_NS_10glue_timesEEEEC1ERKSB_"
 "_ZN4arma12quasi_unwrapINS_4GlueINS_2OpINS_4mtOpIdNS_3MatIdEENS_9op_stddevEEENS_9op_htransEEES7_NS_10glue_timesEEEED1Ev"
 "_ZN4arma12quasi_unwrapINS_4mtOpIjNS1_IjNS_3MatIdEENS_13op_sort_indexEEES4_EEEC1ERKS6_"
 "_ZN4arma12quasi_unwrapINS_4mtOpIjNS1_IjNS_3MatIdEENS_13op_sort_indexEEES4_EEED1Ev"
 "_ZN4arma12unwrap_checkINS_3MatIdEEEC1ERKS2_b"
 "_ZN4arma12unwrap_checkINS_3MatIdEEED1Ev"
 "_ZN4arma13arma_isfiniteIdEEbT_"
 "_ZN4arma13diagmat_proxyINS_3ColIdEEEC1ERKS2_"
 "_ZN4arma13op_sort_index12apply_helperINS_3ColIdEEEEbRNS_3MatIjEERKNS_5ProxyIT_EEj"
 "_ZN4arma13op_sort_index12apply_helperINS_3MatIdEEEEbRNS2_IjEERKNS_5ProxyIT_EEj"
 "_ZN4arma13op_sort_index12apply_helperINS_4mtOpIjNS_3MatIdEES0_EEEEbRNS3_IjEERKNS_5ProxyIT_EEj"
 "_ZN4arma13op_sort_index5applyINS_3ColIdEEEEvRNS_3MatIjEERKNS_4mtOpIjT_S0_EE"
 "_ZN4arma13op_sort_index5applyINS_3MatIdEEEEvRNS2_IjEERKNS_4mtOpIjT_S0_EE"
 "_ZN4arma13op_sort_index5applyINS_4mtOpIjNS_3MatIdEES0_EEEEvRNS3_IjEERKNS2_IjT_S0_EE"
 "_ZN4arma13strip_diagmatINS_2OpINS_3ColIdEENS_10op_diagmatEEEEC1ERKS5_"
 "_ZN4arma13strip_diagmatINS_3MatIdEEEC1ERKS2_"
 "_ZN4arma13subview_each1INS_3MatIdEELj1EED1Ev"
 "_ZN4arma13subview_elem1IdNS_3MatIjEEE7extractERNS1_IdEERKS3_"
 "_ZN4arma13subview_elem1IdNS_3MatIjEEED1Ev"
 "_ZN4arma13subview_elem2IdNS_3MatIjEES2_E7extractERNS1_IdEERKS3_"
 "_ZN4arma13subview_elem2IdNS_3MatIjEES2_ED1Ev"
 "_ZN4arma13trimat_helper18has_nonfinite_triuIdEEbRKNS_3MatIT_EE"
 "_ZN4arma13trimat_helper7is_trilIdEEbRKNS_3MatIT_EE"
 "_ZN4arma13trimat_helper7is_triuIdEEbRKNS_3MatIT_EE"
 "_ZN4arma14partial_unwrapINS_2OpINS_3ColIdEENS_9op_htransEEEEC1ERKS5_"
 "_ZN4arma14partial_unwrapINS_2OpINS_3MatIdEENS_9op_htransEEEEC1ERKS5_"
 "_ZN4arma14partial_unwrapINS_2OpINS_4mtOpIdNS_3MatIdEENS_9op_stddevEEENS_9op_htransEEEEC1ERKS8_"
 "_ZN4arma14partial_unwrapINS_2OpINS_4mtOpIdNS_3MatIdEENS_9op_stddevEEENS_9op_htransEEEED1Ev"
 "_ZN4arma14partial_unwrapINS_3ColIdEEEC1ERKS2_"
 "_ZN4arma14partial_unwrapINS_3MatIdEEEC1ERKS2_"
 "_ZN4arma14partial_unwrapINS_4mtOpIdNS_3MatIdEENS_9op_stddevEEEEC1ERKS5_"
 "_ZN4arma14partial_unwrapINS_4mtOpIdNS_3MatIdEENS_9op_stddevEEEED1Ev"
 "_ZN4arma15get_cerr_streamEv"
 "_ZN4arma15glue_times_diag5applyINS_3MatIdEENS_2OpINS_3ColIdEENS_10op_diagmatEEEEEvRNS2_INT_9elem_typeEEERKNS_4GlueIS9_T0_S0_EE"
 "_ZN4arma15op_pinv_default12apply_directINS_3MatIdEEEEbRNS2_INT_9elem_typeEEERKNS_4BaseIS5_S4_EE"
 "_ZN4arma15op_pinv_default5applyINS_3MatIdEEEEvRNS2_INT_9elem_typeEEERKNS_2OpIS4_S0_EE"
 "_ZN4arma16arma_isnonfiniteIdEEbT_"
 "_ZN4arma16as_scalar_errmsg20incompat_size_stringB5cxx11Ejj"
 "_ZN4arma16gemm_emul_tinysqILb0ELb0ELb0EE5applyIdNS_3ColIdEENS_3MatIdEEEEvRNS5_IT_EERKT0_RKT1_S7_S7_"
 "_ZN4arma16gemm_emul_tinysqILb0ELb0ELb0EE5applyIdNS_3MatIdEES4_EEvRNS3_IT_EERKT0_RKT1_S5_S5_"
 "_ZN4arma16gemm_emul_tinysqILb1ELb0ELb0EE5applyIdNS_3MatIdEES4_EEvRNS3_IT_EERKT0_RKT1_S5_S5_"
 "_ZN4arma16gemv_emul_tinysqILb0ELb0ELb0EE5applyIdNS_3ColIdEEEEvPT_RKT0_PKS5_S5_S5_"
 "_ZN4arma16gemv_emul_tinysqILb0ELb0ELb0EE5applyIdNS_3MatIdEEEEvPT_RKT0_PKS5_S5_S5_"
 "_ZN4arma16gemv_emul_tinysqILb1ELb0ELb0EE5applyIdNS_3ColIdEEEEvPT_RKT0_PKS5_S5_S5_"
 "_ZN4arma16gemv_emul_tinysqILb1ELb0ELb0EE5applyIdNS_3MatIdEEEEvPT_RKT0_PKS5_S5_S5_"
 "_ZN4arma17arma_check_boundsIA32_cEEvbRKT_"
 "_ZN4arma17arma_check_boundsIA33_cEEvbRKT_"
 "_ZN4arma17arma_check_boundsIA37_cEEvbRKT_"
 "_ZN4arma17arma_check_boundsIA45_cEEvbRKT_"
 "_ZN4arma17arma_check_boundsIA46_cEEvbRKT_"
 "_ZN4arma17arma_check_boundsINSt7__cxx1112basic_stringIcSt11char_traitsIcESaIcEEEEEvbRKT_"
 "_ZN4arma17subview_each1_aux14operator_minusINS_3MatIdEELj1ENS_2OpIS3_NS_7op_meanEEEEENS2_INT_9elem_typeEEERKNS_13subview_each1IS7_XT0_EEERKNS_4BaseIS8_T1_EE"
 "_ZN4arma18unwrap_check_mixedINS_3MatIjEEEC1IdEERKS2_RKNS1_IT_EE"
 "_ZN4arma18unwrap_check_mixedINS_3MatIjEEED1Ev"
 "_ZN4arma19glue_solve_gen_full5applyIdNS_3MatIdEES3_Lb0EEEbRNS2_IT_EERKNS_4BaseIS4_T0_EERKNS7_IS4_T1_EEj"
 "_ZN4arma19glue_times_redirectILj2ELb0EE5applyINS_2OpINS_4mtOpIdNS_3MatIdEENS_9op_stddevEEENS_9op_htransEEES8_EEvRNS5_INT_9elem_typeEEERKNS_4GlueISB_T0_NS_10glue_timesEEE"
 "_ZN4arma19glue_times_redirectILj2ELb0EE5applyINS_3ColIdEENS_2OpIS4_NS_9op_htransEEEEEvRNS_3MatINT_9elem_typeEEERKNS_4GlueIS9_T0_NS_10glue_timesEEE"
 "_ZN4arma19glue_times_redirectILj2ELb0EE5applyINS_3MatIdEENS_3ColIdEEEEvRNS3_INT_9elem_typeEEERKNS_4GlueIS7_T0_NS_10glue_timesEEE"
 "_ZN4arma19glue_times_redirectILj2ELb1EE5applyINS_2OpINS_3MatIdEENS_9op_htransEEES5_EEvRNS4_INT_9elem_typeEEERKNS_4GlueIS8_T0_NS_10glue_timesEEE"
 "_ZN4arma19glue_times_redirectILj2ELb1EE5applyINS_3MatIdEENS_2OpIS4_NS_9op_htransEEEEEvRNS3_INT_9elem_typeEEERKNS_4GlueIS8_T0_NS_10glue_timesEEE"
 "_ZN4arma19glue_times_redirectILj3ELb0EE5applyINS_3MatIdEES4_NS_3ColIdEEEEvRNS3_INT_9elem_typeEEERKNS_4GlueINSB_IS7_T0_NS_10glue_timesEEET1_SD_EE"
 "_ZN4arma20arma_assert_mul_sizeEjjjjPKc"
 "_ZN4arma20arma_assert_mul_sizeIddEEvRKNS_3MatIT_EERKNS1_IT0_EEbbPKc"
 "_ZN4arma20arma_check_bad_allocIA39_cEEvbRKT_"
 "_ZN4arma20quasi_unwrap_defaultINS_2OpINS_3MatIdEENS_7op_meanEEEEC2ERKS5_"
 "_ZN4arma20quasi_unwrap_defaultINS_2OpINS_3MatIdEENS_7op_meanEEEED2Ev"
 "_ZN4arma20quasi_unwrap_defaultINS_4GlueINS_2OpINS_4mtOpIdNS_3MatIdEENS_9op_stddevEEENS_9op_htransEEES7_NS_10glue_timesEEEEC2ERKSB_"
 "_ZN4arma20quasi_unwrap_defaultINS_4GlueINS_2OpINS_4mtOpIdNS_3MatIdEENS_9op_stddevEEENS_9op_htransEEES7_NS_10glue_timesEEEED2Ev"
 "_ZN4arma21arma_assert_blas_sizeINS_3ColIdEEEEvRKT_"
 "_ZN4arma21arma_assert_blas_sizeINS_3ColIdEES2_EEvRKT_RKT0_"
 "_ZN4arma21arma_assert_blas_sizeINS_3MatIdEEEEvRKT_"
 "_ZN4arma21arma_assert_blas_sizeINS_3MatIdEES2_EEvRKT_RKT0_"
 "_ZN4arma21arma_assert_same_sizeIddEEvRKNS_3MatIT_EERKNS1_IT0_EEPKc"
 "_ZN4arma21arma_assert_same_sizeIdNS_3MatIdEEEEvRKNS_7subviewIT_EERKNS_5ProxyIT0_EEPKc"
 "_ZN4arma22glue_solve_gen_default5applyIdNS_3MatIdEES3_EEbRNS2_IT_EERKNS_4BaseIS4_T0_EERKNS7_IS4_T1_EE"
 "_ZN4arma22partial_unwrap_defaultINS_4mtOpIdNS_3MatIdEENS_9op_stddevEEEEC2ERKS5_"
 "_ZN4arma22partial_unwrap_defaultINS_4mtOpIdNS_3MatIdEENS_9op_stddevEEEED2Ev"
 "_ZN4arma26arma_assert_trans_mul_sizeILb0ELb0EEEvjjjjPKc"
 "_ZN4arma26arma_assert_trans_mul_sizeILb0ELb1EEEvjjjjPKc"
 "_ZN4arma26arma_assert_trans_mul_sizeILb1ELb0EEEvjjjjPKc"
 "_ZN4arma27glue_times_redirect2_helperILb0ELb0EE5applyINS_2OpINS_4mtOpIdNS_3MatIdEENS_9op_stddevEEENS_9op_htransEEES8_EEvRNS5_INT_9elem_typeEEERKNS_4GlueISB_T0_NS_10glue_timesEEE"
 "_ZN4arma27glue_times_redirect2_helperILb0ELb0EE5applyINS_3ColIdEENS_2OpIS4_NS_9op_htransEEEEEvRNS_3MatINT_9elem_typeEEERKNS_4GlueIS9_T0_NS_10glue_timesEEE"
 "_ZN4arma27glue_times_redirect2_helperILb0ELb0EE5applyINS_3MatIdEENS_3ColIdEEEEvRNS3_INT_9elem_typeEEERKNS_4GlueIS7_T0_NS_10glue_timesEEE"
 "_ZN4arma27glue_times_redirect2_helperILb0ELb1EE5applyINS_2OpINS_3MatIdEENS_9op_htransEEES5_EEvRNS4_INT_9elem_typeEEERKNS_4GlueIS8_T0_NS_10glue_timesEEE"
 "_ZN4arma27glue_times_redirect2_helperILb0ELb1EE5applyINS_3MatIdEENS_2OpIS4_NS_9op_htransEEEEEvRNS3_INT_9elem_typeEEERKNS_4GlueIS8_T0_NS_10glue_timesEEE"
 "_ZN4arma27glue_times_redirect2_helperILb1ELb0EE5applyINS_2OpINS_4mtOpIdNS_3MatIdEENS_9op_stddevEEENS_9op_htransEEES8_EEvRNS5_INT_9elem_typeEEERKNS_4GlueISB_T0_NS_10glue_timesEEE"
 "_ZN4arma27glue_times_redirect2_helperILb1ELb0EE5applyINS_3ColIdEENS_2OpIS4_NS_9op_htransEEEEEvRNS_3MatINT_9elem_typeEEERKNS_4GlueIS9_T0_NS_10glue_timesEEE"
 "_ZN4arma27glue_times_redirect2_helperILb1ELb0EE5applyINS_3MatIdEENS_3ColIdEEEEvRNS3_INT_9elem_typeEEERKNS_4GlueIS7_T0_NS_10glue_timesEEE"
 "_ZN4arma27glue_times_redirect2_helperILb1ELb1EE5applyINS_2OpINS_3MatIdEENS_9op_htransEEES5_EEvRNS4_INT_9elem_typeEEERKNS_4GlueIS8_T0_NS_10glue_timesEEE"
 "_ZN4arma27glue_times_redirect2_helperILb1ELb1EE5applyINS_3MatIdEENS_2OpIS4_NS_9op_htransEEEEEvRNS3_INT_9elem_typeEEERKNS_4GlueIS8_T0_NS_10glue_timesEEE"
 "_ZN4arma27glue_times_redirect3_helperILb0ELb0EE5applyINS_3MatIdEES4_NS_3ColIdEEEEvRNS3_INT_9elem_typeEEERKNS_4GlueINSB_IS7_T0_NS_10glue_timesEEET1_SD_EE"
 "_ZN4arma27glue_times_redirect3_helperILb1ELb0EE5applyINS_3MatIdEES4_NS_3ColIdEEEEvRNS3_INT_9elem_typeEEERKNS_4GlueINSB_IS7_T0_NS_10glue_timesEEET1_SD_EE"
 "_ZN4arma29partial_unwrap_htrans_defaultINS_4mtOpIdNS_3MatIdEENS_9op_stddevEEEEC2ERKNS_2OpIS5_NS_9op_htransEEE"
 "_ZN4arma29partial_unwrap_htrans_defaultINS_4mtOpIdNS_3MatIdEENS_9op_stddevEEEED2Ev"
 "_ZN4arma2OpINS_3ColIdEENS_10op_diagmatEEC1ERKS2_"
 "_ZN4arma2OpINS_3ColIdEENS_10op_diagmatEED1Ev"
 "_ZN4arma2OpINS_3ColIdEENS_9op_htransEEC1ERKS2_"
 "_ZN4arma2OpINS_3ColIdEENS_9op_htransEED1Ev"
 "_ZN4arma2OpINS_3MatIdEENS_15op_pinv_defaultEEC1ERKS2_"
 "_ZN4arma2OpINS_3MatIdEENS_15op_pinv_defaultEED1Ev"
 "_ZN4arma2OpINS_3MatIdEENS_6op_corEEC1ERKS2_jj"
 "_ZN4arma2OpINS_3MatIdEENS_6op_corEED1Ev"
 "_ZN4arma2OpINS_3MatIdEENS_7op_meanEEC1ERKS2_jj"
 "_ZN4arma2OpINS_3MatIdEENS_7op_meanEED1Ev"
 "_ZN4arma2OpINS_3MatIdEENS_7op_pinvEEC1ERKS2_djj"
 "_ZN4arma2OpINS_3MatIdEENS_7op_pinvEED1Ev"
 "_ZN4arma2OpINS_3MatIdEENS_9op_htransEEC1ERKS2_"
 "_ZN4arma2OpINS_3MatIdEENS_9op_htransEED1Ev"
 "_ZN4arma2OpINS_4mtOpIdNS_3MatIdEENS_9op_stddevEEENS_9op_htransEEC1ERKS5_"
 "_ZN4arma2OpINS_4mtOpIdNS_3MatIdEENS_9op_stddevEEENS_9op_htransEED1Ev"
 "_ZN4arma3ColIdEaSINS_13subview_elem1IdNS_3MatIjEEEEEERS1_RKNS_4BaseIdT_EE"
 "_ZN4arma3ColIdEC1EPdjbb"
 "_ZN4arma3ColIdEC1ERKSt6vectorIdSaIdEE"
 "_ZN4arma3ColIdEC1Ev"
 "_ZN4arma3ColIdEC1ILb0EEEjRKNS_23arma_initmode_indicatorIXT_EEE"
 "_ZN4arma3ColIdEC1INS_3eOpINS_8diagviewIdEENS_8eop_sqrtEEEEERKNS_4BaseIdT_EE"
 "_ZN4arma3ColIdEC1INS_3eOpIS1_NS_15eop_scalar_plusEEEEERKNS_4BaseIdT_EE"
 "_ZN4arma3ColIdEC1INS_3eOpIS1_NS_7eop_absEEEEERKNS_4BaseIdT_EE"
 "_ZN4arma3ColIdEC1INS_4GlueINS_3MatIdEES1_NS_10glue_timesEEEEERKNS_4BaseIdT_EE"
 "_ZN4arma3ColIdEC1INS_5eGlueIS1_NS_4GlueINS4_INS_3MatIdEES6_NS_10glue_timesEEES1_S7_EENS_11eglue_minusEEEEERKNS_4BaseIdT_EE"
 "_ZN4arma3ColIdED1Ev"
 "_ZN4arma3ColIjEC1INS_4mtOpIjNS0_IdEENS_13op_sort_indexEEEEERKNS_4BaseIjT_EE"
 "_ZN4arma3ColIjED1Ev"
 "_ZN4arma3corINS_3MatIdEEEEKNS_2OpIT_NS_6op_corEEERKNS_4BaseINS4_9elem_typeES4_EEj"
 "_ZN4arma3corINS_3MatIdEES2_EEKNS_4GlueIT_T0_NS_8glue_corEEERKNS_4BaseINS4_9elem_typeES4_EERKNS9_ISA_S5_EEj"
 "_ZN4arma3eOpINS_3ColIdEENS_15eop_scalar_plusEEC1ERKS2_d"
 "_ZN4arma3eOpINS_3ColIdEENS_15eop_scalar_plusEED1Ev"
 "_ZN4arma3eOpINS_3ColIdEENS_7eop_absEEC1ERKS2_"
 "_ZN4arma3eOpINS_3ColIdEENS_7eop_absEED1Ev"
 "_ZN4arma3eOpINS_8diagviewIdEENS_8eop_sqrtEEC1ERKS2_"
 "_ZN4arma3eOpINS_8diagviewIdEENS_8eop_sqrtEED1Ev"
 "_ZN4arma3MatIdE10soft_resetEv"
 "_ZN4arma3MatIdE3eyeEjj"
 "_ZN4arma3MatIdE3eyeEv"
 "_ZN4arma3MatIdE5resetEv"
 "_ZN4arma3MatIdE5zerosEjj"
 "_ZN4arma3MatIdE5zerosEv"
 "_ZN4arma3MatIdE8set_sizeEj"
 "_ZN4arma3MatIdE8set_sizeEjj"
 "_ZN4arma3MatIdE9head_rowsEj"
 "_ZN4arma3MatIdE9init_coldEv"
 "_ZN4arma3MatIdE9init_warmEjj"
 "_ZN4arma3MatIdE9steal_memERS1_"
 "_ZN4arma3MatIdE9steal_memERS1_b"
 "_ZN4arma3MatIdEaSERKNS_7subviewIdEE"
 "_ZN4arma3MatIdEaSERKS1_"
 "_ZN4arma3MatIdEaSINS_2OpIS1_NS_9op_htransEEES1_NS_10glue_timesEEERS1_RKNS_4GlueIT_T0_T1_EE"
 "_ZN4arma3MatIdEaSINS0_IjEEEERS1_RKNS_13subview_elem1IdT_EE"
 "_ZN4arma3MatIdEaSINS0_IjEES3_EERS1_RKNS_13subview_elem2IdT_T0_EE"
 "_ZN4arma3MatIdEaSIS1_NS_2OpINS_3ColIdEENS_10op_diagmatEEENS_15glue_times_diagEEERS1_RKNS_4GlueIT_T0_T1_EE"
 "_ZN4arma3MatIdEaSIS1_NS_2OpIS1_NS_9op_htransEEENS_10glue_timesEEERS1_RKNS_4GlueIT_T0_T1_EE"
 "_ZN4arma3MatIdEaSIS1_NS_7op_pinvEEERS1_RKNS_2OpIT_T0_EE"
 "_ZN4arma3MatIdEaSIS1_NS_9op_htransEEERS1_RKNS_2OpIT_T0_EE"
 "_ZN4arma3MatIdEC1Ejj"
 "_ZN4arma3MatIdEC1EPdjjbb"
 "_ZN4arma3MatIdEC1ERKNS_7subviewIdEE"
 "_ZN4arma3MatIdEC1ERKS1_"
 "_ZN4arma3MatIdEC1Ev"
 "_ZN4arma3MatIdEC1ILb0EEEjjRKNS_23arma_initmode_indicatorIXT_EEE"
 "_ZN4arma3MatIdEC1ILb1EEEjjRKNS_23arma_initmode_indicatorIXT_EEE"
 "_ZN4arma3MatIdEC1INS_2OpINS_4mtOpIdS1_NS_9op_stddevEEENS_9op_htransEEES6_NS_10glue_timesEEERKNS_4GlueIT_T0_T1_EE"
 "_ZN4arma3MatIdEC1INS_3ColIdEENS_2OpIS4_NS_9op_htransEEENS_10glue_timesEEERKNS_4GlueIT_T0_T1_EE"
 "_ZN4arma3MatIdEC1INS_4GlueIS1_S1_NS_10glue_timesEEENS_3ColIdEES4_EERKNS3_IT_T0_T1_EE"
 "_ZN4arma3MatIdEC1IS1_NS_15op_pinv_defaultEEERKNS_2OpIT_T0_EE"
 "_ZN4arma3MatIdEC1IS1_NS_2OpINS_3ColIdEENS_10op_diagmatEEENS_15glue_times_diagEEERKNS_4GlueIT_T0_T1_EE"
 "_ZN4arma3MatIdEC1IS1_NS_6op_corEEERKNS_2OpIT_T0_EE"
 "_ZN4arma3MatIdEC1IS1_NS_7op_meanEEERKNS_2OpIT_T0_EE"
 "_ZN4arma3MatIdEC1IS1_NS_9op_stddevEEERKNS_4mtOpIdT_T0_EE"
 "_ZN4arma3MatIdEC1IS1_S1_NS_8glue_corEEERKNS_4GlueIT_T0_T1_EE"
 "_ZN4arma3MatIdEC2EPdjjbb"
 "_ZN4arma3MatIdEC2ERKNS_18arma_vec_indicatorEjjt"
 "_ZN4arma3MatIdEC2ERKNS_18arma_vec_indicatorEt"
 "_ZN4arma3MatIdEC2INS_3ColIdEENS_15eop_scalar_plusEEERKNS_3eOpIT_T0_EERKNS_18arma_vec_indicatorEt"
 "_ZN4arma3MatIdEC2INS_3ColIdEENS_4GlueINS5_IS1_S1_NS_10glue_timesEEES4_S6_EENS_11eglue_minusEEERKNS_5eGlueIT_T0_T1_EERKNS_18arma_vec_indicatorEt"
 "_ZN4arma3MatIdEC2INS_3ColIdEENS_7eop_absEEERKNS_3eOpIT_T0_EERKNS_18arma_vec_indicatorEt"
 "_ZN4arma3MatIdEC2INS_8diagviewIdEENS_8eop_sqrtEEERKNS_3eOpIT_T0_EERKNS_18arma_vec_indicatorEt"
 "_ZN4arma3MatIdEC2IS1_NS_3ColIdEENS_10glue_timesEEERKNS_4GlueIT_T0_T1_EERKNS_18arma_vec_indicatorEt"
 "_ZN4arma3MatIdEclEjjRKNS_7SizeMatE"
 "_ZN4arma3MatIdED1Ev"
 "_ZN4arma3MatIdED2Ev"
 "_ZN4arma3MatIdEdVEd"
 "_ZN4arma3MatIdEdVERKS1_"
 "_ZN4arma3MatIdEdVINS_3ColIdEENS_2OpIS4_NS_9op_htransEEENS_10glue_timesEEERS1_RKNS_4GlueIT_T0_T1_EE"
 "_ZN4arma3MatIjE10soft_resetEv"
 "_ZN4arma3MatIjE5resetEv"
 "_ZN4arma3MatIjE5zerosEv"
 "_ZN4arma3MatIjE8set_sizeEjj"
 "_ZN4arma3MatIjE9init_warmEjj"
 "_ZN4arma3MatIjE9steal_memERS1_"
 "_ZN4arma3MatIjE9steal_memERS1_b"
 "_ZN4arma3MatIjEaSERKS1_"
 "_ZN4arma3MatIjEC1Ev"
 "_ZN4arma3MatIjEC1INS_4mtOpIjNS0_IdEENS_13op_sort_indexEEES5_EERKNS3_IjT_T0_EE"
 "_ZN4arma3MatIjEC1INS0_IdEENS_13op_sort_indexEEERKNS_4mtOpIjT_T0_EE"
 "_ZN4arma3MatIjEC2INS_3ColIdEENS_13op_sort_indexEEERKNS_4mtOpIjT_T0_EERKNS_18arma_vec_indicatorEt"
 "_ZN4arma3MatIjED1Ev"
 "_ZN4arma3MatIjED2Ev"
 "_ZN4arma3svdINS_3MatIdEEEEbRNS1_INT_9elem_typeEEERNS_3ColINS3_8pod_typeEEES6_RKNS_4BaseIS4_S3_EEPKcPKNS_25arma_blas_real_or_cx_onlyIS4_E6resultE"
 "_ZN4arma4blas3dotIdEET_jPKS2_S4_"
 "_ZN4arma4blas4gemmIdEEvPKcS3_PKiS5_S5_PKT_S8_S5_S8_S5_S8_PS6_S5_"
 "_ZN4arma4blas4gemvIdEEvPKcPKiS5_PKT_S8_S5_S8_S5_S8_PS6_S5_"
 "_ZN4arma4blas4syrkIdEEvPKcS3_PKiS5_PKT_S8_S5_S8_PS6_S5_"
 "_ZN4arma4gemmILb0ELb0ELb0ELb0EE15apply_blas_typeIdNS_3MatIdEES4_EEvRNS3_IT_EERKT0_RKT1_S5_S5_"
 "_ZN4arma4gemmILb0ELb1ELb0ELb0EE15apply_blas_typeIdNS_3ColIdEES4_EEvRNS_3MatIT_EERKT0_RKT1_S6_S6_"
 "_ZN4arma4gemmILb0ELb1ELb0ELb0EE15apply_blas_typeIdNS_3MatIdEES4_EEvRNS3_IT_EERKT0_RKT1_S5_S5_"
 "_ZN4arma4gemmILb1ELb0ELb0ELb0EE15apply_blas_typeIdNS_3MatIdEES4_EEvRNS3_IT_EERKT0_RKT1_S5_S5_"
 "_ZN4arma4gemvILb0ELb0ELb0EE15apply_blas_typeIdNS_3ColIdEEEEvPT_RKT0_PKS5_S5_S5_"
 "_ZN4arma4gemvILb0ELb0ELb0EE15apply_blas_typeIdNS_3MatIdEEEEvPT_RKT0_PKS5_S5_S5_"
 "_ZN4arma4gemvILb1ELb0ELb0EE15apply_blas_typeIdNS_3ColIdEEEEvPT_RKT0_PKS5_S5_S5_"
 "_ZN4arma4gemvILb1ELb0ELb0EE15apply_blas_typeIdNS_3MatIdEEEEvPT_RKT0_PKS5_S5_S5_"
 "_ZN4arma4GlueINS_2OpINS_3MatIdEENS_9op_htransEEES3_NS_10glue_timesEEC1ERKS5_RKS3_"
 "_ZN4arma4GlueINS_2OpINS_3MatIdEENS_9op_htransEEES3_NS_10glue_timesEED1Ev"
 "_ZN4arma4GlueINS_2OpINS_4mtOpIdNS_3MatIdEENS_9op_stddevEEENS_9op_htransEEES6_NS_10glue_timesEEC1ERKS8_RKS6_"
 "_ZN4arma4GlueINS_2OpINS_4mtOpIdNS_3MatIdEENS_9op_stddevEEENS_9op_htransEEES6_NS_10glue_timesEED1Ev"
 "_ZN4arma4GlueINS_3ColIdEENS_2OpIS2_NS_9op_htransEEENS_10glue_timesEEC1ERKS2_RKS5_"
 "_ZN4arma4GlueINS_3ColIdEENS_2OpIS2_NS_9op_htransEEENS_10glue_timesEED1Ev"
 "_ZN4arma4GlueINS_3MatIdEENS_2OpINS_3ColIdEENS_10op_diagmatEEENS_15glue_times_diagEEC1ERKS2_RKS7_"
 "_ZN4arma4GlueINS_3MatIdEENS_2OpINS_3ColIdEENS_10op_diagmatEEENS_15glue_times_diagEED1Ev"
 "_ZN4arma4GlueINS_3MatIdEENS_2OpIS2_NS_9op_htransEEENS_10glue_timesEEC1ERKS2_RKS5_"
 "_ZN4arma4GlueINS_3MatIdEENS_2OpIS2_NS_9op_htransEEENS_10glue_timesEED1Ev"
 "_ZN4arma4GlueINS_3MatIdEENS_3ColIdEENS_10glue_timesEEC1ERKS2_RKS4_"
 "_ZN4arma4GlueINS_3MatIdEENS_3ColIdEENS_10glue_timesEED1Ev"
 "_ZN4arma4GlueINS_3MatIdEES2_NS_10glue_timesEEC1ERKS2_S6_"
 "_ZN4arma4GlueINS_3MatIdEES2_NS_10glue_timesEED1Ev"
 "_ZN4arma4GlueINS_3MatIdEES2_NS_8glue_corEEC1ERKS2_S6_j"
 "_ZN4arma4GlueINS_3MatIdEES2_NS_8glue_corEED1Ev"
 "_ZN4arma4GlueINS0_INS_3MatIdEES2_NS_10glue_timesEEENS_3ColIdEES3_EC1ERKS4_RKS6_"
 "_ZN4arma4GlueINS0_INS_3MatIdEES2_NS_10glue_timesEEENS_3ColIdEES3_ED1Ev"
 "_ZN4arma4meanINS_3MatIdEEEENS_10enable_if2IXsrNS_12is_arma_typeIT_EE5valueEKNS_2OpIS5_NS_7op_meanEEEE6resultERKS5_j"
 "_ZN4arma4mtOpIdNS_3MatIdEENS_9op_stddevEEC1ERKS2_jj"
 "_ZN4arma4mtOpIdNS_3MatIdEENS_9op_stddevEED1Ev"
 "_ZN4arma4mtOpIjNS_3ColIdEENS_13op_sort_indexEEC1ERKS2_jj"
 "_ZN4arma4mtOpIjNS_3ColIdEENS_13op_sort_indexEED1Ev"
 "_ZN4arma4mtOpIjNS_3MatIdEENS_13op_sort_indexEEC1ERKS2_jj"
 "_ZN4arma4mtOpIjNS_3MatIdEENS_13op_sort_indexEED1Ev"
 "_ZN4arma4mtOpIjNS0_IjNS_3MatIdEENS_13op_sort_indexEEES3_EC1ERKS4_jj"
 "_ZN4arma4mtOpIjNS0_IjNS_3MatIdEENS_13op_sort_indexEEES3_ED1Ev"
 "_ZN4arma4pinvINS_3MatIdEEEENS_10enable_if2IXsrNS_12is_blas_realINT_8pod_typeEEE5valueEKNS_2OpIS5_NS_15op_pinv_defaultEEEE6resultERKNS_4BaseINS5_9elem_typeES5_EE"
 "_ZN4arma4pinvINS_3MatIdEEEENS_10enable_if2IXsrNS_12is_blas_realINT_8pod_typeEEE5valueEKNS_2OpIS5_NS_7op_pinvEEEE6resultERKNS_4BaseINS5_9elem_typeES5_EES6_PKc"
 "_ZN4arma4sizeIdEEKNS_7SizeMatERKNS_3MatIT_EE"
 "_ZN4arma4syrkILb0ELb0ELb0EE15apply_blas_typeIdNS_3ColIdEEEEvRNS_3MatIT_EERKT0_S6_S6_"
 "_ZN4arma4syrkILb0ELb0ELb0EE15apply_blas_typeIdNS_3MatIdEEEEvRNS3_IT_EERKT0_S5_S5_"
 "_ZN4arma4syrkILb1ELb0ELb0EE15apply_blas_typeIdNS_3MatIdEEEEvRNS3_IT_EERKT0_S5_S5_"
 "_ZN4arma5ProxyINS_3ColIdEEEC1ERKS2_"
 "_ZN4arma5ProxyINS_3MatIdEEEC1ERKS2_"
 "_ZN4arma5ProxyINS_4GlueINS_3MatIdEES3_NS_8glue_corEEEEC1ERKS5_"
 "_ZN4arma5ProxyINS_4GlueINS_3MatIdEES3_NS_8glue_corEEEED1Ev"
 "_ZN4arma5ProxyINS_4GlueINS1_INS_3MatIdEES3_NS_10glue_timesEEENS_3ColIdEES4_EEEC1ERKS8_"
 "_ZN4arma5ProxyINS_4GlueINS1_INS_3MatIdEES3_NS_10glue_timesEEENS_3ColIdEES4_EEED1Ev"
 "_ZN4arma5ProxyINS_4mtOpIjNS_3MatIdEENS_13op_sort_indexEEEEC1ERKS5_"
 "_ZN4arma5ProxyINS_4mtOpIjNS_3MatIdEENS_13op_sort_indexEEEED1Ev"
 "_ZN4arma5ProxyINS_8diagviewIdEEEC1ERKS2_"
 "_ZN4arma5solveINS_3MatIdEES2_EENS_10enable_if2IXsrNS_12is_blas_typeINT_9elem_typeEEE5valueEbE6resultERNS1_IS6_EERKNS_4BaseIS6_S5_EERKNSC_IS6_T0_EE"
 "_ZN4arma6access2rwIdEERT_RKS2_"
 "_ZN4arma6access2rwIjEERT_RKS2_"
 "_ZN4arma6access2rwIPKdEERT_RKS4_"
 "_ZN4arma6access2rwIPKjEERT_RKS4_"
 "_ZN4arma6access2rwItEERT_RKS2_"
 "_ZN4arma6access8tmp_realIdEERKT_S4_"
 "_ZN4arma6auxlib10eig_sym_dcIdEEbRNS_3ColIT_EERNS_3MatIS3_EERKS7_"
 "_ZN4arma6auxlib10norm1_bandIdEENS_12get_pod_typeIT_E6resultERKNS_3MatIS3_EEjj"
 "_ZN4arma6auxlib11svd_dc_econIdEEbRNS_3MatIT_EERNS_3ColIS3_EES5_S5_"
 "_ZN4arma6auxlib12rcond_trimatIdEET_RKNS_3MatIS2_EEj"
 "_ZN4arma6auxlib13lu_rcond_bandIdEET_RKNS_3MatIS2_EEjjRKNS_8podarrayIiEES2_"
 "_ZN4arma6auxlib14lu_rcond_sympdIdEET_RKNS_3MatIS2_EES2_"
 "_ZN4arma6auxlib15solve_sym_rcondINS_3MatIdEEEEbRNS2_INT_8pod_typeEEERS5_S7_RKNS_4BaseIS5_S4_EE"
 "_ZN4arma6auxlib16solve_approx_svdINS_3MatIdEEEEbRNS2_INT_8pod_typeEEES7_RKNS_4BaseIS5_S4_EE"
 "_ZN4arma6auxlib16solve_band_rcondINS_3MatIdEEEEbRNS2_INT_9elem_typeEEERNS4_8pod_typeERKS6_jjRKNS_4BaseIS5_S4_EE"
 "_ZN4arma6auxlib16solve_rect_rcondINS_3MatIdEEEEbRNS2_INT_9elem_typeEEERNS4_8pod_typeES7_RKNS_4BaseIS5_S4_EE"
 "_ZN4arma6auxlib17solve_sympd_rcondINS_3MatIdEEEEbRNS2_INT_8pod_typeEEERbRS5_S7_RKNS_4BaseIS5_S4_EE"
 "_ZN4arma6auxlib18solve_square_rcondINS_3MatIdEEEEbRNS2_INT_9elem_typeEEERNS4_8pod_typeES7_RKNS_4BaseIS5_S4_EE"
 "_ZN4arma6auxlib18solve_trimat_rcondINS_3MatIdEEEEbRNS2_INT_9elem_typeEEERNS4_8pod_typeERKS6_RKNS_4BaseIS5_S4_EEj"
 "_ZN4arma6auxlib3svdIdEEbRNS_3MatIT_EERNS_3ColIS3_EES5_S5_"
 "_ZN4arma6auxlib6svd_dcIdEEbRNS_3MatIT_EERNS_3ColIS3_EES5_S5_"
 "_ZN4arma6auxlib7eig_symIdEEbRNS_3ColIT_EERNS_3MatIS3_EERKS7_"
 "_ZN4arma6auxlib8lu_rcondIdEET_RKNS_3MatIS2_EES2_"
 "_ZN4arma6auxlib8svd_econIdEEbRNS_3MatIT_EERNS_3ColIS3_EES5_S5_c"
 "_ZN4arma6lapack4gelsIdEEvPcPiS3_S3_PT_S3_S5_S3_S5_S3_S3_"
 "_ZN4arma6lapack4syevIdEEvPcS2_PiPT_S3_S5_S5_S3_S3_"
 "_ZN4arma6lapack5gbconIdEEvPcPiS3_S3_PKT_S3_PKiS6_PS4_S9_S3_S3_"
 "_ZN4arma6lapack5gbtrfIdEEvPiS2_S2_S2_PT_S2_S2_S2_"
 "_ZN4arma6lapack5gbtrsIdEEvPcPiS3_S3_S3_PT_S3_S3_S5_S3_S3_"
 "_ZN4arma6lapack5geconIdEEvPcPiPKT_S3_S6_PS4_S7_S3_S3_"
 "_ZN4arma6lapack5gelsdIdEEvPiS2_S2_PT_S2_S4_S2_S4_S4_S2_S4_S2_S2_S2_"
 "_ZN4arma6lapack5gesddIdEEvPcPiS3_PT_S3_S5_S5_S3_S5_S3_S5_S3_S3_S3_"
 "_ZN4arma6lapack5gesvdIdEEvPcS2_PiS3_PT_S3_S5_S5_S3_S5_S3_S5_S3_S3_"
 "_ZN4arma6lapack5getrfIdEEvPiS2_PT_S2_S2_S2_"
 "_ZN4arma6lapack5getrsIdEEvPcPiS3_PT_S3_S3_S5_S3_S3_"
 "_ZN4arma6lapack5laenvEPiPcS2_S1_S1_S1_S1_yy"
 "_ZN4arma6lapack5langeIdEENS_12get_pod_typeIT_E6resultEPcPiS7_PS3_S7_PS5_"
 "_ZN4arma6lapack5lansyIdEENS_12get_pod_typeIT_E6resultEPcS6_PiPS3_S7_PS5_"
 "_ZN4arma6lapack5poconIdEEvPcPiPKT_S3_S6_PS4_S7_S3_S3_"
 "_ZN4arma6lapack5potrfIdEEvPcPiPT_S3_S3_"
 "_ZN4arma6lapack5potrsIdEEvPcPiPKiPT_S3_S7_S3_S3_"
 "_ZN4arma6lapack5syconIdEEvPKcPKiPKT_S5_S5_S8_PS6_S9_PiSA_"
 "_ZN4arma6lapack5syevdIdEEvPcS2_PiPT_S3_S5_S5_S3_S3_S3_S3_"
 "_ZN4arma6lapack5sytrfIdEEvPKcPKiPT_S5_PiS7_S5_S8_"
 "_ZN4arma6lapack5sytrsIdEEvPKcPKiS5_PKT_S5_S5_PS6_S5_Pi"
 "_ZN4arma6lapack5trconIdEEvPcS2_S2_PiPKT_S3_PS4_S7_S3_S3_"
 "_ZN4arma6lapack5trtrsIdEEvPcS2_S2_PiS3_PKT_S3_PS4_S3_S3_"
 "_ZN4arma6memory7acquireIdEEPT_j"
 "_ZN4arma6memory7acquireIiEEPT_j"
 "_ZN4arma6memory7acquireIjEEPT_j"
 "_ZN4arma6op_cor5applyINS_3MatIdEEEEvRNS2_INT_9elem_typeEEERKNS_2OpIS4_S0_EE"
 "_ZN4arma6op_dot10direct_dotIdEENS_19arma_blas_real_onlyIT_E6resultEjPKS3_S7_"
 "_ZN4arma6op_dot18direct_dot_genericIdEENS_11arma_not_cxIT_E6resultEjPKS3_S7_"
 "_ZN4arma6op_var10direct_varIdEET_PKS2_jj"
 "_ZN4arma6op_var17direct_var_robustIdEET_PKS2_jj"
 "_ZN4arma6stddevINS_3MatIdEEEENS_10enable_if2IXaasrNS_12is_arma_typeIT_EE5valuesrNS_18resolves_to_vectorIS5_EE2noEKNS_4mtOpINS5_8pod_typeES5_NS_9op_stddevEEEE6resultERKS5_j"
 "_ZN4arma6unwrapINS_3MatIdEEEC1ERKS2_"
 "_ZN4arma7conv_toINS_3ColIdEEE4fromIjNS_4mtOpIjNS5_IjNS_3MatIdEENS_13op_sort_indexEEES8_EEEES2_RKNS_4BaseIT_T0_EEPKNS_11arma_not_cxISC_E6resultE"
 "_ZN4arma7conv_toINS_3MatIdEEE4fromIdNS_4GlueINS_2OpINS_4mtOpIdS2_NS_9op_stddevEEENS_9op_htransEEES9_NS_10glue_timesEEEEES2_RKNS_4BaseIT_T0_EEPKNS_11arma_not_cxISF_E6resultE"
 "_ZN4arma7diagmatINS_3ColIdEEEENS_10enable_if2IXsrNS_12is_arma_typeIT_EE5valueEKNS_2OpIS5_NS_10op_diagmatEEEE6resultERKS5_"
 "_ZN4arma7op_mean11direct_meanIdEET_PKS2_j"
 "_ZN4arma7op_mean13apply_noaliasIdEEvRNS_3MatIT_EERKS4_j"
 "_ZN4arma7op_mean18direct_mean_robustIdEET_S2_PKS2_j"
 "_ZN4arma7op_mean5applyINS_3MatIdEEEEvRNS_11Mat_noaliasINT_9elem_typeEEERKNS_2OpIS5_S0_EE"
 "_ZN4arma7op_pinv10apply_diagIdEEbRNS_3MatIT_EERKS4_NS_12get_pod_typeIS3_E6resultE"
 "_ZN4arma7op_pinv12apply_directINS_3MatIdEEEEbRNS2_INT_9elem_typeEEERKNS_4BaseIS5_S4_EENS4_8pod_typeEj"
 "_ZN4arma7op_pinv5applyINS_3MatIdEEEEvRNS2_INT_9elem_typeEEERKNS_2OpIS4_S0_EE"
 "_ZN4arma7op_pinv9apply_genIdEEbRNS_3MatIT_EES5_NS_12get_pod_typeIS3_E6resultEj"
 "_ZN4arma7op_pinv9apply_symIdEEbRNS_3MatIT_EERKS4_NS_12get_pod_typeIS3_E6resultEj"
 "_ZN4arma7SizeMatC1Ejj"
 "_ZN4arma7subviewIdE10inplace_opINS_15op_internal_equENS_3MatIdEEEEvRKNS_4BaseIdT0_EEPKc"
 "_ZN4arma7subviewIdE4fillEd"
 "_ZN4arma7subviewIdE4onesEv"
 "_ZN4arma7subviewIdE7extractERNS_3MatIdEERKS1_"
 "_ZN4arma7subviewIdEaSINS_3MatIdEEEEvRKNS_4BaseIdT_EE"
 "_ZN4arma7subviewIdED1Ev"
 "_ZN4arma7subviewIdED2Ev"
 "_ZN4arma8arma_str11char_buffer8set_sizeEj"
 "_ZN4arma8arma_str11char_bufferC1Ev"
 "_ZN4arma8arma_str11char_bufferD1Ev"
 "_ZN4arma8arma_str3strIcEENSt7__cxx1112basic_stringIcSt11char_traitsIcESaIcEEERKNS0_12basic_formatINS0_6formatET_EE"
 "_ZN4arma8arma_str3strIjEENSt7__cxx1112basic_stringIcSt11char_traitsIcESaIcEEERKNS0_12basic_formatINS0_6formatET_EE"
 "_ZN4arma8arma_str3strIjjjjEENSt7__cxx1112basic_stringIcSt11char_traitsIcESaIcEEERKNS0_12basic_formatINS8_INS8_INS8_INS0_6formatET_EET0_EET1_EET2_EE"
 "_ZN4arma8arma_strlsINS0_12basic_formatINS2_INS2_INS0_6formatEjEEjEEjEEjEERSoS7_RKNS2_IT_T0_EE"
 "_ZN4arma8arma_strlsINS0_6formatEcEERSoS3_RKNS0_12basic_formatIT_T0_EE"
 "_ZN4arma8arma_strlsINS0_6formatEjEERSoS3_RKNS0_12basic_formatIT_T0_EE"
 "_ZN4arma8arrayops10accumulateIdEET_PKS2_j"
 "_ZN4arma8arrayops10fill_zerosIdEEvPT_j"
 "_ZN4arma8arrayops10fill_zerosIjEEvPT_j"
 "_ZN4arma8arrayops11inplace_divIdEEvPT_PKS2_j"
 "_ZN4arma8arrayops11inplace_divIdEEvPT_S2_j"
 "_ZN4arma8arrayops11inplace_setIdEEvPT_S2_j"
 "_ZN4arma8arrayops12inplace_plusIdEEvPT_PKS2_j"
 "_ZN4arma8arrayops16inplace_div_baseIdEEvPT_PKS2_j"
 "_ZN4arma8arrayops16inplace_div_baseIdEEvPT_S2_j"
 "_ZN4arma8arrayops16inplace_set_baseIdEEvPT_S2_j"
 "_ZN4arma8arrayops17inplace_plus_baseIdEEvPT_PKS2_j"
 "_ZN4arma8arrayops18inplace_set_simpleIdEEvPT_S2_j"
 "_ZN4arma8arrayops7convertIddEEvPT_PKT0_j"
 "_ZN4arma8arrayops7convertIdjEEvPT_PKT0_j"
 "_ZN4arma8arrayops9is_finiteIdEEbPKT_j"
 "_ZN4arma8diagviewIdED1Ev"
 "_ZN4arma8eop_coreINS_15eop_scalar_plusEE5applyINS_3MatIdEENS_3ColIdEEEEvRT_RKNS_3eOpIT0_S1_EE"
 "_ZN4arma8eop_coreINS_7eop_absEE5applyINS_3MatIdEENS_3ColIdEEEEvRT_RKNS_3eOpIT0_S1_EE"
 "_ZN4arma8eop_coreINS_8eop_sqrtEE5applyINS_3MatIdEENS_8diagviewIdEEEEvRT_RKNS_3eOpIT0_S1_EE"
 "_ZN4arma8glue_cor5applyINS_3MatIdEES3_EEvRNS2_INT_9elem_typeEEERKNS_4GlueIS4_T0_S0_EE"
 "_ZN4arma8podarrayIdE8copy_rowERKNS_3MatIdEEj"
 "_ZN4arma8podarrayIdE9init_coldEj"
 "_ZN4arma8podarrayIdE9init_warmEj"
 "_ZN4arma8podarrayIdEC1Ev"
 "_ZN4arma8podarrayIdED1Ev"
 "_ZN4arma8podarrayIiE9init_coldEj"
 "_ZN4arma8podarrayIiED1Ev"
 "_ZN4arma8syrk_vecILb0ELb0ELb0EE5applyIdNS_3ColIdEEEEvRNS_3MatIT_EERKT0_S6_S6_"
 "_ZN4arma8syrk_vecILb0ELb0ELb0EE5applyIdNS_3MatIdEEEEvRNS3_IT_EERKT0_S5_S5_"
 "_ZN4arma8syrk_vecILb1ELb0ELb0EE5applyIdNS_3MatIdEEEEvRNS3_IT_EERKT0_S5_S5_"
 "_ZN4arma9arma_warnIA28_cEEvjRKT_"
 "_ZN4arma9arma_warnIA37_cdA30_cEEvjRKT_RKT0_RKT1_"
 "_ZN4arma9arma_warnIA56_cEEvjRKT_"
 "_ZN4arma9arma_warnIA96_cEEvjRKT_"
 "_ZN4arma9arma_warnIA97_cEEvjRKT_"
 "_ZN4arma9as_scalarINS_4GlueINS_3MatIdEES3_NS_8glue_corEEEEENT_9elem_typeERKNS_4BaseIS7_S6_EE"
 "_ZN4arma9op_htrans5applyINS_3MatIdEEEEvRNS2_INT_9elem_typeEEERKNS_2OpIS4_S0_EEPKNS_11arma_not_cxIS5_E6resultE"
 "_ZN4arma9op_stddev13apply_noaliasIdEEvRNS_3MatINS_12get_pod_typeIT_E6resultEEERKNS2_IS4_EEjj"
 "_ZN4arma9op_stddev5applyINS_3MatIdEEEEvRNS_11Mat_noaliasINT_8pod_typeEEERKNS_4mtOpIS6_S5_S0_EE"
 "_ZN4arma9op_strans12apply_directINS_3MatIdEEEEvRNS2_INT_9elem_typeEEERKS4_"
 "_ZN4arma9op_strans12block_workerIdEEvPT_PKS2_jjjj"
 "_ZN4arma9op_strans17apply_mat_inplaceIdEEvRNS_3MatIT_EE"
 "_ZN4arma9op_strans17apply_mat_noaliasIdNS_3ColIdEEEEvRNS_3MatIT_EERKT0_"
 "_ZN4arma9op_strans17apply_mat_noaliasIdNS_3MatIdEEEEvRNS2_IT_EERKT0_"
 "_ZN4arma9op_strans23apply_mat_noalias_largeIdEEvRNS_3MatIT_EERKS4_"
 "_ZN4arma9op_strans24apply_mat_noalias_tinysqIdNS_3ColIdEEEEvRNS_3MatIT_EERKT0_"
 "_ZN4arma9op_strans24apply_mat_noalias_tinysqIdNS_3MatIdEEEEvRNS2_IT_EERKT0_"
 "_ZN4arma9op_strans9apply_matIdNS_3MatIdEEEEvRNS2_IT_EERKT0_"
 "_ZN4arma9syrk_emulILb0ELb0ELb0EE5applyIdNS_3ColIdEEEEvRNS_3MatIT_EERKT0_S6_S6_"
 "_ZN4arma9syrk_emulILb0ELb0ELb0EE5applyIdNS_3MatIdEEEEvRNS3_IT_EERKT0_S5_S5_"
 "_ZN4arma9syrk_emulILb1ELb0ELb0EE5applyIdNS_3MatIdEEEEvRNS3_IT_EERKT0_S5_S5_"
 "_ZN4Rcpp10RstreambufILb0EE4syncEv"
 "_ZN4Rcpp10RstreambufILb0EE6xsputnEPKcx"
 "_ZN4Rcpp10RstreambufILb0EE8overflowEi"
 "_ZN4Rcpp10RstreambufILb0EEC1Ev"
 "_ZN4Rcpp10RstreambufILb0EED0Ev"
 "_ZN4Rcpp10RstreambufILb0EED1Ev"
 "_ZN4Rcpp10RstreambufILb1EE4syncEv"
 "_ZN4Rcpp10RstreambufILb1EE6xsputnEPKcx"
 "_ZN4Rcpp10RstreambufILb1EE8overflowEi"
 "_ZN4Rcpp10RstreambufILb1EEC1Ev"
 "_ZN4Rcpp10RstreambufILb1EED0Ev"
 "_ZN4Rcpp10RstreambufILb1EED1Ev"
 "_ZN4Rcpp8internal16NamedPlaceHolderC1Ev"
 "_ZN4Rcpp8internal16NamedPlaceHolderD1Ev"
 "_ZN4Rcpp8RostreamILb0EEC1Ev"
 "_ZN4Rcpp8RostreamILb0EED0Ev"
 "_ZN4Rcpp8RostreamILb0EED1Ev"
 "_ZN4Rcpp8RostreamILb1EEC1Ev"
 "_ZN4Rcpp8RostreamILb1EED0Ev"
 "_ZN4Rcpp8RostreamILb1EED1Ev"
 "_ZN9__gnu_cxx11char_traitsIcE2eqERKcS3_"
 "_ZN9__gnu_cxx11char_traitsIcE6lengthEPKc"
 "_ZN9__gnu_cxx17__normal_iteratorIPdSt6vectorIdSaIdEEEC1ERKS1_"
 "_ZN9__gnu_cxx17__normal_iteratorIPdSt6vectorIdSaIdEEEmmEv"
 "_ZN9__gnu_cxx17__normal_iteratorIPdSt6vectorIdSaIdEEEppEv"
 "_ZN9__gnu_cxx17__normal_iteratorIPKdSt6vectorIdSaIdEEEC1ERKS2_"
 "_ZN9__gnu_cxx17__normal_iteratorIPKdSt6vectorIdSaIdEEEppEv"
 "_ZN9__gnu_cxx17__normal_iteratorIPKSt6vectorIdSaIdEES1_IS3_SaIS3_EEEC1ERKS5_"
 "_ZN9__gnu_cxx17__normal_iteratorIPKSt6vectorIdSaIdEES1_IS3_SaIS3_EEEppEv"
 "_ZN9__gnu_cxx17__normal_iteratorIPKySt6vectorIySaIyEEEC1ERKS2_"
 "_ZN9__gnu_cxx17__normal_iteratorIPN4arma22arma_sort_index_packetIdEESt6vectorIS3_SaIS3_EEEC1ERKS4_"
 "_ZN9__gnu_cxx17__normal_iteratorIPN4arma22arma_sort_index_packetIdEESt6vectorIS3_SaIS3_EEEmmEv"
 "_ZN9__gnu_cxx17__normal_iteratorIPN4arma22arma_sort_index_packetIdEESt6vectorIS3_SaIS3_EEEpLEx"
 "_ZN9__gnu_cxx17__normal_iteratorIPN4arma22arma_sort_index_packetIdEESt6vectorIS3_SaIS3_EEEppEv"
 "_ZN9__gnu_cxx17__normal_iteratorIPN4arma22arma_sort_index_packetIjEESt6vectorIS3_SaIS3_EEEC1ERKS4_"
 "_ZN9__gnu_cxx17__normal_iteratorIPN4arma22arma_sort_index_packetIjEESt6vectorIS3_SaIS3_EEEmmEv"
 "_ZN9__gnu_cxx17__normal_iteratorIPN4arma22arma_sort_index_packetIjEESt6vectorIS3_SaIS3_EEEpLEx"
 "_ZN9__gnu_cxx17__normal_iteratorIPN4arma22arma_sort_index_packetIjEESt6vectorIS3_SaIS3_EEEppEv"
 "_ZN9__gnu_cxx17__normal_iteratorIPSt6vectorIdSaIdEES1_IS3_SaIS3_EEEC1ERKS4_"
 "_ZN9__gnu_cxx17__normal_iteratorIPSt6vectorIdSaIdEES1_IS3_SaIS3_EEEppEv"
 "_ZN9__gnu_cxx17__normal_iteratorIPySt6vectorIySaIyEEEC1ERKS1_"
 "_ZN9__gnu_cxx17__normal_iteratorIPySt6vectorIySaIyEEEppEv"
 "_ZN9__gnu_cxx5__ops14_Iter_comp_valIN4arma29arma_sort_index_helper_ascendIdEEEC1EONS0_15_Iter_comp_iterIS4_EE"
 "_ZN9__gnu_cxx5__ops14_Iter_comp_valIN4arma29arma_sort_index_helper_ascendIdEEEclINS_17__normal_iteratorIPNS2_22arma_sort_index_packetIdEESt6vectorIS9_SaIS9_EEEEKS9_EEbT_RT0_"
 "_ZN9__gnu_cxx5__ops14_Iter_comp_valIN4arma29arma_sort_index_helper_ascendIjEEEC1EONS0_15_Iter_comp_iterIS4_EE"
 "_ZN9__gnu_cxx5__ops14_Iter_comp_valIN4arma29arma_sort_index_helper_ascendIjEEEclINS_17__normal_iteratorIPNS2_22arma_sort_index_packetIjEESt6vectorIS9_SaIS9_EEEEKS9_EEbT_RT0_"
 "_ZN9__gnu_cxx5__ops14_Iter_comp_valIN4arma30arma_sort_index_helper_descendIdEEEC1EONS0_15_Iter_comp_iterIS4_EE"
 "_ZN9__gnu_cxx5__ops14_Iter_comp_valIN4arma30arma_sort_index_helper_descendIdEEEclINS_17__normal_iteratorIPNS2_22arma_sort_index_packetIdEESt6vectorIS9_SaIS9_EEEEKS9_EEbT_RT0_"
 "_ZN9__gnu_cxx5__ops14_Iter_comp_valIN4arma30arma_sort_index_helper_descendIjEEEC1EONS0_15_Iter_comp_iterIS4_EE"
 "_ZN9__gnu_cxx5__ops14_Iter_comp_valIN4arma30arma_sort_index_helper_descendIjEEEclINS_17__normal_iteratorIPNS2_22arma_sort_index_packetIjEESt6vectorIS9_SaIS9_EEEEKS9_EEbT_RT0_"
 "_ZN9__gnu_cxx5__ops14_Iter_less_valC1ENS0_15_Iter_less_iterE"
 "_ZN9__gnu_cxx5__ops14_Val_comp_iterIN4arma29arma_sort_index_helper_ascendIdEEEC1EONS0_15_Iter_comp_iterIS4_EE"
 "_ZN9__gnu_cxx5__ops14_Val_comp_iterIN4arma29arma_sort_index_helper_ascendIdEEEclIKNS2_22arma_sort_index_packetIdEENS_17__normal_iteratorIPS8_St6vectorIS8_SaIS8_EEEEEEbRT_T0_"
 "_ZN9__gnu_cxx5__ops14_Val_comp_iterIN4arma29arma_sort_index_helper_ascendIdEEEclINS2_22arma_sort_index_packetIdEENS_17__normal_iteratorIPS8_St6vectorIS8_SaIS8_EEEEEEbRT_T0_"
 "_ZN9__gnu_cxx5__ops14_Val_comp_iterIN4arma29arma_sort_index_helper_ascendIjEEEC1EONS0_15_Iter_comp_iterIS4_EE"
 "_ZN9__gnu_cxx5__ops14_Val_comp_iterIN4arma29arma_sort_index_helper_ascendIjEEEclIKNS2_22arma_sort_index_packetIjEENS_17__normal_iteratorIPS8_St6vectorIS8_SaIS8_EEEEEEbRT_T0_"
 "_ZN9__gnu_cxx5__ops14_Val_comp_iterIN4arma29arma_sort_index_helper_ascendIjEEEclINS2_22arma_sort_index_packetIjEENS_17__normal_iteratorIPS8_St6vectorIS8_SaIS8_EEEEEEbRT_T0_"
 "_ZN9__gnu_cxx5__ops14_Val_comp_iterIN4arma30arma_sort_index_helper_descendIdEEEC1EONS0_15_Iter_comp_iterIS4_EE"
 "_ZN9__gnu_cxx5__ops14_Val_comp_iterIN4arma30arma_sort_index_helper_descendIdEEEclIKNS2_22arma_sort_index_packetIdEENS_17__normal_iteratorIPS8_St6vectorIS8_SaIS8_EEEEEEbRT_T0_"
 "_ZN9__gnu_cxx5__ops14_Val_comp_iterIN4arma30arma_sort_index_helper_descendIdEEEclINS2_22arma_sort_index_packetIdEENS_17__normal_iteratorIPS8_St6vectorIS8_SaIS8_EEEEEEbRT_T0_"
 "_ZN9__gnu_cxx5__ops14_Val_comp_iterIN4arma30arma_sort_index_helper_descendIjEEEC1EONS0_15_Iter_comp_iterIS4_EE"
 "_ZN9__gnu_cxx5__ops14_Val_comp_iterIN4arma30arma_sort_index_helper_descendIjEEEclIKNS2_22arma_sort_index_packetIjEENS_17__normal_iteratorIPS8_St6vectorIS8_SaIS8_EEEEEEbRT_T0_"
 "_ZN9__gnu_cxx5__ops14_Val_comp_iterIN4arma30arma_sort_index_helper_descendIjEEEclINS2_22arma_sort_index_packetIjEENS_17__normal_iteratorIPS8_St6vectorIS8_SaIS8_EEEEEEbRT_T0_"
 "_ZN9__gnu_cxx5__ops15__iter_comp_valIN4arma29arma_sort_index_helper_ascendIdEEEENS0_14_Iter_comp_valIT_EENS0_15_Iter_comp_iterIS6_EE"
 "_ZN9__gnu_cxx5__ops15__iter_comp_valIN4arma29arma_sort_index_helper_ascendIjEEEENS0_14_Iter_comp_valIT_EENS0_15_Iter_comp_iterIS6_EE"
 "_ZN9__gnu_cxx5__ops15__iter_comp_valIN4arma30arma_sort_index_helper_descendIdEEEENS0_14_Iter_comp_valIT_EENS0_15_Iter_comp_iterIS6_EE"
 "_ZN9__gnu_cxx5__ops15__iter_comp_valIN4arma30arma_sort_index_helper_descendIjEEEENS0_14_Iter_comp_valIT_EENS0_15_Iter_comp_iterIS6_EE"
 "_ZN9__gnu_cxx5__ops15__val_comp_iterENS0_15_Iter_less_iterE"
 "_ZN9__gnu_cxx5__ops15__val_comp_iterIN4arma29arma_sort_index_helper_ascendIdEEEENS0_14_Val_comp_iterIT_EENS0_15_Iter_comp_iterIS6_EE"
 "_ZN9__gnu_cxx5__ops15__val_comp_iterIN4arma29arma_sort_index_helper_ascendIjEEEENS0_14_Val_comp_iterIT_EENS0_15_Iter_comp_iterIS6_EE"
 "_ZN9__gnu_cxx5__ops15__val_comp_iterIN4arma30arma_sort_index_helper_descendIdEEEENS0_14_Val_comp_iterIT_EENS0_15_Iter_comp_iterIS6_EE"
 "_ZN9__gnu_cxx5__ops15__val_comp_iterIN4arma30arma_sort_index_helper_descendIjEEEENS0_14_Val_comp_iterIT_EENS0_15_Iter_comp_iterIS6_EE"
 "_ZN9__gnu_cxx5__ops15_Iter_comp_iterIN4arma29arma_sort_index_helper_ascendIdEEEC1ES4_"
 "_ZN9__gnu_cxx5__ops15_Iter_comp_iterIN4arma29arma_sort_index_helper_ascendIdEEEclINS_17__normal_iteratorIPNS2_22arma_sort_index_packetIdEESt6vectorIS9_SaIS9_EEEESA_EEbT_T0_"
 "_ZN9__gnu_cxx5__ops15_Iter_comp_iterIN4arma29arma_sort_index_helper_ascendIdEEEclINS_17__normal_iteratorIPNS2_22arma_sort_index_packetIdEESt6vectorIS9_SaIS9_EEEESE_EEbT_T0_"
 "_ZN9__gnu_cxx5__ops15_Iter_comp_iterIN4arma29arma_sort_index_helper_ascendIdEEEclIPNS2_22arma_sort_index_packetIdEENS_17__normal_iteratorIS9_St6vectorIS8_SaIS8_EEEEEEbT_T0_"
 "_ZN9__gnu_cxx5__ops15_Iter_comp_iterIN4arma29arma_sort_index_helper_ascendIdEEEclIPNS2_22arma_sort_index_packetIdEES9_EEbT_T0_"
 "_ZN9__gnu_cxx5__ops15_Iter_comp_iterIN4arma29arma_sort_index_helper_ascendIjEEEC1ES4_"
 "_ZN9__gnu_cxx5__ops15_Iter_comp_iterIN4arma29arma_sort_index_helper_ascendIjEEEclINS_17__normal_iteratorIPNS2_22arma_sort_index_packetIjEESt6vectorIS9_SaIS9_EEEESA_EEbT_T0_"
 "_ZN9__gnu_cxx5__ops15_Iter_comp_iterIN4arma29arma_sort_index_helper_ascendIjEEEclINS_17__normal_iteratorIPNS2_22arma_sort_index_packetIjEESt6vectorIS9_SaIS9_EEEESE_EEbT_T0_"
 "_ZN9__gnu_cxx5__ops15_Iter_comp_iterIN4arma29arma_sort_index_helper_ascendIjEEEclIPNS2_22arma_sort_index_packetIjEENS_17__normal_iteratorIS9_St6vectorIS8_SaIS8_EEEEEEbT_T0_"
 "_ZN9__gnu_cxx5__ops15_Iter_comp_iterIN4arma29arma_sort_index_helper_ascendIjEEEclIPNS2_22arma_sort_index_packetIjEES9_EEbT_T0_"
 "_ZN9__gnu_cxx5__ops15_Iter_comp_iterIN4arma30arma_sort_index_helper_descendIdEEEC1ES4_"
 "_ZN9__gnu_cxx5__ops15_Iter_comp_iterIN4arma30arma_sort_index_helper_descendIdEEEclINS_17__normal_iteratorIPNS2_22arma_sort_index_packetIdEESt6vectorIS9_SaIS9_EEEESA_EEbT_T0_"
 "_ZN9__gnu_cxx5__ops15_Iter_comp_iterIN4arma30arma_sort_index_helper_descendIdEEEclINS_17__normal_iteratorIPNS2_22arma_sort_index_packetIdEESt6vectorIS9_SaIS9_EEEESE_EEbT_T0_"
 "_ZN9__gnu_cxx5__ops15_Iter_comp_iterIN4arma30arma_sort_index_helper_descendIdEEEclIPNS2_22arma_sort_index_packetIdEENS_17__normal_iteratorIS9_St6vectorIS8_SaIS8_EEEEEEbT_T0_"
 "_ZN9__gnu_cxx5__ops15_Iter_comp_iterIN4arma30arma_sort_index_helper_descendIdEEEclIPNS2_22arma_sort_index_packetIdEES9_EEbT_T0_"
 "_ZN9__gnu_cxx5__ops15_Iter_comp_iterIN4arma30arma_sort_index_helper_descendIjEEEC1ES4_"
 "_ZN9__gnu_cxx5__ops15_Iter_comp_iterIN4arma30arma_sort_index_helper_descendIjEEEclINS_17__normal_iteratorIPNS2_22arma_sort_index_packetIjEESt6vectorIS9_SaIS9_EEEESA_EEbT_T0_"
 "_ZN9__gnu_cxx5__ops15_Iter_comp_iterIN4arma30arma_sort_index_helper_descendIjEEEclINS_17__normal_iteratorIPNS2_22arma_sort_index_packetIjEESt6vectorIS9_SaIS9_EEEESE_EEbT_T0_"
 "_ZN9__gnu_cxx5__ops15_Iter_comp_iterIN4arma30arma_sort_index_helper_descendIjEEEclIPNS2_22arma_sort_index_packetIjEENS_17__normal_iteratorIS9_St6vectorIS8_SaIS8_EEEEEEbT_T0_"
 "_ZN9__gnu_cxx5__ops15_Iter_comp_iterIN4arma30arma_sort_index_helper_descendIjEEEclIPNS2_22arma_sort_index_packetIjEES9_EEbT_T0_"
 "_ZN9__gnu_cxx5__ops16__iter_comp_iterIN4arma29arma_sort_index_helper_ascendIdEEEENS0_15_Iter_comp_iterIT_EES6_"
 "_ZN9__gnu_cxx5__ops16__iter_comp_iterIN4arma29arma_sort_index_helper_ascendIjEEEENS0_15_Iter_comp_iterIT_EES6_"
 "_ZN9__gnu_cxx5__ops16__iter_comp_iterIN4arma30arma_sort_index_helper_descendIdEEEENS0_15_Iter_comp_iterIT_EES6_"
 "_ZN9__gnu_cxx5__ops16__iter_comp_iterIN4arma30arma_sort_index_helper_descendIjEEEENS0_15_Iter_comp_iterIT_EES6_"
 "_ZN9__gnu_cxx5__ops16__iter_less_iterEv"
 "_ZN9__gnu_cxxeqIPdSt6vectorIdSaIdEEEEbRKNS_17__normal_iteratorIT_T0_EESA_"
 "_ZN9__gnu_cxxeqIPKdSt6vectorIdSaIdEEEEbRKNS_17__normal_iteratorIT_T0_EESB_"
 "_ZN9__gnu_cxxeqIPKSt6vectorIdSaIdEES1_IS3_SaIS3_EEEEbRKNS_17__normal_iteratorIT_T0_EESD_"
 "_ZN9__gnu_cxxeqIPKySt6vectorIySaIyEEEEbRKNS_17__normal_iteratorIT_T0_EESB_"
 "_ZN9__gnu_cxxeqIPN4arma22arma_sort_index_packetIdEESt6vectorIS3_SaIS3_EEEEbRKNS_17__normal_iteratorIT_T0_EESD_"
 "_ZN9__gnu_cxxeqIPN4arma22arma_sort_index_packetIjEESt6vectorIS3_SaIS3_EEEEbRKNS_17__normal_iteratorIT_T0_EESD_"
 "_ZN9__gnu_cxxltIPdSt6vectorIdSaIdEEEEbRKNS_17__normal_iteratorIT_T0_EESA_"
 "_ZN9__gnu_cxxmiIPdSt6vectorIdSaIdEEEENS_17__normal_iteratorIT_T0_E15difference_typeERKS8_SB_"
 "_ZN9__gnu_cxxmiIPKSt6vectorIdSaIdEES1_IS3_SaIS3_EEEENS_17__normal_iteratorIT_T0_E15difference_typeERKSB_SE_"
 "_ZN9__gnu_cxxmiIPN4arma22arma_sort_index_packetIdEESt6vectorIS3_SaIS3_EEEENS_17__normal_iteratorIT_T0_E15difference_typeERKSB_SE_"
 "_ZN9__gnu_cxxmiIPN4arma22arma_sort_index_packetIjEESt6vectorIS3_SaIS3_EEEENS_17__normal_iteratorIT_T0_E15difference_typeERKSB_SE_"
 "_ZN9__gnu_cxxmiIPSt6vectorIdSaIdEES1_IS3_SaIS3_EEEENS_17__normal_iteratorIT_T0_E15difference_typeERKSA_SD_"
 "_ZN9__gnu_cxxmiIPySt6vectorIySaIyEEEENS_17__normal_iteratorIT_T0_E15difference_typeERKS8_SB_"
 "_ZN9__gnu_cxxneIPdSt6vectorIdSaIdEEEEbRKNS_17__normal_iteratorIT_T0_EESA_"
 "_ZN9__gnu_cxxneIPKdSt6vectorIdSaIdEEEEbRKNS_17__normal_iteratorIT_T0_EESB_"
 "_ZN9__gnu_cxxneIPKSt6vectorIdSaIdEES1_IS3_SaIS3_EEEEbRKNS_17__normal_iteratorIT_T0_EESD_"
 "_ZN9__gnu_cxxneIPN4arma22arma_sort_index_packetIdEESt6vectorIS3_SaIS3_EEEEbRKNS_17__normal_iteratorIT_T0_EESD_"
 "_ZN9__gnu_cxxneIPN4arma22arma_sort_index_packetIjEESt6vectorIS3_SaIS3_EEEEbRKNS_17__normal_iteratorIT_T0_EESD_"
 "_ZN9__gnu_cxxneIPSt6vectorIdSaIdEES1_IS3_SaIS3_EEEEbRKNS_17__normal_iteratorIT_T0_EESC_"
 "_ZN9__gnu_cxxneIPySt6vectorIySaIyEEEEbRKNS_17__normal_iteratorIT_T0_EESA_"
 "_ZNK4arma14Base_eval_exprIdNS_4GlueINS_3MatIdEENS_2OpINS_3ColIdEENS_10op_diagmatEEENS_15glue_times_diagEEEE4evalEv"
 "_ZNK4arma19subview_each_commonINS_3MatIdEELj1EE10check_sizeIdEEvRKNS1_IT_EE"
 "_ZNK4arma19subview_each_commonINS_3MatIdEELj1EE20incompat_size_stringIdEEKNSt7__cxx1112basic_stringIcSt11char_traitsIcESaIcEEERKNS1_IT_EE"
 "_ZNK4arma3ColIdE6is_vecEv"
 "_ZNK4arma3GenINS_3ColIdEENS_8gen_onesEE5applyERNS_7subviewIdEE"
 "_ZNK4arma3MatIdE22internal_has_nonfiniteEv"
 "_ZNK4arma4BaseIdNS_3MatIdEEE10is_diagmatEv"
 "_ZNK4arma5ProxyINS_3ColIdEEE10get_n_colsEv"
 "_ZNK4arma5ProxyINS_4mtOpIjNS_3MatIdEENS_13op_sort_indexEEEE8is_aliasIjEEbRKNS2_IT_EE"
 "_ZNK4arma5ProxyINS_8diagviewIdEEE10is_alignedEv"
 "_ZNK4arma7SizeMateqERKS0_"
 "_ZNK4arma7subviewIdE6is_vecEv"
 "_ZNK9__gnu_cxx17__normal_iteratorIPdSt6vectorIdSaIdEEE4baseEv"
 "_ZNK9__gnu_cxx17__normal_iteratorIPdSt6vectorIdSaIdEEEdeEv"
 "_ZNK9__gnu_cxx17__normal_iteratorIPdSt6vectorIdSaIdEEEmiEx"
 "_ZNK9__gnu_cxx17__normal_iteratorIPdSt6vectorIdSaIdEEEplEx"
 "_ZNK9__gnu_cxx17__normal_iteratorIPKdSt6vectorIdSaIdEEE4baseEv"
 "_ZNK9__gnu_cxx17__normal_iteratorIPKdSt6vectorIdSaIdEEEdeEv"
 "_ZNK9__gnu_cxx17__normal_iteratorIPKSt6vectorIdSaIdEES1_IS3_SaIS3_EEE4baseEv"
 "_ZNK9__gnu_cxx17__normal_iteratorIPKSt6vectorIdSaIdEES1_IS3_SaIS3_EEEdeEv"
 "_ZNK9__gnu_cxx17__normal_iteratorIPKySt6vectorIySaIyEEE4baseEv"
 "_ZNK9__gnu_cxx17__normal_iteratorIPN4arma22arma_sort_index_packetIdEESt6vectorIS3_SaIS3_EEE4baseEv"
 "_ZNK9__gnu_cxx17__normal_iteratorIPN4arma22arma_sort_index_packetIdEESt6vectorIS3_SaIS3_EEEdeEv"
 "_ZNK9__gnu_cxx17__normal_iteratorIPN4arma22arma_sort_index_packetIdEESt6vectorIS3_SaIS3_EEEmiEx"
 "_ZNK9__gnu_cxx17__normal_iteratorIPN4arma22arma_sort_index_packetIdEESt6vectorIS3_SaIS3_EEEplEx"
 "_ZNK9__gnu_cxx17__normal_iteratorIPN4arma22arma_sort_index_packetIjEESt6vectorIS3_SaIS3_EEE4baseEv"
 "_ZNK9__gnu_cxx17__normal_iteratorIPN4arma22arma_sort_index_packetIjEESt6vectorIS3_SaIS3_EEEdeEv"
 "_ZNK9__gnu_cxx17__normal_iteratorIPN4arma22arma_sort_index_packetIjEESt6vectorIS3_SaIS3_EEEmiEx"
 "_ZNK9__gnu_cxx17__normal_iteratorIPN4arma22arma_sort_index_packetIjEESt6vectorIS3_SaIS3_EEEplEx"
 "_ZNK9__gnu_cxx17__normal_iteratorIPSt6vectorIdSaIdEES1_IS3_SaIS3_EEE4baseEv"
 "_ZNK9__gnu_cxx17__normal_iteratorIPSt6vectorIdSaIdEES1_IS3_SaIS3_EEEdeEv"
 "_ZNK9__gnu_cxx17__normal_iteratorIPySt6vectorIySaIyEEE4baseEv"
 "_ZNK9__gnu_cxx17__normal_iteratorIPySt6vectorIySaIyEEEdeEv"
 "_ZNK9__gnu_cxx5__ops14_Iter_less_valclINS_17__normal_iteratorIPdSt6vectorIdSaIdEEEEdEEbT_RT0_"
 "_ZNK9__gnu_cxx5__ops14_Val_less_iterclIdNS_17__normal_iteratorIPdSt6vectorIdSaIdEEEEEEbRT_T0_"
 "_ZNK9__gnu_cxx5__ops15_Iter_less_iterclINS_17__normal_iteratorIPdSt6vectorIdSaIdEEEES8_EEbT_T0_"
 "_ZNKSt12_Vector_baseIdSaIdEE19_M_get_Tp_allocatorEv"
 "_ZNKSt12_Vector_baseISt6vectorIdSaIdEESaIS2_EE19_M_get_Tp_allocatorEv"
 "_ZNKSt12_Vector_baseIySaIyEE19_M_get_Tp_allocatorEv"
 "_ZNKSt16initializer_listIdE3endEv"
 "_ZNKSt16initializer_listIdE4sizeEv"
 "_ZNKSt16initializer_listIdE5beginEv"
 "_ZNKSt16initializer_listISt6vectorIdSaIdEEE3endEv"
 "_ZNKSt16initializer_listISt6vectorIdSaIdEEE4sizeEv"
 "_ZNKSt16initializer_listISt6vectorIdSaIdEEE5beginEv"
 "_ZNKSt16initializer_listISt6vectorIS0_IdSaIdEESaIS2_EEE3endEv"
 "_ZNKSt16initializer_listISt6vectorIS0_IdSaIdEESaIS2_EEE4sizeEv"
 "_ZNKSt16initializer_listISt6vectorIS0_IdSaIdEESaIS2_EEE5beginEv"
 "_ZNKSt17_Temporary_bufferIN9__gnu_cxx17__normal_iteratorIPN4arma22arma_sort_index_packetIdEESt6vectorIS4_SaIS4_EEEES4_E14requested_sizeEv"
 "_ZNKSt17_Temporary_bufferIN9__gnu_cxx17__normal_iteratorIPN4arma22arma_sort_index_packetIdEESt6vectorIS4_SaIS4_EEEES4_E4sizeEv"
 "_ZNKSt17_Temporary_bufferIN9__gnu_cxx17__normal_iteratorIPN4arma22arma_sort_index_packetIjEESt6vectorIS4_SaIS4_EEEES4_E14requested_sizeEv"
 "_ZNKSt17_Temporary_bufferIN9__gnu_cxx17__normal_iteratorIPN4arma22arma_sort_index_packetIjEESt6vectorIS4_SaIS4_EEEES4_E4sizeEv"
 "_ZNKSt6vectorIdSaIdEE11_M_data_ptrIdEEPT_S4_"
 "_ZNKSt6vectorIdSaIdEE12_M_check_lenEyPKc"
 "_ZNKSt6vectorIdSaIdEE3endEv"
 "_ZNKSt6vectorIdSaIdEE4sizeEv"
 "_ZNKSt6vectorIdSaIdEE5beginEv"
 "_ZNKSt6vectorIdSaIdEE5emptyEv"
 "_ZNKSt6vectorIdSaIdEE8capacityEv"
 "_ZNKSt6vectorIdSaIdEE8max_sizeEv"
 "_ZNKSt6vectorIdSaIdEEixEy"
 "_ZNKSt6vectorIS_IdSaIdEESaIS1_EE12_M_check_lenEyPKc"
 "_ZNKSt6vectorIS_IdSaIdEESaIS1_EE3endEv"
 "_ZNKSt6vectorIS_IdSaIdEESaIS1_EE4sizeEv"
 "_ZNKSt6vectorIS_IdSaIdEESaIS1_EE5beginEv"
 "_ZNKSt6vectorIS_IdSaIdEESaIS1_EE5emptyEv"
 "_ZNKSt6vectorIS_IdSaIdEESaIS1_EE8max_sizeEv"
 "_ZNKSt6vectorIS_IdSaIdEESaIS1_EEixEy"
 "_ZNKSt6vectorIySaIyEE12_M_check_lenEyPKc"
 "_ZNKSt6vectorIySaIyEE3endEv"
 "_ZNKSt6vectorIySaIyEE4sizeEv"
 "_ZNKSt6vectorIySaIyEE5beginEv"
 "_ZNKSt6vectorIySaIyEE5emptyEv"
 "_ZNKSt6vectorIySaIyEE8max_sizeEv"
 "_ZNSt11__copy_moveILb0ELb0ESt26random_access_iterator_tagE12__assign_oneIddEEvPT_PT0_"
 "_ZNSt11__copy_moveILb0ELb0ESt26random_access_iterator_tagE12__assign_oneIdKdEEvPT_PT0_"
 "_ZNSt11__copy_moveILb0ELb1ESt26random_access_iterator_tagE8__copy_mIddEEPT0_PT_S6_S4_"
 "_ZNSt11__copy_moveILb0ELb1ESt26random_access_iterator_tagE8__copy_mIKddEEPT0_PT_S7_S5_"
 "_ZNSt11__copy_moveILb1ELb0ESt26random_access_iterator_tagE12__assign_oneIddEEvPT_PT0_"
 "_ZNSt11__copy_moveILb1ELb0ESt26random_access_iterator_tagE12__assign_oneIN4arma22arma_sort_index_packetIdEES5_EEvPT_PT0_"
 "_ZNSt11__copy_moveILb1ELb0ESt26random_access_iterator_tagE12__assign_oneIN4arma22arma_sort_index_packetIjEES5_EEvPT_PT0_"
 "_ZNSt11__copy_moveILb1ELb1ESt26random_access_iterator_tagE8__copy_mIN4arma22arma_sort_index_packetIdEES5_EEPT0_PT_S9_S7_"
 "_ZNSt11__copy_moveILb1ELb1ESt26random_access_iterator_tagE8__copy_mIN4arma22arma_sort_index_packetIjEES5_EEPT0_PT_S9_S7_"
 "_ZNSt11char_traitsIcE12to_char_typeERKi"
 "_ZNSt11char_traitsIcE3eofEv"
 "_ZNSt11char_traitsIcE6lengthEPKc"
 "_ZNSt12_Destroy_auxILb0EE9__destroyIPSt6vectorIdSaIdEEEEvT_S6_"
 "_ZNSt12_Destroy_auxILb0EE9__destroyIPSt6vectorIS2_IdSaIdEESaIS4_EEEEvT_S8_"
 "_ZNSt12_Destroy_auxILb1EE9__destroyIN9__gnu_cxx17__normal_iteratorIPdSt6vectorIdSaIdEEEEEEvT_S9_"
 "_ZNSt12_Destroy_auxILb1EE9__destroyIPdEEvT_S3_"
 "_ZNSt12_Destroy_auxILb1EE9__destroyIPN4arma22arma_sort_index_packetIdEEEEvT_S6_"
 "_ZNSt12_Destroy_auxILb1EE9__destroyIPN4arma22arma_sort_index_packetIjEEEEvT_S6_"
 "_ZNSt12_Destroy_auxILb1EE9__destroyIPyEEvT_S3_"
 "_ZNSt12_Vector_baseIdSaIdEE11_M_allocateEy"
 "_ZNSt12_Vector_baseIdSaIdEE12_Vector_implC1EOS2_"
 "_ZNSt12_Vector_baseIdSaIdEE12_Vector_implC1ERKS0_"
 "_ZNSt12_Vector_baseIdSaIdEE12_Vector_implC1Ev"
 "_ZNSt12_Vector_baseIdSaIdEE12_Vector_implD1Ev"
 "_ZNSt12_Vector_baseIdSaIdEE13_M_deallocateEPdy"
 "_ZNSt12_Vector_baseIdSaIdEE17_M_create_storageEy"
 "_ZNSt12_Vector_baseIdSaIdEE17_Vector_impl_dataC2EOS2_"
 "_ZNSt12_Vector_baseIdSaIdEE17_Vector_impl_dataC2Ev"
 "_ZNSt12_Vector_baseIdSaIdEE19_M_get_Tp_allocatorEv"
 "_ZNSt12_Vector_baseIdSaIdEEC2EOS1_"
 "_ZNSt12_Vector_baseIdSaIdEEC2ERKS0_"
 "_ZNSt12_Vector_baseIdSaIdEEC2Ev"
 "_ZNSt12_Vector_baseIdSaIdEEC2EyRKS0_"
 "_ZNSt12_Vector_baseIdSaIdEED2Ev"
 "_ZNSt12_Vector_baseIN4arma22arma_sort_index_packetIdEESaIS2_EE11_M_allocateEy"
 "_ZNSt12_Vector_baseIN4arma22arma_sort_index_packetIdEESaIS2_EE12_Vector_implC1ERKS3_"
 "_ZNSt12_Vector_baseIN4arma22arma_sort_index_packetIdEESaIS2_EE12_Vector_implD1Ev"
 "_ZNSt12_Vector_baseIN4arma22arma_sort_index_packetIdEESaIS2_EE13_M_deallocateEPS2_y"
 "_ZNSt12_Vector_baseIN4arma22arma_sort_index_packetIdEESaIS2_EE17_M_create_storageEy"
 "_ZNSt12_Vector_baseIN4arma22arma_sort_index_packetIdEESaIS2_EE17_Vector_impl_dataC2Ev"
 "_ZNSt12_Vector_baseIN4arma22arma_sort_index_packetIdEESaIS2_EE19_M_get_Tp_allocatorEv"
 "_ZNSt12_Vector_baseIN4arma22arma_sort_index_packetIdEESaIS2_EEC2EyRKS3_"
 "_ZNSt12_Vector_baseIN4arma22arma_sort_index_packetIdEESaIS2_EED2Ev"
 "_ZNSt12_Vector_baseIN4arma22arma_sort_index_packetIjEESaIS2_EE11_M_allocateEy"
 "_ZNSt12_Vector_baseIN4arma22arma_sort_index_packetIjEESaIS2_EE12_Vector_implC1ERKS3_"
 "_ZNSt12_Vector_baseIN4arma22arma_sort_index_packetIjEESaIS2_EE12_Vector_implD1Ev"
 "_ZNSt12_Vector_baseIN4arma22arma_sort_index_packetIjEESaIS2_EE13_M_deallocateEPS2_y"
 "_ZNSt12_Vector_baseIN4arma22arma_sort_index_packetIjEESaIS2_EE17_M_create_storageEy"
 "_ZNSt12_Vector_baseIN4arma22arma_sort_index_packetIjEESaIS2_EE17_Vector_impl_dataC2Ev"
 "_ZNSt12_Vector_baseIN4arma22arma_sort_index_packetIjEESaIS2_EE19_M_get_Tp_allocatorEv"
 "_ZNSt12_Vector_baseIN4arma22arma_sort_index_packetIjEESaIS2_EEC2EyRKS3_"
 "_ZNSt12_Vector_baseIN4arma22arma_sort_index_packetIjEESaIS2_EED2Ev"
 "_ZNSt12_Vector_baseISt6vectorIdSaIdEESaIS2_EE11_M_allocateEy"
 "_ZNSt12_Vector_baseISt6vectorIdSaIdEESaIS2_EE12_Vector_implC1ERKS3_"
 "_ZNSt12_Vector_baseISt6vectorIdSaIdEESaIS2_EE12_Vector_implC1Ev"
 "_ZNSt12_Vector_baseISt6vectorIdSaIdEESaIS2_EE12_Vector_implD1Ev"
 "_ZNSt12_Vector_baseISt6vectorIdSaIdEESaIS2_EE13_M_deallocateEPS2_y"
 "_ZNSt12_Vector_baseISt6vectorIdSaIdEESaIS2_EE17_M_create_storageEy"
 "_ZNSt12_Vector_baseISt6vectorIdSaIdEESaIS2_EE17_Vector_impl_dataC2Ev"
 "_ZNSt12_Vector_baseISt6vectorIdSaIdEESaIS2_EE19_M_get_Tp_allocatorEv"
 "_ZNSt12_Vector_baseISt6vectorIdSaIdEESaIS2_EEC2ERKS3_"
 "_ZNSt12_Vector_baseISt6vectorIdSaIdEESaIS2_EEC2Ev"
 "_ZNSt12_Vector_baseISt6vectorIdSaIdEESaIS2_EEC2EyRKS3_"
 "_ZNSt12_Vector_baseISt6vectorIdSaIdEESaIS2_EED2Ev"
 "_ZNSt12_Vector_baseISt6vectorIS0_IdSaIdEESaIS2_EESaIS4_EE11_M_allocateEy"
 "_ZNSt12_Vector_baseISt6vectorIS0_IdSaIdEESaIS2_EESaIS4_EE12_Vector_implC1ERKS5_"
 "_ZNSt12_Vector_baseISt6vectorIS0_IdSaIdEESaIS2_EESaIS4_EE12_Vector_implD1Ev"
 "_ZNSt12_Vector_baseISt6vectorIS0_IdSaIdEESaIS2_EESaIS4_EE13_M_deallocateEPS4_y"
 "_ZNSt12_Vector_baseISt6vectorIS0_IdSaIdEESaIS2_EESaIS4_EE17_Vector_impl_dataC2Ev"
 "_ZNSt12_Vector_baseISt6vectorIS0_IdSaIdEESaIS2_EESaIS4_EE19_M_get_Tp_allocatorEv"
 "_ZNSt12_Vector_baseISt6vectorIS0_IdSaIdEESaIS2_EESaIS4_EEC2ERKS5_"
 "_ZNSt12_Vector_baseISt6vectorIS0_IdSaIdEESaIS2_EESaIS4_EED2Ev"
 "_ZNSt12_Vector_baseIySaIyEE11_M_allocateEy"
 "_ZNSt12_Vector_baseIySaIyEE12_Vector_implC1Ev"
 "_ZNSt12_Vector_baseIySaIyEE12_Vector_implD1Ev"
 "_ZNSt12_Vector_baseIySaIyEE13_M_deallocateEPyy"
 "_ZNSt12_Vector_baseIySaIyEE17_Vector_impl_dataC2Ev"
 "_ZNSt12_Vector_baseIySaIyEE19_M_get_Tp_allocatorEv"
 "_ZNSt12_Vector_baseIySaIyEEC2Ev"
 "_ZNSt12_Vector_baseIySaIyEED2Ev"
 "_ZNSt14numeric_limitsIdE7epsilonEv"
 "_ZNSt14numeric_limitsIdE9quiet_NaNEv"
 "_ZNSt14numeric_limitsIiE3minEv"
 "_ZNSt14numeric_limitsIyE3maxEv"
 "_ZNSt15__new_allocatorIcED2Ev"
 "_ZNSt15__new_allocatorIdE10deallocateEPdy"
 "_ZNSt15__new_allocatorIdE8allocateEyPKv"
 "_ZNSt15__new_allocatorIdED2Ev"
 "_ZNSt15__new_allocatorIN4arma22arma_sort_index_packetIdEEE10deallocateEPS2_y"
 "_ZNSt15__new_allocatorIN4arma22arma_sort_index_packetIdEEE8allocateEyPKv"
 "_ZNSt15__new_allocatorIN4arma22arma_sort_index_packetIdEEED2Ev"
 "_ZNSt15__new_allocatorIN4arma22arma_sort_index_packetIjEEE10deallocateEPS2_y"
 "_ZNSt15__new_allocatorIN4arma22arma_sort_index_packetIjEEE8allocateEyPKv"
 "_ZNSt15__new_allocatorIN4arma22arma_sort_index_packetIjEEED2Ev"
 "_ZNSt15__new_allocatorISt6vectorIdSaIdEEE10deallocateEPS2_y"
 "_ZNSt15__new_allocatorISt6vectorIdSaIdEEE8allocateEyPKv"
 "_ZNSt15__new_allocatorISt6vectorIdSaIdEEED2Ev"
 "_ZNSt15__new_allocatorISt6vectorIS0_IdSaIdEESaIS2_EEE10deallocateEPS4_y"
 "_ZNSt15__new_allocatorISt6vectorIS0_IdSaIdEESaIS2_EEE8allocateEyPKv"
 "_ZNSt15__new_allocatorISt6vectorIS0_IdSaIdEESaIS2_EEED2Ev"
 "_ZNSt15__new_allocatorIyE10deallocateEPyy"
 "_ZNSt15__new_allocatorIyE8allocateEyPKv"
 "_ZNSt15__new_allocatorIyED2Ev"
 "_ZNSt17_Temporary_bufferIN9__gnu_cxx17__normal_iteratorIPN4arma22arma_sort_index_packetIdEESt6vectorIS4_SaIS4_EEEES4_E3endEv"
 "_ZNSt17_Temporary_bufferIN9__gnu_cxx17__normal_iteratorIPN4arma22arma_sort_index_packetIdEESt6vectorIS4_SaIS4_EEEES4_E5_ImplC1Ex"
 "_ZNSt17_Temporary_bufferIN9__gnu_cxx17__normal_iteratorIPN4arma22arma_sort_index_packetIdEESt6vectorIS4_SaIS4_EEEES4_E5_ImplD1Ev"
 "_ZNSt17_Temporary_bufferIN9__gnu_cxx17__normal_iteratorIPN4arma22arma_sort_index_packetIdEESt6vectorIS4_SaIS4_EEEES4_E5beginEv"
 "_ZNSt17_Temporary_bufferIN9__gnu_cxx17__normal_iteratorIPN4arma22arma_sort_index_packetIdEESt6vectorIS4_SaIS4_EEEES4_EC1ES9_x"
 "_ZNSt17_Temporary_bufferIN9__gnu_cxx17__normal_iteratorIPN4arma22arma_sort_index_packetIdEESt6vectorIS4_SaIS4_EEEES4_ED1Ev"
 "_ZNSt17_Temporary_bufferIN9__gnu_cxx17__normal_iteratorIPN4arma22arma_sort_index_packetIjEESt6vectorIS4_SaIS4_EEEES4_E3endEv"
 "_ZNSt17_Temporary_bufferIN9__gnu_cxx17__normal_iteratorIPN4arma22arma_sort_index_packetIjEESt6vectorIS4_SaIS4_EEEES4_E5_ImplC1Ex"
 "_ZNSt17_Temporary_bufferIN9__gnu_cxx17__normal_iteratorIPN4arma22arma_sort_index_packetIjEESt6vectorIS4_SaIS4_EEEES4_E5_ImplD1Ev"
 "_ZNSt17_Temporary_bufferIN9__gnu_cxx17__normal_iteratorIPN4arma22arma_sort_index_packetIjEESt6vectorIS4_SaIS4_EEEES4_E5beginEv"
 "_ZNSt17_Temporary_bufferIN9__gnu_cxx17__normal_iteratorIPN4arma22arma_sort_index_packetIjEESt6vectorIS4_SaIS4_EEEES4_EC1ES9_x"
 "_ZNSt17_Temporary_bufferIN9__gnu_cxx17__normal_iteratorIPN4arma22arma_sort_index_packetIjEESt6vectorIS4_SaIS4_EEEES4_ED1Ev"
 "_ZNSt20__copy_move_backwardILb1ELb1ESt26random_access_iterator_tagE13__copy_move_bIddEEPT0_PT_S6_S4_"
 "_ZNSt20__copy_move_backwardILb1ELb1ESt26random_access_iterator_tagE13__copy_move_bIN4arma22arma_sort_index_packetIdEES5_EEPT0_PT_S9_S7_"
 "_ZNSt20__copy_move_backwardILb1ELb1ESt26random_access_iterator_tagE13__copy_move_bIN4arma22arma_sort_index_packetIjEES5_EEPT0_PT_S9_S7_"
 "_ZNSt20__uninitialized_copyILb0EE13__uninit_copyIN9__gnu_cxx17__normal_iteratorIPKSt6vectorIdSaIdEES4_IS6_SaIS6_EEEEPS6_EET0_T_SE_SD_"
 "_ZNSt20__uninitialized_copyILb0EE13__uninit_copyIPKSt6vectorIdSaIdEEPS4_EET0_T_S9_S8_"
 "_ZNSt20__uninitialized_copyILb0EE13__uninit_copyIPKSt6vectorIS2_IdSaIdEESaIS4_EEPS6_EET0_T_SB_SA_"
 "_ZNSt20__uninitialized_copyILb1EE13__uninit_copyIN9__gnu_cxx17__normal_iteratorIPKdSt6vectorIdSaIdEEEEPdEET0_T_SC_SB_"
 "_ZNSt20__uninitialized_copyILb1EE13__uninit_copyIPdS2_EET0_T_S4_S3_"
 "_ZNSt20__uninitialized_copyILb1EE13__uninit_copyIPKdPdEET0_T_S6_S5_"
 "_ZNSt22__uninitialized_fill_nILb0EE15__uninit_fill_nIPSt6vectorIdSaIdEEyS4_EET_S6_T0_RKT1_"
 "_ZNSt22__uninitialized_fill_nILb1EE15__uninit_fill_nIPdydEET_S3_T0_RKT1_"
 "_ZNSt27__uninitialized_default_n_1ILb0EE18__uninit_default_nIPSt6vectorIdSaIdEEyEET_S6_T0_"
 "_ZNSt27__uninitialized_default_n_1ILb1EE18__uninit_default_nIPdyEET_S3_T0_"
 "_ZNSt27__uninitialized_default_n_1ILb1EE18__uninit_default_nIPN4arma22arma_sort_index_packetIdEEyEET_S6_T0_"
 "_ZNSt27__uninitialized_default_n_1ILb1EE18__uninit_default_nIPN4arma22arma_sort_index_packetIjEEyEET_S6_T0_"
 "_ZNSt3_V26rotateIN9__gnu_cxx17__normal_iteratorIPN4arma22arma_sort_index_packetIdEESt6vectorIS5_SaIS5_EEEEEET_SB_SB_SB_"
 "_ZNSt3_V26rotateIN9__gnu_cxx17__normal_iteratorIPN4arma22arma_sort_index_packetIjEESt6vectorIS5_SaIS5_EEEEEET_SB_SB_SB_"
 "_ZNSt3_V28__rotateIN9__gnu_cxx17__normal_iteratorIPN4arma22arma_sort_index_packetIdEESt6vectorIS5_SaIS5_EEEEEET_SB_SB_SB_St26random_access_iterator_tag"
 "_ZNSt3_V28__rotateIN9__gnu_cxx17__normal_iteratorIPN4arma22arma_sort_index_packetIjEESt6vectorIS5_SaIS5_EEEEEET_SB_SB_SB_St26random_access_iterator_tag"
 "_ZNSt38__uninitialized_construct_buf_dispatchILb1EE5__ucrIPN4arma22arma_sort_index_packetIdEEN9__gnu_cxx17__normal_iteratorIS5_St6vectorIS4_SaIS4_EEEEEEvT_SC_T0_"
 "_ZNSt38__uninitialized_construct_buf_dispatchILb1EE5__ucrIPN4arma22arma_sort_index_packetIjEEN9__gnu_cxx17__normal_iteratorIS5_St6vectorIS4_SaIS4_EEEEEEvT_SC_T0_"
 "_ZNSt4pairIPN4arma22arma_sort_index_packetIdEExEC1IRS3_RxLb1EEEOT_OT0_"
 "_ZNSt4pairIPN4arma22arma_sort_index_packetIdEExEC1IS3_xLb1EEEv"
 "_ZNSt4pairIPN4arma22arma_sort_index_packetIjEExEC1IRS3_RxLb1EEEOT_OT0_"
 "_ZNSt4pairIPN4arma22arma_sort_index_packetIjEExEC1IS3_xLb1EEEv"
 "_ZNSt6vectorIdSaIdEE11_S_max_sizeERKS0_"
 "_ZNSt6vectorIdSaIdEE11_S_relocateEPdS2_S2_RS0_"
 "_ZNSt6vectorIdSaIdEE12emplace_backIJdEEERdDpOT_"
 "_ZNSt6vectorIdSaIdEE15_M_erase_at_endEPd"
 "_ZNSt6vectorIdSaIdEE17_M_realloc_appendIJdEEEvDpOT_"
 "_ZNSt6vectorIdSaIdEE17_M_realloc_appendIJRKdEEEvDpOT_"
 "_ZNSt6vectorIdSaIdEE17_S_check_init_lenEyRKS0_"
 "_ZNSt6vectorIdSaIdEE18_M_fill_initializeEyRKd"
 "_ZNSt6vectorIdSaIdEE20_M_allocate_and_copyIN9__gnu_cxx17__normal_iteratorIPKdS1_EEEEPdyT_S9_"
 "_ZNSt6vectorIdSaIdEE21_M_default_initializeEy"
 "_ZNSt6vectorIdSaIdEE21_M_range_initialize_nIPKdEEvT_S5_y"
 "_ZNSt6vectorIdSaIdEE3endEv"
 "_ZNSt6vectorIdSaIdEE4backEv"
 "_ZNSt6vectorIdSaIdEE4dataEv"
 "_ZNSt6vectorIdSaIdEE5beginEv"
 "_ZNSt6vectorIdSaIdEE5clearEv"
 "_ZNSt6vectorIdSaIdEE7reserveEy"
 "_ZNSt6vectorIdSaIdEE9push_backEOd"
 "_ZNSt6vectorIdSaIdEE9push_backERKd"
 "_ZNSt6vectorIdSaIdEEaSERKS1_"
 "_ZNSt6vectorIdSaIdEEC1EOS1_"
 "_ZNSt6vectorIdSaIdEEC1ERKS1_"
 "_ZNSt6vectorIdSaIdEEC1ESt16initializer_listIdERKS0_"
 "_ZNSt6vectorIdSaIdEEC1Ev"
 "_ZNSt6vectorIdSaIdEEC1EyRKdRKS0_"
 "_ZNSt6vectorIdSaIdEEC1EyRKS0_"
 "_ZNSt6vectorIdSaIdEED1Ev"
 "_ZNSt6vectorIdSaIdEEixEy"
 "_ZNSt6vectorIN4arma22arma_sort_index_packetIdEESaIS2_EE11_S_max_sizeERKS3_"
 "_ZNSt6vectorIN4arma22arma_sort_index_packetIdEESaIS2_EE17_S_check_init_lenEyRKS3_"
 "_ZNSt6vectorIN4arma22arma_sort_index_packetIdEESaIS2_EE21_M_default_initializeEy"
 "_ZNSt6vectorIN4arma22arma_sort_index_packetIdEESaIS2_EE3endEv"
 "_ZNSt6vectorIN4arma22arma_sort_index_packetIdEESaIS2_EE5beginEv"
 "_ZNSt6vectorIN4arma22arma_sort_index_packetIdEESaIS2_EEC1EyRKS3_"
 "_ZNSt6vectorIN4arma22arma_sort_index_packetIdEESaIS2_EED1Ev"
 "_ZNSt6vectorIN4arma22arma_sort_index_packetIdEESaIS2_EEixEy"
 "_ZNSt6vectorIN4arma22arma_sort_index_packetIjEESaIS2_EE11_S_max_sizeERKS3_"
 "_ZNSt6vectorIN4arma22arma_sort_index_packetIjEESaIS2_EE17_S_check_init_lenEyRKS3_"
 "_ZNSt6vectorIN4arma22arma_sort_index_packetIjEESaIS2_EE21_M_default_initializeEy"
 "_ZNSt6vectorIN4arma22arma_sort_index_packetIjEESaIS2_EE3endEv"
 "_ZNSt6vectorIN4arma22arma_sort_index_packetIjEESaIS2_EE5beginEv"
 "_ZNSt6vectorIN4arma22arma_sort_index_packetIjEESaIS2_EEC1EyRKS3_"
 "_ZNSt6vectorIN4arma22arma_sort_index_packetIjEESaIS2_EED1Ev"
 "_ZNSt6vectorIN4arma22arma_sort_index_packetIjEESaIS2_EEixEy"
 "_ZNSt6vectorIS_IdSaIdEESaIS1_EE11_S_max_sizeERKS2_"
 "_ZNSt6vectorIS_IdSaIdEESaIS1_EE11_S_relocateEPS1_S4_S4_RS2_"
 "_ZNSt6vectorIS_IdSaIdEESaIS1_EE17_M_realloc_appendIJRKS1_EEEvDpOT_"
 "_ZNSt6vectorIS_IdSaIdEESaIS1_EE17_S_check_init_lenEyRKS2_"
 "_ZNSt6vectorIS_IdSaIdEESaIS1_EE18_M_fill_initializeEyRKS1_"
 "_ZNSt6vectorIS_IdSaIdEESaIS1_EE21_M_default_initializeEy"
 "_ZNSt6vectorIS_IdSaIdEESaIS1_EE21_M_range_initialize_nIPKS1_EEvT_S7_y"
 "_ZNSt6vectorIS_IdSaIdEESaIS1_EE3endEv"
 "_ZNSt6vectorIS_IdSaIdEESaIS1_EE5beginEv"
 "_ZNSt6vectorIS_IdSaIdEESaIS1_EE9push_backERKS1_"
 "_ZNSt6vectorIS_IdSaIdEESaIS1_EEC1ERKS3_"
 "_ZNSt6vectorIS_IdSaIdEESaIS1_EEC1ESt16initializer_listIS1_ERKS2_"
 "_ZNSt6vectorIS_IdSaIdEESaIS1_EEC1Ev"
 "_ZNSt6vectorIS_IdSaIdEESaIS1_EEC1EyRKS1_RKS2_"
 "_ZNSt6vectorIS_IdSaIdEESaIS1_EEC1EyRKS2_"
 "_ZNSt6vectorIS_IdSaIdEESaIS1_EED1Ev"
 "_ZNSt6vectorIS_IdSaIdEESaIS1_EEixEy"
 "_ZNSt6vectorIS_IS_IdSaIdEESaIS1_EESaIS3_EE11_S_max_sizeERKS4_"
 "_ZNSt6vectorIS_IS_IdSaIdEESaIS1_EESaIS3_EE17_S_check_init_lenEyRKS4_"
 "_ZNSt6vectorIS_IS_IdSaIdEESaIS1_EESaIS3_EE21_M_range_initialize_nIPKS3_EEvT_S9_y"
 "_ZNSt6vectorIS_IS_IdSaIdEESaIS1_EESaIS3_EEC1ESt16initializer_listIS3_ERKS4_"
 "_ZNSt6vectorIySaIyEE11_S_max_sizeERKS0_"
 "_ZNSt6vectorIySaIyEE11_S_relocateEPyS2_S2_RS0_"
 "_ZNSt6vectorIySaIyEE17_M_realloc_appendIJRKyEEEvDpOT_"
 "_ZNSt6vectorIySaIyEE3endEv"
 "_ZNSt6vectorIySaIyEE5beginEv"
 "_ZNSt6vectorIySaIyEE9push_backERKy"
 "_ZNSt6vectorIySaIyEEC1Ev"
 "_ZNSt6vectorIySaIyEED1Ev"
 "_ZNSt6vectorIySaIyEEixEy"
 "_ZNSt7__cxx1112basic_stringIcSt11char_traitsIcESaIcEE12_Alloc_hiderD1Ev"
 "_ZNSt7__cxx1112basic_stringIcSt11char_traitsIcESaIcEE12_M_constructIPKcEEvT_S8_St20forward_iterator_tag"
 "_ZNSt7__cxx1112basic_stringIcSt11char_traitsIcESaIcEEC1IS3_EEPKcRKS3_"
 "_ZNSt8__detail22__get_temporary_bufferIN4arma22arma_sort_index_packetIdEEEEPT_x"
 "_ZNSt8__detail22__get_temporary_bufferIN4arma22arma_sort_index_packetIjEEEEPT_x"
 "_ZNSt8__detail25__return_temporary_bufferIN4arma22arma_sort_index_packetIdEEEEvPT_y"
 "_ZNSt8__detail25__return_temporary_bufferIN4arma22arma_sort_index_packetIjEEEEvPT_y"
 "_ZNSt9bad_allocC1Ev"
 "_ZNSt9exceptionC2Ev"
 "_ZnwyPv"
 "_ZSt10__fill_n_aIPdydET_S1_T0_RKT1_St26random_access_iterator_tag"
 "_ZSt10__fill_n_aIPN4arma22arma_sort_index_packetIdEEyS2_ET_S4_T0_RKT1_St26random_access_iterator_tag"
 "_ZSt10__fill_n_aIPN4arma22arma_sort_index_packetIjEEyS2_ET_S4_T0_RKT1_St26random_access_iterator_tag"
 "_ZSt10__pop_heapIN9__gnu_cxx17__normal_iteratorIPdSt6vectorIdSaIdEEEENS0_5__ops15_Iter_less_iterEEvT_S9_S9_RT0_"
 "_ZSt10_ConstructIdJEEvPT_DpOT0_"
 "_ZSt10_ConstructIN4arma22arma_sort_index_packetIdEEJEEvPT_DpOT0_"
 "_ZSt10_ConstructIN4arma22arma_sort_index_packetIjEEJEEvPT_DpOT0_"
 "_ZSt10_ConstructISt6vectorIdSaIdEEJEEvPT_DpOT0_"
 "_ZSt10_ConstructISt6vectorIdSaIdEEJRKS2_EEvPT_DpOT0_"
 "_ZSt10_ConstructISt6vectorIS0_IdSaIdEESaIS2_EEJRKS4_EEvPT_DpOT0_"
 "_ZSt10accumulateIN9__gnu_cxx17__normal_iteratorIPdSt6vectorIdSaIdEEEEdET0_T_S8_S7_"
 "_ZSt11__addressofIdEPT_RS0_"
 "_ZSt11__addressofIKSt6vectorIdSaIdEEEPT_RS4_"
 "_ZSt11__addressofIN4arma22arma_sort_index_packetIdEEEPT_RS3_"
 "_ZSt11__addressofIN4arma22arma_sort_index_packetIjEEEPT_RS3_"
 "_ZSt11__addressofISt6vectorIdSaIdEEEPT_RS3_"
 "_ZSt11__addressofISt6vectorIS0_IdSaIdEESaIS2_EEEPT_RS5_"
 "_ZSt11__bit_widthIyEiT_"
 "_ZSt11__make_heapIN9__gnu_cxx17__normal_iteratorIPdSt6vectorIdSaIdEEEENS0_5__ops15_Iter_less_iterEEvT_S9_RT0_"
 "_ZSt11__push_heapIN9__gnu_cxx17__normal_iteratorIPdSt6vectorIdSaIdEEEExdNS0_5__ops14_Iter_less_valEEvT_T0_SA_T1_RT2_"
 "_ZSt11__sort_heapIN9__gnu_cxx17__normal_iteratorIPdSt6vectorIdSaIdEEEENS0_5__ops15_Iter_less_iterEEvT_S9_RT0_"
 "_ZSt11stable_sortIN9__gnu_cxx17__normal_iteratorIPN4arma22arma_sort_index_packetIdEESt6vectorIS4_SaIS4_EEEENS2_29arma_sort_index_helper_ascendIdEEEvT_SC_T0_"
 "_ZSt11stable_sortIN9__gnu_cxx17__normal_iteratorIPN4arma22arma_sort_index_packetIdEESt6vectorIS4_SaIS4_EEEENS2_30arma_sort_index_helper_descendIdEEEvT_SC_T0_"
 "_ZSt11stable_sortIN9__gnu_cxx17__normal_iteratorIPN4arma22arma_sort_index_packetIjEESt6vectorIS4_SaIS4_EEEENS2_29arma_sort_index_helper_ascendIjEEEvT_SC_T0_"
 "_ZSt11stable_sortIN9__gnu_cxx17__normal_iteratorIPN4arma22arma_sort_index_packetIjEESt6vectorIS4_SaIS4_EEEENS2_30arma_sort_index_helper_descendIjEEEvT_SC_T0_"
 "_ZSt11swap_rangesIN9__gnu_cxx17__normal_iteratorIPN4arma22arma_sort_index_packetIdEESt6vectorIS4_SaIS4_EEEES9_ET0_T_SB_SA_"
 "_ZSt11swap_rangesIN9__gnu_cxx17__normal_iteratorIPN4arma22arma_sort_index_packetIjEESt6vectorIS4_SaIS4_EEEES9_ET0_T_SB_SA_"
 "_ZSt12__miter_baseIN9__gnu_cxx17__normal_iteratorIPdSt6vectorIdSaIdEEEEET_S7_"
 "_ZSt12__miter_baseIN9__gnu_cxx17__normal_iteratorIPKdSt6vectorIdSaIdEEEEET_S8_"
 "_ZSt12__miter_baseIN9__gnu_cxx17__normal_iteratorIPN4arma22arma_sort_index_packetIdEESt6vectorIS4_SaIS4_EEEEET_SA_"
 "_ZSt12__miter_baseIN9__gnu_cxx17__normal_iteratorIPN4arma22arma_sort_index_packetIjEESt6vectorIS4_SaIS4_EEEEET_SA_"
 "_ZSt12__miter_baseIPdET_S1_"
 "_ZSt12__miter_baseIPKdET_S2_"
 "_ZSt12__miter_baseIPN4arma22arma_sort_index_packetIdEEET_S4_"
 "_ZSt12__miter_baseIPN4arma22arma_sort_index_packetIjEEET_S4_"
 "_ZSt12__move_mergeIN9__gnu_cxx17__normal_iteratorIPN4arma22arma_sort_index_packetIdEESt6vectorIS4_SaIS4_EEEES5_NS0_5__ops15_Iter_comp_iterINS2_29arma_sort_index_helper_ascendIdEEEEET0_T_SG_SG_SG_SF_T1_"
 "_ZSt12__move_mergeIN9__gnu_cxx17__normal_iteratorIPN4arma22arma_sort_index_packetIdEESt6vectorIS4_SaIS4_EEEES5_NS0_5__ops15_Iter_comp_iterINS2_30arma_sort_index_helper_descendIdEEEEET0_T_SG_SG_SG_SF_T1_"
 "_ZSt12__move_mergeIN9__gnu_cxx17__normal_iteratorIPN4arma22arma_sort_index_packetIjEESt6vectorIS4_SaIS4_EEEES5_NS0_5__ops15_Iter_comp_iterINS2_29arma_sort_index_helper_ascendIjEEEEET0_T_SG_SG_SG_SF_T1_"
 "_ZSt12__move_mergeIN9__gnu_cxx17__normal_iteratorIPN4arma22arma_sort_index_packetIjEESt6vectorIS4_SaIS4_EEEES5_NS0_5__ops15_Iter_comp_iterINS2_30arma_sort_index_helper_descendIjEEEEET0_T_SG_SG_SG_SF_T1_"
 "_ZSt12__move_mergeIPN4arma22arma_sort_index_packetIdEEN9__gnu_cxx17__normal_iteratorIS3_St6vectorIS2_SaIS2_EEEENS4_5__ops15_Iter_comp_iterINS0_29arma_sort_index_helper_ascendIdEEEEET0_T_SG_SG_SG_SF_T1_"
 "_ZSt12__move_mergeIPN4arma22arma_sort_index_packetIdEEN9__gnu_cxx17__normal_iteratorIS3_St6vectorIS2_SaIS2_EEEENS4_5__ops15_Iter_comp_iterINS0_30arma_sort_index_helper_descendIdEEEEET0_T_SG_SG_SG_SF_T1_"
 "_ZSt12__move_mergeIPN4arma22arma_sort_index_packetIjEEN9__gnu_cxx17__normal_iteratorIS3_St6vectorIS2_SaIS2_EEEENS4_5__ops15_Iter_comp_iterINS0_29arma_sort_index_helper_ascendIjEEEEET0_T_SG_SG_SG_SF_T1_"
 "_ZSt12__move_mergeIPN4arma22arma_sort_index_packetIjEEN9__gnu_cxx17__normal_iteratorIS3_St6vectorIS2_SaIS2_EEEENS4_5__ops15_Iter_comp_iterINS0_30arma_sort_index_helper_descendIjEEEEET0_T_SG_SG_SG_SF_T1_"
 "_ZSt12__niter_baseIPdET_S1_"
 "_ZSt12__niter_baseIPdSt6vectorIdSaIdEEET_N9__gnu_cxx17__normal_iteratorIS4_T0_EE"
 "_ZSt12__niter_baseIPKdET_S2_"
 "_ZSt12__niter_baseIPKdSt6vectorIdSaIdEEET_N9__gnu_cxx17__normal_iteratorIS5_T0_EE"
 "_ZSt12__niter_baseIPN4arma22arma_sort_index_packetIdEEET_S4_"
 "_ZSt12__niter_baseIPN4arma22arma_sort_index_packetIdEESt6vectorIS2_SaIS2_EEET_N9__gnu_cxx17__normal_iteratorIS7_T0_EE"
 "_ZSt12__niter_baseIPN4arma22arma_sort_index_packetIjEEET_S4_"
 "_ZSt12__niter_baseIPN4arma22arma_sort_index_packetIjEESt6vectorIS2_SaIS2_EEET_N9__gnu_cxx17__normal_iteratorIS7_T0_EE"
 "_ZSt12__niter_baseIPSt6vectorIdSaIdEEET_S4_"
 "_ZSt12__niter_baseIPyET_S1_"
 "_ZSt12__niter_wrapIN9__gnu_cxx17__normal_iteratorIPdSt6vectorIdSaIdEEEES2_ET_S7_T0_"
 "_ZSt12__niter_wrapIN9__gnu_cxx17__normal_iteratorIPN4arma22arma_sort_index_packetIdEESt6vectorIS4_SaIS4_EEEES5_ET_SA_T0_"
 "_ZSt12__niter_wrapIN9__gnu_cxx17__normal_iteratorIPN4arma22arma_sort_index_packetIjEESt6vectorIS4_SaIS4_EEEES5_ET_SA_T0_"
 "_ZSt12__niter_wrapIPdET_RKS1_S1_"
 "_ZSt12__niter_wrapIPN4arma22arma_sort_index_packetIdEEET_RKS4_S4_"
 "_ZSt12__niter_wrapIPN4arma22arma_sort_index_packetIjEEET_RKS4_S4_"
 "_ZSt12__relocate_aIPdS0_SaIdEET0_T_S3_S2_RT1_"
 "_ZSt12__relocate_aIPSt6vectorIdSaIdEES3_SaIS2_EET0_T_S6_S5_RT1_"
 "_ZSt12__relocate_aIPyS0_SaIyEET0_T_S3_S2_RT1_"
 "_ZSt12__to_addressIdEPT_S1_"
 "_ZSt12__to_addressISt6vectorIdSaIdEEEPT_S4_"
 "_ZSt12__to_addressIyEPT_S1_"
 "_ZSt13__adjust_heapIN9__gnu_cxx17__normal_iteratorIPdSt6vectorIdSaIdEEEExdNS0_5__ops15_Iter_less_iterEEvT_T0_SA_T1_T2_"
 "_ZSt13__copy_move_aILb0EN9__gnu_cxx17__normal_iteratorIPKdSt6vectorIdSaIdEEEENS1_IPdS6_EEET1_T0_SB_SA_"
 "_ZSt13__copy_move_aILb0EN9__gnu_cxx17__normal_iteratorIPKdSt6vectorIdSaIdEEEEPdET1_T0_SA_S9_"
 "_ZSt13__copy_move_aILb0EPdS0_ET1_T0_S2_S1_"
 "_ZSt13__copy_move_aILb0EPKdPdET1_T0_S4_S3_"
 "_ZSt13__copy_move_aILb1EN9__gnu_cxx17__normal_iteratorIPN4arma22arma_sort_index_packetIdEESt6vectorIS4_SaIS4_EEEES5_ET1_T0_SB_SA_"
 "_ZSt13__copy_move_aILb1EN9__gnu_cxx17__normal_iteratorIPN4arma22arma_sort_index_packetIdEESt6vectorIS4_SaIS4_EEEES9_ET1_T0_SB_SA_"
 "_ZSt13__copy_move_aILb1EN9__gnu_cxx17__normal_iteratorIPN4arma22arma_sort_index_packetIjEESt6vectorIS4_SaIS4_EEEES5_ET1_T0_SB_SA_"
 "_ZSt13__copy_move_aILb1EN9__gnu_cxx17__normal_iteratorIPN4arma22arma_sort_index_packetIjEESt6vectorIS4_SaIS4_EEEES9_ET1_T0_SB_SA_"
 "_ZSt13__copy_move_aILb1EPN4arma22arma_sort_index_packetIdEEN9__gnu_cxx17__normal_iteratorIS3_St6vectorIS2_SaIS2_EEEEET1_T0_SB_SA_"
 "_ZSt13__copy_move_aILb1EPN4arma22arma_sort_index_packetIjEEN9__gnu_cxx17__normal_iteratorIS3_St6vectorIS2_SaIS2_EEEEET1_T0_SB_SA_"
 "_ZSt13__countl_zeroIyEiT_"
 "_ZSt13__heap_selectIN9__gnu_cxx17__normal_iteratorIPdSt6vectorIdSaIdEEEENS0_5__ops15_Iter_less_iterEEvT_S9_S9_T0_"
 "_ZSt13__lower_boundIN9__gnu_cxx17__normal_iteratorIPN4arma22arma_sort_index_packetIdEESt6vectorIS4_SaIS4_EEEES4_NS0_5__ops14_Iter_comp_valINS2_29arma_sort_index_helper_ascendIdEEEEET_SF_SF_RKT0_T1_"
 "_ZSt13__lower_boundIN9__gnu_cxx17__normal_iteratorIPN4arma22arma_sort_index_packetIdEESt6vectorIS4_SaIS4_EEEES4_NS0_5__ops14_Iter_comp_valINS2_30arma_sort_index_helper_descendIdEEEEET_SF_SF_RKT0_T1_"
 "_ZSt13__lower_boundIN9__gnu_cxx17__normal_iteratorIPN4arma22arma_sort_index_packetIjEESt6vectorIS4_SaIS4_EEEES4_NS0_5__ops14_Iter_comp_valINS2_29arma_sort_index_helper_ascendIjEEEEET_SF_SF_RKT0_T1_"
 "_ZSt13__lower_boundIN9__gnu_cxx17__normal_iteratorIPN4arma22arma_sort_index_packetIjEESt6vectorIS4_SaIS4_EEEES4_NS0_5__ops14_Iter_comp_valINS2_30arma_sort_index_helper_descendIjEEEEET_SF_SF_RKT0_T1_"
 "_ZSt13__stable_sortIN9__gnu_cxx17__normal_iteratorIPN4arma22arma_sort_index_packetIdEESt6vectorIS4_SaIS4_EEEENS0_5__ops15_Iter_comp_iterINS2_29arma_sort_index_helper_ascendIdEEEEEvT_SF_T0_"
 "_ZSt13__stable_sortIN9__gnu_cxx17__normal_iteratorIPN4arma22arma_sort_index_packetIdEESt6vectorIS4_SaIS4_EEEENS0_5__ops15_Iter_comp_iterINS2_30arma_sort_index_helper_descendIdEEEEEvT_SF_T0_"
 "_ZSt13__stable_sortIN9__gnu_cxx17__normal_iteratorIPN4arma22arma_sort_index_packetIjEESt6vectorIS4_SaIS4_EEEENS0_5__ops15_Iter_comp_iterINS2_29arma_sort_index_helper_ascendIjEEEEEvT_SF_T0_"
 "_ZSt13__stable_sortIN9__gnu_cxx17__normal_iteratorIPN4arma22arma_sort_index_packetIjEESt6vectorIS4_SaIS4_EEEENS0_5__ops15_Iter_comp_iterINS2_30arma_sort_index_helper_descendIjEEEEEvT_SF_T0_"
 "_ZSt13__upper_boundIN9__gnu_cxx17__normal_iteratorIPN4arma22arma_sort_index_packetIdEESt6vectorIS4_SaIS4_EEEES4_NS0_5__ops14_Val_comp_iterINS2_29arma_sort_index_helper_ascendIdEEEEET_SF_SF_RKT0_T1_"
 "_ZSt13__upper_boundIN9__gnu_cxx17__normal_iteratorIPN4arma22arma_sort_index_packetIdEESt6vectorIS4_SaIS4_EEEES4_NS0_5__ops14_Val_comp_iterINS2_30arma_sort_index_helper_descendIdEEEEET_SF_SF_RKT0_T1_"
 "_ZSt13__upper_boundIN9__gnu_cxx17__normal_iteratorIPN4arma22arma_sort_index_packetIjEESt6vectorIS4_SaIS4_EEEES4_NS0_5__ops14_Val_comp_iterINS2_29arma_sort_index_helper_ascendIjEEEEET_SF_SF_RKT0_T1_"
 "_ZSt13__upper_boundIN9__gnu_cxx17__normal_iteratorIPN4arma22arma_sort_index_packetIjEESt6vectorIS4_SaIS4_EEEES4_NS0_5__ops14_Val_comp_iterINS2_30arma_sort_index_helper_descendIjEEEEET_SF_SF_RKT0_T1_"
 "_ZSt13move_backwardIN9__gnu_cxx17__normal_iteratorIPdSt6vectorIdSaIdEEEES6_ET0_T_S8_S7_"
 "_ZSt13move_backwardIN9__gnu_cxx17__normal_iteratorIPN4arma22arma_sort_index_packetIdEESt6vectorIS4_SaIS4_EEEES9_ET0_T_SB_SA_"
 "_ZSt13move_backwardIN9__gnu_cxx17__normal_iteratorIPN4arma22arma_sort_index_packetIjEESt6vectorIS4_SaIS4_EEEES9_ET0_T_SB_SA_"
 "_ZSt13move_backwardIPN4arma22arma_sort_index_packetIdEEN9__gnu_cxx17__normal_iteratorIS3_St6vectorIS2_SaIS2_EEEEET0_T_SB_SA_"
 "_ZSt13move_backwardIPN4arma22arma_sort_index_packetIjEEN9__gnu_cxx17__normal_iteratorIS3_St6vectorIS2_SaIS2_EEEEET0_T_SB_SA_"
 "_ZSt14__copy_move_a1ILb0EPdS0_ET1_T0_S2_S1_"
 "_ZSt14__copy_move_a1ILb0EPKdPdET1_T0_S4_S3_"
 "_ZSt14__copy_move_a1ILb1EPN4arma22arma_sort_index_packetIdEES3_ET1_T0_S5_S4_"
 "_ZSt14__copy_move_a1ILb1EPN4arma22arma_sort_index_packetIjEES3_ET1_T0_S5_S4_"
 "_ZSt14__copy_move_a2ILb0EPdS0_ET1_T0_S2_S1_"
 "_ZSt14__copy_move_a2ILb0EPKdPdET1_T0_S4_S3_"
 "_ZSt14__copy_move_a2ILb1EPN4arma22arma_sort_index_packetIdEES3_ET1_T0_S5_S4_"
 "_ZSt14__copy_move_a2ILb1EPN4arma22arma_sort_index_packetIjEES3_ET1_T0_S5_S4_"
 "_ZSt14__partial_sortIN9__gnu_cxx17__normal_iteratorIPdSt6vectorIdSaIdEEEENS0_5__ops15_Iter_less_iterEEvT_S9_S9_T0_"
 "_ZSt14__relocate_a_1IddENSt9enable_ifIXsrSt24__is_bitwise_relocatableIT_vE5valueEPS2_E4typeES4_S4_S4_RSaIT0_E"
 "_ZSt14__relocate_a_1IPSt6vectorIdSaIdEES3_SaIS2_EET0_T_S6_S5_RT1_"
 "_ZSt14__relocate_a_1IyyENSt9enable_ifIXsrSt24__is_bitwise_relocatableIT_vE5valueEPS2_E4typeES4_S4_S4_RSaIT0_E"
 "_ZSt16__do_uninit_copyIN9__gnu_cxx17__normal_iteratorIPKSt6vectorIdSaIdEES2_IS4_SaIS4_EEEEPS4_ET0_T_SC_SB_"
 "_ZSt16__do_uninit_copyIPKSt6vectorIdSaIdEEPS2_ET0_T_S7_S6_"
 "_ZSt16__do_uninit_copyIPKSt6vectorIS0_IdSaIdEESaIS2_EEPS4_ET0_T_S9_S8_"
 "_ZSt16__insertion_sortIN9__gnu_cxx17__normal_iteratorIPdSt6vectorIdSaIdEEEENS0_5__ops15_Iter_less_iterEEvT_S9_T0_"
 "_ZSt16__insertion_sortIN9__gnu_cxx17__normal_iteratorIPN4arma22arma_sort_index_packetIdEESt6vectorIS4_SaIS4_EEEENS0_5__ops15_Iter_comp_iterINS2_29arma_sort_index_helper_ascendIdEEEEEvT_SF_T0_"
 "_ZSt16__insertion_sortIN9__gnu_cxx17__normal_iteratorIPN4arma22arma_sort_index_packetIdEESt6vectorIS4_SaIS4_EEEENS0_5__ops15_Iter_comp_iterINS2_30arma_sort_index_helper_descendIdEEEEEvT_SF_T0_"
 "_ZSt16__insertion_sortIN9__gnu_cxx17__normal_iteratorIPN4arma22arma_sort_index_packetIjEESt6vectorIS4_SaIS4_EEEENS0_5__ops15_Iter_comp_iterINS2_29arma_sort_index_helper_ascendIjEEEEEvT_SF_T0_"
 "_ZSt16__insertion_sortIN9__gnu_cxx17__normal_iteratorIPN4arma22arma_sort_index_packetIjEESt6vectorIS4_SaIS4_EEEENS0_5__ops15_Iter_comp_iterINS2_30arma_sort_index_helper_descendIjEEEEEvT_SF_T0_"
 "_ZSt16__introsort_loopIN9__gnu_cxx17__normal_iteratorIPdSt6vectorIdSaIdEEEExNS0_5__ops15_Iter_less_iterEEvT_S9_T0_T1_"
 "_ZSt16__merge_adaptiveIN9__gnu_cxx17__normal_iteratorIPN4arma22arma_sort_index_packetIdEESt6vectorIS4_SaIS4_EEEExS5_NS0_5__ops15_Iter_comp_iterINS2_29arma_sort_index_helper_ascendIdEEEEEvT_SF_SF_T0_SG_T1_T2_"
 "_ZSt16__merge_adaptiveIN9__gnu_cxx17__normal_iteratorIPN4arma22arma_sort_index_packetIdEESt6vectorIS4_SaIS4_EEEExS5_NS0_5__ops15_Iter_comp_iterINS2_30arma_sort_index_helper_descendIdEEEEEvT_SF_SF_T0_SG_T1_T2_"
 "_ZSt16__merge_adaptiveIN9__gnu_cxx17__normal_iteratorIPN4arma22arma_sort_index_packetIjEESt6vectorIS4_SaIS4_EEEExS5_NS0_5__ops15_Iter_comp_iterINS2_29arma_sort_index_helper_ascendIjEEEEEvT_SF_SF_T0_SG_T1_T2_"
 "_ZSt16__merge_adaptiveIN9__gnu_cxx17__normal_iteratorIPN4arma22arma_sort_index_packetIjEESt6vectorIS4_SaIS4_EEEExS5_NS0_5__ops15_Iter_comp_iterINS2_30arma_sort_index_helper_descendIjEEEEEvT_SF_SF_T0_SG_T1_T2_"
 "_ZSt17__merge_sort_loopIN9__gnu_cxx17__normal_iteratorIPN4arma22arma_sort_index_packetIdEESt6vectorIS4_SaIS4_EEEES5_xNS0_5__ops15_Iter_comp_iterINS2_29arma_sort_index_helper_ascendIdEEEEEvT_SF_T0_T1_T2_"
 "_ZSt17__merge_sort_loopIN9__gnu_cxx17__normal_iteratorIPN4arma22arma_sort_index_packetIdEESt6vectorIS4_SaIS4_EEEES5_xNS0_5__ops15_Iter_comp_iterINS2_30arma_sort_index_helper_descendIdEEEEEvT_SF_T0_T1_T2_"
 "_ZSt17__merge_sort_loopIN9__gnu_cxx17__normal_iteratorIPN4arma22arma_sort_index_packetIjEESt6vectorIS4_SaIS4_EEEES5_xNS0_5__ops15_Iter_comp_iterINS2_29arma_sort_index_helper_ascendIjEEEEEvT_SF_T0_T1_T2_"
 "_ZSt17__merge_sort_loopIN9__gnu_cxx17__normal_iteratorIPN4arma22arma_sort_index_packetIjEESt6vectorIS4_SaIS4_EEEES5_xNS0_5__ops15_Iter_comp_iterINS2_30arma_sort_index_helper_descendIjEEEEEvT_SF_T0_T1_T2_"
 "_ZSt17__merge_sort_loopIPN4arma22arma_sort_index_packetIdEEN9__gnu_cxx17__normal_iteratorIS3_St6vectorIS2_SaIS2_EEEExNS4_5__ops15_Iter_comp_iterINS0_29arma_sort_index_helper_ascendIdEEEEEvT_SF_T0_T1_T2_"
 "_ZSt17__merge_sort_loopIPN4arma22arma_sort_index_packetIdEEN9__gnu_cxx17__normal_iteratorIS3_St6vectorIS2_SaIS2_EEEExNS4_5__ops15_Iter_comp_iterINS0_30arma_sort_index_helper_descendIdEEEEEvT_SF_T0_T1_T2_"
 "_ZSt17__merge_sort_loopIPN4arma22arma_sort_index_packetIjEEN9__gnu_cxx17__normal_iteratorIS3_St6vectorIS2_SaIS2_EEEExNS4_5__ops15_Iter_comp_iterINS0_29arma_sort_index_helper_ascendIjEEEEEvT_SF_T0_T1_T2_"
 "_ZSt17__merge_sort_loopIPN4arma22arma_sort_index_packetIjEEN9__gnu_cxx17__normal_iteratorIS3_St6vectorIS2_SaIS2_EEEExNS4_5__ops15_Iter_comp_iterINS0_30arma_sort_index_helper_descendIjEEEEEvT_SF_T0_T1_T2_"
 "_ZSt17__rotate_adaptiveIN9__gnu_cxx17__normal_iteratorIPN4arma22arma_sort_index_packetIdEESt6vectorIS4_SaIS4_EEEES5_xET_SA_SA_SA_T1_SB_T0_SB_"
 "_ZSt17__rotate_adaptiveIN9__gnu_cxx17__normal_iteratorIPN4arma22arma_sort_index_packetIjEESt6vectorIS4_SaIS4_EEEES5_xET_SA_SA_SA_T1_SB_T0_SB_"
 "_ZSt17__size_to_integery"
 "_ZSt18__do_uninit_fill_nIPSt6vectorIdSaIdEEyS2_ET_S4_T0_RKT1_"
 "_ZSt18uninitialized_copyIN9__gnu_cxx17__normal_iteratorIPKdSt6vectorIdSaIdEEEEPdET0_T_SA_S9_"
 "_ZSt18uninitialized_copyIN9__gnu_cxx17__normal_iteratorIPKSt6vectorIdSaIdEES2_IS4_SaIS4_EEEEPS4_ET0_T_SC_SB_"
 "_ZSt18uninitialized_copyIPdS0_ET0_T_S2_S1_"
 "_ZSt18uninitialized_copyIPKdPdET0_T_S4_S3_"
 "_ZSt18uninitialized_copyIPKSt6vectorIdSaIdEEPS2_ET0_T_S7_S6_"
 "_ZSt18uninitialized_copyIPKSt6vectorIS0_IdSaIdEESaIS2_EEPS4_ET0_T_S9_S8_"
 "_ZSt19__relocate_object_aISt6vectorIdSaIdEES2_SaIS2_EEvPT_PT0_RT1_"
 "_ZSt20get_temporary_bufferIN4arma22arma_sort_index_packetIdEEESt4pairIPT_xEx"
 "_ZSt20get_temporary_bufferIN4arma22arma_sort_index_packetIjEEESt4pairIPT_xEx"
 "_ZSt20uninitialized_fill_nIPdydET_S1_T0_RKT1_"
 "_ZSt20uninitialized_fill_nIPSt6vectorIdSaIdEEyS2_ET_S4_T0_RKT1_"
 "_ZSt21__inplace_stable_sortIN9__gnu_cxx17__normal_iteratorIPN4arma22arma_sort_index_packetIdEESt6vectorIS4_SaIS4_EEEENS0_5__ops15_Iter_comp_iterINS2_29arma_sort_index_helper_ascendIdEEEEEvT_SF_T0_"
 "_ZSt21__inplace_stable_sortIN9__gnu_cxx17__normal_iteratorIPN4arma22arma_sort_index_packetIdEESt6vectorIS4_SaIS4_EEEENS0_5__ops15_Iter_comp_iterINS2_30arma_sort_index_helper_descendIdEEEEEvT_SF_T0_"
 "_ZSt21__inplace_stable_sortIN9__gnu_cxx17__normal_iteratorIPN4arma22arma_sort_index_packetIjEESt6vectorIS4_SaIS4_EEEENS0_5__ops15_Iter_comp_iterINS2_29arma_sort_index_helper_ascendIjEEEEEvT_SF_T0_"
 "_ZSt21__inplace_stable_sortIN9__gnu_cxx17__normal_iteratorIPN4arma22arma_sort_index_packetIjEESt6vectorIS4_SaIS4_EEEENS0_5__ops15_Iter_comp_iterINS2_30arma_sort_index_helper_descendIjEEEEEvT_SF_T0_"
 "_ZSt21__move_merge_adaptiveIPN4arma22arma_sort_index_packetIdEEN9__gnu_cxx17__normal_iteratorIS3_St6vectorIS2_SaIS2_EEEES9_NS4_5__ops15_Iter_comp_iterINS0_29arma_sort_index_helper_ascendIdEEEEEvT_SF_T0_SG_T1_T2_"
 "_ZSt21__move_merge_adaptiveIPN4arma22arma_sort_index_packetIdEEN9__gnu_cxx17__normal_iteratorIS3_St6vectorIS2_SaIS2_EEEES9_NS4_5__ops15_Iter_comp_iterINS0_30arma_sort_index_helper_descendIdEEEEEvT_SF_T0_SG_T1_T2_"
 "_ZSt21__move_merge_adaptiveIPN4arma22arma_sort_index_packetIjEEN9__gnu_cxx17__normal_iteratorIS3_St6vectorIS2_SaIS2_EEEES9_NS4_5__ops15_Iter_comp_iterINS0_29arma_sort_index_helper_ascendIjEEEEEvT_SF_T0_SG_T1_T2_"
 "_ZSt21__move_merge_adaptiveIPN4arma22arma_sort_index_packetIjEEN9__gnu_cxx17__normal_iteratorIS3_St6vectorIS2_SaIS2_EEEES9_NS4_5__ops15_Iter_comp_iterINS0_30arma_sort_index_helper_descendIjEEEEEvT_SF_T0_SG_T1_T2_"
 "_ZSt21__unguarded_partitionIN9__gnu_cxx17__normal_iteratorIPdSt6vectorIdSaIdEEEENS0_5__ops15_Iter_less_iterEET_S9_S9_S9_T0_"
 "_ZSt22__chunk_insertion_sortIN9__gnu_cxx17__normal_iteratorIPN4arma22arma_sort_index_packetIdEESt6vectorIS4_SaIS4_EEEExNS0_5__ops15_Iter_comp_iterINS2_29arma_sort_index_helper_ascendIdEEEEEvT_SF_T0_T1_"
 "_ZSt22__chunk_insertion_sortIN9__gnu_cxx17__normal_iteratorIPN4arma22arma_sort_index_packetIdEESt6vectorIS4_SaIS4_EEEExNS0_5__ops15_Iter_comp_iterINS2_30arma_sort_index_helper_descendIdEEEEEvT_SF_T0_T1_"
 "_ZSt22__chunk_insertion_sortIN9__gnu_cxx17__normal_iteratorIPN4arma22arma_sort_index_packetIjEESt6vectorIS4_SaIS4_EEEExNS0_5__ops15_Iter_comp_iterINS2_29arma_sort_index_helper_ascendIjEEEEEvT_SF_T0_T1_"
 "_ZSt22__chunk_insertion_sortIN9__gnu_cxx17__normal_iteratorIPN4arma22arma_sort_index_packetIjEESt6vectorIS4_SaIS4_EEEExNS0_5__ops15_Iter_comp_iterINS2_30arma_sort_index_helper_descendIjEEEEEvT_SF_T0_T1_"
 "_ZSt22__copy_move_backward_aILb1EN9__gnu_cxx17__normal_iteratorIPdSt6vectorIdSaIdEEEES6_ET1_T0_S8_S7_"
 "_ZSt22__copy_move_backward_aILb1EN9__gnu_cxx17__normal_iteratorIPN4arma22arma_sort_index_packetIdEESt6vectorIS4_SaIS4_EEEES9_ET1_T0_SB_SA_"
 "_ZSt22__copy_move_backward_aILb1EN9__gnu_cxx17__normal_iteratorIPN4arma22arma_sort_index_packetIjEESt6vectorIS4_SaIS4_EEEES9_ET1_T0_SB_SA_"
 "_ZSt22__copy_move_backward_aILb1EPN4arma22arma_sort_index_packetIdEEN9__gnu_cxx17__normal_iteratorIS3_St6vectorIS2_SaIS2_EEEEET1_T0_SB_SA_"
 "_ZSt22__copy_move_backward_aILb1EPN4arma22arma_sort_index_packetIjEEN9__gnu_cxx17__normal_iteratorIS3_St6vectorIS2_SaIS2_EEEEET1_T0_SB_SA_"
 "_ZSt22__final_insertion_sortIN9__gnu_cxx17__normal_iteratorIPdSt6vectorIdSaIdEEEENS0_5__ops15_Iter_less_iterEEvT_S9_T0_"
 "_ZSt22__merge_without_bufferIN9__gnu_cxx17__normal_iteratorIPN4arma22arma_sort_index_packetIdEESt6vectorIS4_SaIS4_EEEExNS0_5__ops15_Iter_comp_iterINS2_29arma_sort_index_helper_ascendIdEEEEEvT_SF_SF_T0_SG_T1_"
 "_ZSt22__merge_without_bufferIN9__gnu_cxx17__normal_iteratorIPN4arma22arma_sort_index_packetIdEESt6vectorIS4_SaIS4_EEEExNS0_5__ops15_Iter_comp_iterINS2_30arma_sort_index_helper_descendIdEEEEEvT_SF_SF_T0_SG_T1_"
 "_ZSt22__merge_without_bufferIN9__gnu_cxx17__normal_iteratorIPN4arma22arma_sort_index_packetIjEESt6vectorIS4_SaIS4_EEEExNS0_5__ops15_Iter_comp_iterINS2_29arma_sort_index_helper_ascendIjEEEEEvT_SF_SF_T0_SG_T1_"
 "_ZSt22__merge_without_bufferIN9__gnu_cxx17__normal_iteratorIPN4arma22arma_sort_index_packetIjEESt6vectorIS4_SaIS4_EEEExNS0_5__ops15_Iter_comp_iterINS2_30arma_sort_index_helper_descendIjEEEEEvT_SF_SF_T0_SG_T1_"
 "_ZSt22__move_median_to_firstIN9__gnu_cxx17__normal_iteratorIPdSt6vectorIdSaIdEEEENS0_5__ops15_Iter_less_iterEEvT_S9_S9_S9_T0_"
 "_ZSt22__stable_sort_adaptiveIN9__gnu_cxx17__normal_iteratorIPN4arma22arma_sort_index_packetIdEESt6vectorIS4_SaIS4_EEEES5_NS0_5__ops15_Iter_comp_iterINS2_29arma_sort_index_helper_ascendIdEEEEEvT_SF_SF_T0_T1_"
 "_ZSt22__stable_sort_adaptiveIN9__gnu_cxx17__normal_iteratorIPN4arma22arma_sort_index_packetIdEESt6vectorIS4_SaIS4_EEEES5_NS0_5__ops15_Iter_comp_iterINS2_30arma_sort_index_helper_descendIdEEEEEvT_SF_SF_T0_T1_"
 "_ZSt22__stable_sort_adaptiveIN9__gnu_cxx17__normal_iteratorIPN4arma22arma_sort_index_packetIjEESt6vectorIS4_SaIS4_EEEES5_NS0_5__ops15_Iter_comp_iterINS2_29arma_sort_index_helper_ascendIjEEEEEvT_SF_SF_T0_T1_"
 "_ZSt22__stable_sort_adaptiveIN9__gnu_cxx17__normal_iteratorIPN4arma22arma_sort_index_packetIjEESt6vectorIS4_SaIS4_EEEES5_NS0_5__ops15_Iter_comp_iterINS2_30arma_sort_index_helper_descendIjEEEEEvT_SF_SF_T0_T1_"
 "_ZSt22__uninitialized_copy_aIN9__gnu_cxx17__normal_iteratorIPKdSt6vectorIdSaIdEEEEPddET0_T_SA_S9_RSaIT1_E"
 "_ZSt22__uninitialized_copy_aIN9__gnu_cxx17__normal_iteratorIPKSt6vectorIdSaIdEES2_IS4_SaIS4_EEEEPS4_S4_ET0_T_SC_SB_RSaIT1_E"
 "_ZSt22__uninitialized_copy_aIPdS0_dET0_T_S2_S1_RSaIT1_E"
 "_ZSt22__uninitialized_copy_aIPKdPddET0_T_S4_S3_RSaIT1_E"
 "_ZSt22__uninitialized_copy_aIPKSt6vectorIdSaIdEEPS2_S2_ET0_T_S7_S6_RSaIT1_E"
 "_ZSt22__uninitialized_copy_aIPKSt6vectorIS0_IdSaIdEESaIS2_EEPS4_S4_ET0_T_S9_S8_RSaIT1_E"
 "_ZSt23__copy_move_backward_a1ILb1EPdS0_ET1_T0_S2_S1_"
 "_ZSt23__copy_move_backward_a1ILb1EPN4arma22arma_sort_index_packetIdEES3_ET1_T0_S5_S4_"
 "_ZSt23__copy_move_backward_a1ILb1EPN4arma22arma_sort_index_packetIjEES3_ET1_T0_S5_S4_"
 "_ZSt23__copy_move_backward_a2ILb1EPdS0_ET1_T0_S2_S1_"
 "_ZSt23__copy_move_backward_a2ILb1EPN4arma22arma_sort_index_packetIdEES3_ET1_T0_S5_S4_"
 "_ZSt23__copy_move_backward_a2ILb1EPN4arma22arma_sort_index_packetIjEES3_ET1_T0_S5_S4_"
 "_ZSt23__merge_adaptive_resizeIN9__gnu_cxx17__normal_iteratorIPN4arma22arma_sort_index_packetIdEESt6vectorIS4_SaIS4_EEEExS5_NS0_5__ops15_Iter_comp_iterINS2_29arma_sort_index_helper_ascendIdEEEEEvT_SF_SF_T0_SG_T1_SG_T2_"
 "_ZSt23__merge_adaptive_resizeIN9__gnu_cxx17__normal_iteratorIPN4arma22arma_sort_index_packetIdEESt6vectorIS4_SaIS4_EEEExS5_NS0_5__ops15_Iter_comp_iterINS2_30arma_sort_index_helper_descendIdEEEEEvT_SF_SF_T0_SG_T1_SG_T2_"
 "_ZSt23__merge_adaptive_resizeIN9__gnu_cxx17__normal_iteratorIPN4arma22arma_sort_index_packetIjEESt6vectorIS4_SaIS4_EEEExS5_NS0_5__ops15_Iter_comp_iterINS2_29arma_sort_index_helper_ascendIjEEEEEvT_SF_SF_T0_SG_T1_SG_T2_"
 "_ZSt23__merge_adaptive_resizeIN9__gnu_cxx17__normal_iteratorIPN4arma22arma_sort_index_packetIjEESt6vectorIS4_SaIS4_EEEExS5_NS0_5__ops15_Iter_comp_iterINS2_30arma_sort_index_helper_descendIjEEEEEvT_SF_SF_T0_SG_T1_SG_T2_"
 "_ZSt24__merge_sort_with_bufferIN9__gnu_cxx17__normal_iteratorIPN4arma22arma_sort_index_packetIdEESt6vectorIS4_SaIS4_EEEES5_NS0_5__ops15_Iter_comp_iterINS2_29arma_sort_index_helper_ascendIdEEEEEvT_SF_T0_T1_"
 "_ZSt24__merge_sort_with_bufferIN9__gnu_cxx17__normal_iteratorIPN4arma22arma_sort_index_packetIdEESt6vectorIS4_SaIS4_EEEES5_NS0_5__ops15_Iter_comp_iterINS2_30arma_sort_index_helper_descendIdEEEEEvT_SF_T0_T1_"
 "_ZSt24__merge_sort_with_bufferIN9__gnu_cxx17__normal_iteratorIPN4arma22arma_sort_index_packetIjEESt6vectorIS4_SaIS4_EEEES5_NS0_5__ops15_Iter_comp_iterINS2_29arma_sort_index_helper_ascendIjEEEEEvT_SF_T0_T1_"
 "_ZSt24__merge_sort_with_bufferIN9__gnu_cxx17__normal_iteratorIPN4arma22arma_sort_index_packetIjEESt6vectorIS4_SaIS4_EEEES5_NS0_5__ops15_Iter_comp_iterINS2_30arma_sort_index_helper_descendIjEEEEEvT_SF_T0_T1_"
 "_ZSt24__uninitialized_fill_n_aIPdyddET_S1_T0_RKT1_RSaIT2_E"
 "_ZSt24__uninitialized_fill_n_aIPSt6vectorIdSaIdEEyS2_S2_ET_S4_T0_RKT1_RSaIT2_E"
 "_ZSt25__unguarded_linear_insertIN9__gnu_cxx17__normal_iteratorIPdSt6vectorIdSaIdEEEENS0_5__ops14_Val_less_iterEEvT_T0_"
 "_ZSt25__unguarded_linear_insertIN9__gnu_cxx17__normal_iteratorIPN4arma22arma_sort_index_packetIdEESt6vectorIS4_SaIS4_EEEENS0_5__ops14_Val_comp_iterINS2_29arma_sort_index_helper_ascendIdEEEEEvT_T0_"
 "_ZSt25__unguarded_linear_insertIN9__gnu_cxx17__normal_iteratorIPN4arma22arma_sort_index_packetIdEESt6vectorIS4_SaIS4_EEEENS0_5__ops14_Val_comp_iterINS2_30arma_sort_index_helper_descendIdEEEEEvT_T0_"
 "_ZSt25__unguarded_linear_insertIN9__gnu_cxx17__normal_iteratorIPN4arma22arma_sort_index_packetIjEESt6vectorIS4_SaIS4_EEEENS0_5__ops14_Val_comp_iterINS2_29arma_sort_index_helper_ascendIjEEEEEvT_T0_"
 "_ZSt25__unguarded_linear_insertIN9__gnu_cxx17__normal_iteratorIPN4arma22arma_sort_index_packetIjEESt6vectorIS4_SaIS4_EEEENS0_5__ops14_Val_comp_iterINS2_30arma_sort_index_helper_descendIjEEEEEvT_T0_"
 "_ZSt25__uninitialized_default_nIPdyET_S1_T0_"
 "_ZSt25__uninitialized_default_nIPN4arma22arma_sort_index_packetIdEEyET_S4_T0_"
 "_ZSt25__uninitialized_default_nIPN4arma22arma_sort_index_packetIjEEyET_S4_T0_"
 "_ZSt25__uninitialized_default_nIPSt6vectorIdSaIdEEyET_S4_T0_"
 "_ZSt26__unguarded_insertion_sortIN9__gnu_cxx17__normal_iteratorIPdSt6vectorIdSaIdEEEENS0_5__ops15_Iter_less_iterEEvT_S9_T0_"
 "_ZSt27__unguarded_partition_pivotIN9__gnu_cxx17__normal_iteratorIPdSt6vectorIdSaIdEEEENS0_5__ops15_Iter_less_iterEET_S9_S9_T0_"
 "_ZSt27__uninitialized_default_n_aIPdydET_S1_T0_RSaIT1_E"
 "_ZSt27__uninitialized_default_n_aIPN4arma22arma_sort_index_packetIdEEyS2_ET_S4_T0_RSaIT1_E"
 "_ZSt27__uninitialized_default_n_aIPN4arma22arma_sort_index_packetIjEEyS2_ET_S4_T0_RSaIT1_E"
 "_ZSt27__uninitialized_default_n_aIPSt6vectorIdSaIdEEyS2_ET_S4_T0_RSaIT1_E"
 "_ZSt29__stable_sort_adaptive_resizeIN9__gnu_cxx17__normal_iteratorIPN4arma22arma_sort_index_packetIdEESt6vectorIS4_SaIS4_EEEES5_xNS0_5__ops15_Iter_comp_iterINS2_29arma_sort_index_helper_ascendIdEEEEEvT_SF_T0_T1_T2_"
 "_ZSt29__stable_sort_adaptive_resizeIN9__gnu_cxx17__normal_iteratorIPN4arma22arma_sort_index_packetIdEESt6vectorIS4_SaIS4_EEEES5_xNS0_5__ops15_Iter_comp_iterINS2_30arma_sort_index_helper_descendIdEEEEEvT_SF_T0_T1_T2_"
 "_ZSt29__stable_sort_adaptive_resizeIN9__gnu_cxx17__normal_iteratorIPN4arma22arma_sort_index_packetIjEESt6vectorIS4_SaIS4_EEEES5_xNS0_5__ops15_Iter_comp_iterINS2_29arma_sort_index_helper_ascendIjEEEEEvT_SF_T0_T1_T2_"
 "_ZSt29__stable_sort_adaptive_resizeIN9__gnu_cxx17__normal_iteratorIPN4arma22arma_sort_index_packetIjEESt6vectorIS4_SaIS4_EEEES5_xNS0_5__ops15_Iter_comp_iterINS2_30arma_sort_index_helper_descendIjEEEEEvT_SF_T0_T1_T2_"
 "_ZSt29__uninitialized_construct_bufIN4arma22arma_sort_index_packetIdEEN9__gnu_cxx17__normal_iteratorIPS2_St6vectorIS2_SaIS2_EEEEEvPT_SB_T0_"
 "_ZSt29__uninitialized_construct_bufIN4arma22arma_sort_index_packetIjEEN9__gnu_cxx17__normal_iteratorIPS2_St6vectorIS2_SaIS2_EEEEEvPT_SB_T0_"
 "_ZSt30__move_merge_adaptive_backwardIN9__gnu_cxx17__normal_iteratorIPN4arma22arma_sort_index_packetIdEESt6vectorIS4_SaIS4_EEEES5_S9_NS0_5__ops15_Iter_comp_iterINS2_29arma_sort_index_helper_ascendIdEEEEEvT_SF_T0_SG_T1_T2_"
 "_ZSt30__move_merge_adaptive_backwardIN9__gnu_cxx17__normal_iteratorIPN4arma22arma_sort_index_packetIdEESt6vectorIS4_SaIS4_EEEES5_S9_NS0_5__ops15_Iter_comp_iterINS2_30arma_sort_index_helper_descendIdEEEEEvT_SF_T0_SG_T1_T2_"
 "_ZSt30__move_merge_adaptive_backwardIN9__gnu_cxx17__normal_iteratorIPN4arma22arma_sort_index_packetIjEESt6vectorIS4_SaIS4_EEEES5_S9_NS0_5__ops15_Iter_comp_iterINS2_29arma_sort_index_helper_ascendIjEEEEEvT_SF_T0_SG_T1_T2_"
 "_ZSt30__move_merge_adaptive_backwardIN9__gnu_cxx17__normal_iteratorIPN4arma22arma_sort_index_packetIjEESt6vectorIS4_SaIS4_EEEES5_S9_NS0_5__ops15_Iter_comp_iterINS2_30arma_sort_index_helper_descendIjEEEEEvT_SF_T0_SG_T1_T2_"
 "_ZSt3absd"
 "_ZSt3maxIdERKT_S2_S2_"
 "_ZSt3maxIiERKT_S2_S2_"
 "_ZSt3maxIjERKT_S2_S2_"
 "_ZSt3maxIyERKT_S2_S2_"
 "_ZSt3minIdERKT_S2_S2_"
 "_ZSt3minIiERKT_S2_S2_"
 "_ZSt3minIjERKT_S2_S2_"
 "_ZSt3minIxERKT_S2_S2_"
 "_ZSt3minIyERKT_S2_S2_"
 "_ZSt3powIdiEN9__gnu_cxx11__promote_2IDTplcvNS1_IT_XsrSt12__is_integerIS2_E7__valueEE6__typeELi0EcvNS1_IT0_XsrS3_IS7_E7__valueEE6__typeELi0EEXsrS3_ISB_E7__valueEE6__typeES2_S7_"
 "_ZSt4__lgIxET_S0_"
 "_ZSt4copyIN9__gnu_cxx17__normal_iteratorIPKdSt6vectorIdSaIdEEEENS1_IPdS6_EEET0_T_SB_SA_"
 "_ZSt4copyIN9__gnu_cxx17__normal_iteratorIPKdSt6vectorIdSaIdEEEEPdET0_T_SA_S9_"
 "_ZSt4copyIPdS0_ET0_T_S2_S1_"
 "_ZSt4copyIPKdPdET0_T_S4_S3_"
 "_ZSt4moveIN9__gnu_cxx17__normal_iteratorIPN4arma22arma_sort_index_packetIdEESt6vectorIS4_SaIS4_EEEES5_ET0_T_SB_SA_"
 "_ZSt4moveIN9__gnu_cxx17__normal_iteratorIPN4arma22arma_sort_index_packetIdEESt6vectorIS4_SaIS4_EEEES9_ET0_T_SB_SA_"
 "_ZSt4moveIN9__gnu_cxx17__normal_iteratorIPN4arma22arma_sort_index_packetIjEESt6vectorIS4_SaIS4_EEEES5_ET0_T_SB_SA_"
 "_ZSt4moveIN9__gnu_cxx17__normal_iteratorIPN4arma22arma_sort_index_packetIjEESt6vectorIS4_SaIS4_EEEES9_ET0_T_SB_SA_"
 "_ZSt4moveIPN4arma22arma_sort_index_packetIdEEN9__gnu_cxx17__normal_iteratorIS3_St6vectorIS2_SaIS2_EEEEET0_T_SB_SA_"
 "_ZSt4moveIPN4arma22arma_sort_index_packetIjEEN9__gnu_cxx17__normal_iteratorIS3_St6vectorIS2_SaIS2_EEEEET0_T_SB_SA_"
 "_ZSt4moveIRdEONSt16remove_referenceIT_E4typeEOS2_"
 "_ZSt4moveIRN4arma22arma_sort_index_packetIdEEEONSt16remove_referenceIT_E4typeEOS5_"
 "_ZSt4moveIRN4arma22arma_sort_index_packetIjEEEONSt16remove_referenceIT_E4typeEOS5_"
 "_ZSt4moveIRN4arma29arma_sort_index_helper_ascendIdEEEONSt16remove_referenceIT_E4typeEOS5_"
 "_ZSt4moveIRN4arma29arma_sort_index_helper_ascendIjEEEONSt16remove_referenceIT_E4typeEOS5_"
 "_ZSt4moveIRN4arma30arma_sort_index_helper_descendIdEEEONSt16remove_referenceIT_E4typeEOS5_"
 "_ZSt4moveIRN4arma30arma_sort_index_helper_descendIjEEEONSt16remove_referenceIT_E4typeEOS5_"
 "_ZSt4moveIRN9__gnu_cxx5__ops15_Iter_comp_iterIN4arma29arma_sort_index_helper_ascendIdEEEEEONSt16remove_referenceIT_E4typeEOS9_"
 "_ZSt4moveIRN9__gnu_cxx5__ops15_Iter_comp_iterIN4arma29arma_sort_index_helper_ascendIjEEEEEONSt16remove_referenceIT_E4typeEOS9_"
 "_ZSt4moveIRN9__gnu_cxx5__ops15_Iter_comp_iterIN4arma30arma_sort_index_helper_descendIdEEEEEONSt16remove_referenceIT_E4typeEOS9_"
 "_ZSt4moveIRN9__gnu_cxx5__ops15_Iter_comp_iterIN4arma30arma_sort_index_helper_descendIjEEEEEONSt16remove_referenceIT_E4typeEOS9_"
 "_ZSt4moveIRN9__gnu_cxx5__ops15_Iter_less_iterEEONSt16remove_referenceIT_E4typeEOS5_"
 "_ZSt4moveIRNSt12_Vector_baseIdSaIdEE12_Vector_implEEONSt16remove_referenceIT_E4typeEOS6_"
 "_ZSt4moveIRNSt7__cxx1112basic_stringIcSt11char_traitsIcESaIcEEEEONSt16remove_referenceIT_E4typeEOS8_"
 "_ZSt4moveIRPKdEONSt16remove_referenceIT_E4typeEOS4_"
 "_ZSt4moveIRPKSt6vectorIdSaIdEEEONSt16remove_referenceIT_E4typeEOS7_"
 "_ZSt4moveIRPKSt6vectorIS0_IdSaIdEESaIS2_EEEONSt16remove_referenceIT_E4typeEOS9_"
 "_ZSt4moveIRSt6vectorIdSaIdEEEONSt16remove_referenceIT_E4typeEOS5_"
 "_ZSt4moveIRxEONSt16remove_referenceIT_E4typeEOS2_"
 "_ZSt4sortIN9__gnu_cxx17__normal_iteratorIPdSt6vectorIdSaIdEEEEEvT_S7_"
 "_ZSt4swapIdENSt9enable_ifIXsrSt6__and_IJSt6__not_ISt15__is_tuple_likeIT_EESt21is_move_constructibleIS4_ESt18is_move_assignableIS4_EEE5valueEvE4typeERS4_SE_"
 "_ZSt4swapIN4arma22arma_sort_index_packetIdEEENSt9enable_ifIXsrSt6__and_IJSt6__not_ISt15__is_tuple_likeIT_EESt21is_move_constructibleIS7_ESt18is_move_assignableIS7_EEE5valueEvE4typeERS7_SH_"
 "_ZSt4swapIN4arma22arma_sort_index_packetIjEEENSt9enable_ifIXsrSt6__and_IJSt6__not_ISt15__is_tuple_likeIT_EESt21is_move_constructibleIS7_ESt18is_move_assignableIS7_EEE5valueEvE4typeERS7_SH_"
 "_ZSt4swapIxENSt9enable_ifIXsrSt6__and_IJSt6__not_ISt15__is_tuple_likeIT_EESt21is_move_constructibleIS4_ESt18is_move_assignableIS4_EEE5valueEvE4typeERS4_SE_"
 "_ZSt5isnand"
 "_ZSt6__sortIN9__gnu_cxx17__normal_iteratorIPdSt6vectorIdSaIdEEEENS0_5__ops15_Iter_less_iterEEvT_S9_T0_"
 "_ZSt6fill_nIPdydET_S1_T0_RKT1_"
 "_ZSt6fill_nIPN4arma22arma_sort_index_packetIdEEyS2_ET_S4_T0_RKT1_"
 "_ZSt6fill_nIPN4arma22arma_sort_index_packetIjEEyS2_ET_S4_T0_RKT1_"
 "_ZSt7forwardIdEOT_RNSt16remove_referenceIS0_E4typeE"
 "_ZSt7forwardIRKdEOT_RNSt16remove_referenceIS2_E4typeE"
 "_ZSt7forwardIRKSt6vectorIdSaIdEEEOT_RNSt16remove_referenceIS5_E4typeE"
 "_ZSt7forwardIRKSt6vectorIS0_IdSaIdEESaIS2_EEEOT_RNSt16remove_referenceIS7_E4typeE"
 "_ZSt7forwardIRKyEOT_RNSt16remove_referenceIS2_E4typeE"
 "_ZSt7forwardIRPN4arma22arma_sort_index_packetIdEEEOT_RNSt16remove_referenceIS5_E4typeE"
 "_ZSt7forwardIRPN4arma22arma_sort_index_packetIjEEEOT_RNSt16remove_referenceIS5_E4typeE"
 "_ZSt7forwardIRxEOT_RNSt16remove_referenceIS1_E4typeE"
 "_ZSt7forwardISt6vectorIdSaIdEEEOT_RNSt16remove_referenceIS3_E4typeE"
 "_ZSt8__fill_aIPddEvT_S1_RKT0_"
 "_ZSt8__fill_aIPN4arma22arma_sort_index_packetIdEES2_EvT_S4_RKT0_"
 "_ZSt8__fill_aIPN4arma22arma_sort_index_packetIjEES2_EvT_S4_RKT0_"
 "_ZSt8_DestroyIN9__gnu_cxx17__normal_iteratorIPdSt6vectorIdSaIdEEEEEvT_S7_"
 "_ZSt8_DestroyIPdEvT_S1_"
 "_ZSt8_DestroyIPN4arma22arma_sort_index_packetIdEEEvT_S4_"
 "_ZSt8_DestroyIPN4arma22arma_sort_index_packetIjEEEvT_S4_"
 "_ZSt8_DestroyIPSt6vectorIdSaIdEEEvT_S4_"
 "_ZSt8_DestroyIPSt6vectorIS0_IdSaIdEESaIS2_EEEvT_S6_"
 "_ZSt8_DestroyIPyEvT_S1_"
 "_ZSt8_DestroyISt6vectorIdSaIdEEEvPT_"
 "_ZSt8_DestroyISt6vectorIS0_IdSaIdEESaIS2_EEEvPT_"
 "_ZSt8isfinited"
 "_ZSt9__advanceIN9__gnu_cxx17__normal_iteratorIPN4arma22arma_sort_index_packetIdEESt6vectorIS4_SaIS4_EEEExEvRT_T0_St26random_access_iterator_tag"
 "_ZSt9__advanceIN9__gnu_cxx17__normal_iteratorIPN4arma22arma_sort_index_packetIjEESt6vectorIS4_SaIS4_EEEExEvRT_T0_St26random_access_iterator_tag"
 "_ZSt9__fill_a1IPddEN9__gnu_cxx11__enable_ifIXsrSt11__is_scalarIT0_E7__valueEvE6__typeET_S8_RKS4_"
 "_ZSt9__fill_a1IPN4arma22arma_sort_index_packetIdEES2_EN9__gnu_cxx11__enable_ifIXntsrSt11__is_scalarIT0_E7__valueEvE6__typeET_SB_RKS7_"
 "_ZSt9__fill_a1IPN4arma22arma_sort_index_packetIjEES2_EN9__gnu_cxx11__enable_ifIXntsrSt11__is_scalarIT0_E7__valueEvE6__typeET_SB_RKS7_"
 "_ZSt9iter_swapIN9__gnu_cxx17__normal_iteratorIPdSt6vectorIdSaIdEEEES6_EvT_T0_"
 "_ZSt9iter_swapIN9__gnu_cxx17__normal_iteratorIPN4arma22arma_sort_index_packetIdEESt6vectorIS4_SaIS4_EEEES9_EvT_T0_"
 "_ZSt9iter_swapIN9__gnu_cxx17__normal_iteratorIPN4arma22arma_sort_index_packetIjEESt6vectorIS4_SaIS4_EEEES9_EvT_T0_"
 "_ZStplIcSt11char_traitsIcESaIcEENSt7__cxx1112basic_stringIT_T0_T1_EEOS8_S9_"
 "_ZTCN4Rcpp8RostreamILb0EEE0_So"
 "_ZTCN4Rcpp8RostreamILb1EEE0_So"
 "_ZTIN4Rcpp10RstreambufILb0EEE"
 "_ZTIN4Rcpp10RstreambufILb1EEE"
 "_ZTIN4Rcpp8RostreamILb0EEE"
 "_ZTIN4Rcpp8RostreamILb1EEE"
 "_ZTISt11logic_error"
 "_ZTISt12out_of_range"
 "_ZTISt13runtime_error"
 "_ZTISt16invalid_argument"
 "_ZTISt9bad_alloc"
 "_ZTISt9exception"
 "_ZTSN4Rcpp10RstreambufILb0EEE"
 "_ZTSN4Rcpp10RstreambufILb1EEE"
 "_ZTSN4Rcpp8RostreamILb0EEE"
 "_ZTSN4Rcpp8RostreamILb1EEE"
 "_ZTSSt11logic_error"
 "_ZTSSt12out_of_range"
 "_ZTSSt13runtime_error"
 "_ZTSSt16invalid_argument"
 "_ZTSSt9bad_alloc"
 "_ZTSSt9exception"
 "_ZTTN4Rcpp8RostreamILb0EEE"
 "_ZTTN4Rcpp8RostreamILb1EEE"
 "_ZTv0_n24_N4Rcpp8RostreamILb0EED0Ev"
 "_ZTv0_n24_N4Rcpp8RostreamILb0EED1Ev"
 "_ZTv0_n24_N4Rcpp8RostreamILb1EED0Ev"
 "_ZTv0_n24_N4Rcpp8RostreamILb1EED1Ev"
 "_ZTVN4Rcpp10RstreambufILb0EEE"
 "_ZTVN4Rcpp10RstreambufILb1EEE"
 "_ZTVN4Rcpp8RostreamILb0EEE"
 "_ZTVN4Rcpp8RostreamILb1EEE"
 "_ZZN4arma6auxlib15solve_sym_rcondINS_3MatIdEEEEbRNS2_INT_8pod_typeEEERS5_S7_RKNS_4BaseIS5_S4_EEENKUlvE_clEv"
 "_ZZN4arma6auxlib16solve_band_rcondINS_3MatIdEEEEbRNS2_INT_9elem_typeEEERNS4_8pod_typeERKS6_jjRKNS_4BaseIS5_S4_EEENKUlvE_clEv"
 "_ZZN4arma6auxlib17solve_sympd_rcondINS_3MatIdEEEEbRNS2_INT_8pod_typeEEERbRS5_S7_RKNS_4BaseIS5_S4_EEENKUlvE_clEv"
 "_ZZN4arma6auxlib18solve_square_rcondINS_3MatIdEEEEbRNS2_INT_9elem_typeEEERNS4_8pod_typeES7_RKNS_4BaseIS5_S4_EEENKUlvE_clEv"
 "_ZZN4arma6auxlib18solve_trimat_rcondINS_3MatIdEEEEbRNS2_INT_9elem_typeEEERNS4_8pod_typeERKS6_RKNS_4BaseIS5_S4_EEjENKUlvE_clEv"
 "_ZZNSt6vectorIdSaIdEE17_M_realloc_appendIJdEEEvDpOT_EN6_GuardC1EPdyRS0_"
 "_ZZNSt6vectorIdSaIdEE17_M_realloc_appendIJdEEEvDpOT_EN6_GuardD1Ev"
 "_ZZNSt6vectorIdSaIdEE17_M_realloc_appendIJRKdEEEvDpOT_EN6_GuardC1EPdyRS0_"
 "_ZZNSt6vectorIdSaIdEE17_M_realloc_appendIJRKdEEEvDpOT_EN6_GuardD1Ev"
 "_ZZNSt6vectorIS_IdSaIdEESaIS1_EE17_M_realloc_appendIJRKS1_EEEvDpOT_EN6_GuardC1EPS1_yRS2_"
 "_ZZNSt6vectorIS_IdSaIdEESaIS1_EE17_M_realloc_appendIJRKS1_EEEvDpOT_EN6_GuardD1Ev"
 "_ZZNSt6vectorIySaIyEE17_M_realloc_appendIJRKyEEEvDpOT_EN6_GuardC1EPyyRS0_"
 "_ZZNSt6vectorIySaIyEE17_M_realloc_appendIJRKyEEEvDpOT_EN6_GuardD1Ev"
 "_ZZNSt7__cxx1112basic_stringIcSt11char_traitsIcESaIcEE12_M_constructIPKcEEvT_S8_St20forward_iterator_tagEN6_GuardC1EPS4_"
 "_ZZNSt7__cxx1112basic_stringIcSt11char_traitsIcESaIcEE12_M_constructIPKcEEvT_S8_St20forward_iterator_tagEN6_GuardD1Ev"
 "_Z23CrossMappingCardinalityRKSt6vectorIS_IdSaIdEESaIS1_EES5_RKS_IySaIyEES9_S9_yyiiib"
 "_ZdlPvS_"
 "_ZGVZN10RcppThread10ThreadPool14globalInstanceEvE3ptr"
 "_ZGVZN10RcppThread8RMonitor8instanceEvE9instance_"
 "_ZN10RcppThread10ThreadPool13setNumThreadsEy"
 "_ZN10RcppThread10ThreadPool14globalInstanceEv"
 "_ZN10RcppThread10ThreadPool4waitEv"
 "_ZN10RcppThread10ThreadPoolC1Ev"
 "_ZN10RcppThread10ThreadPoolC1Ey"
 "_ZN10RcppThread11ProgressBar13printProgressEv"
 "_ZN10RcppThread11ProgressBar7makeBarB5cxx11Eyy"
 "_ZN10RcppThread11ProgressBarC1Eyy"
 "_ZN10RcppThread11ProgressBarD0Ev"
 "_ZN10RcppThread11ProgressBarD1Ev"
 "_ZN10RcppThread11RErrPrinterlsIA1_cEERS0_RKT_"
 "_ZN10RcppThread15ProgressPrinter10formatTimeB5cxx11Ey"
 "_ZN10RcppThread15ProgressPrinter10needsPrintEv"
 "_ZN10RcppThread15ProgressPrinter13remainingSecsEv"
 "_ZN10RcppThread15ProgressPrinter14progressStringB5cxx11Ev"
 "_ZN10RcppThread15ProgressPrinterC2Eyy"
 "_ZN10RcppThread15ProgressPrinterD2Ev"
 "_ZN10RcppThread15ProgressPrinterppEi"
 "_ZN10RcppThread18checkUserInterruptEb"
 "_ZN10RcppThread22UserInterruptExceptionC1Ev"
 "_ZN10RcppThread22UserInterruptExceptionD0Ev"
 "_ZN10RcppThread22UserInterruptExceptionD1Ev"
 "_ZN10RcppThread8RMonitor10callRCheckEPv"
 "_ZN10RcppThread8RMonitor11safelyPrintIA1_cEEvRKT_b"
 "_ZN10RcppThread8RMonitor11safelyPrintINSt7__cxx1112basic_stringIcSt11char_traitsIcESaIcEEEEEvRKT_b"
 "_ZN10RcppThread8RMonitor13isInterruptedEv"
 "_ZN10RcppThread8RMonitor14safelyPrintErrIA1_cEEvRKT_"
 "_ZN10RcppThread8RMonitor19safelyIsInterruptedEv"
 "_ZN10RcppThread8RMonitor20calledFromMainThreadEv"
 "_ZN10RcppThread8RMonitor24safelycheckUserInterruptEv"
 "_ZN10RcppThread8RMonitor5printEPv"
 "_ZN10RcppThread8RMonitor8instanceEv"
 "_ZN10RcppThread8RMonitor8printErrEPv"
 "_ZN10RcppThread8RMonitorC1Ev"
 "_ZN10RcppThread8RMonitorD1Ev"
 "_ZN10RcppThread8RPrinterlsIA1_cEERS0_RKT_"
 "_ZN10RcppThread8RPrinterlsINSt7__cxx1112basic_stringIcSt11char_traitsIcESaIcEEEEERS0_RKT_"
 "_ZN15IntersectionResaSEOS_"
 "_ZN15IntersectionResaSERKS_"
 "_ZN15IntersectionResC1EOS_"
 "_ZN15IntersectionResC1ERKS_"
 "_ZN15IntersectionResD1Ev"
 "_ZN6CMCResC1Ev"
 "_ZN6CMCResD1Ev"
 "_ZN9__gnu_cxx11char_traitsIcE2eqERKcS3_"
 "_ZN9__gnu_cxx11char_traitsIcE6lengthEPKc"
 "_ZN9__gnu_cxx16__aligned_membufISt4pairIKiSt6vectorIdSaIdEEEE6_M_ptrEv"
 "_ZN9__gnu_cxx16__aligned_membufISt4pairIKiSt6vectorIdSaIdEEEE7_M_addrEv"
 "_ZN9__gnu_cxx17__normal_iteratorIP15IntersectionResSt6vectorIS1_SaIS1_EEEC1ERKS2_"
 "_ZN9__gnu_cxx17__normal_iteratorIP15IntersectionResSt6vectorIS1_SaIS1_EEEppEv"
 "_ZN9__gnu_cxx17__normal_iteratorIPdSt6vectorIdSaIdEEEC1ERKS1_"
 "_ZN9__gnu_cxx17__normal_iteratorIPK15IntersectionResSt6vectorIS1_SaIS1_EEEC1ERKS3_"
 "_ZN9__gnu_cxx17__normal_iteratorIPK15IntersectionResSt6vectorIS1_SaIS1_EEEC1IPS1_vEERKNS0_IT_S6_EE"
 "_ZN9__gnu_cxx17__normal_iteratorIPK15IntersectionResSt6vectorIS1_SaIS1_EEEpLEx"
 "_ZN9__gnu_cxx17__normal_iteratorIPK15IntersectionResSt6vectorIS1_SaIS1_EEEppEv"
 "_ZN9__gnu_cxx17__normal_iteratorIPKdSt6vectorIdSaIdEEEC1ERKS2_"
 "_ZN9__gnu_cxx17__normal_iteratorIPKdSt6vectorIdSaIdEEEC1IPdvEERKNS0_IT_S5_EE"
 "_ZN9__gnu_cxx17__normal_iteratorIPKdSt6vectorIdSaIdEEEppEv"
 "_ZN9__gnu_cxx17__normal_iteratorIPKSt6vectorIdSaIdEES1_IS3_SaIS3_EEEC1ERKS5_"
 "_ZN9__gnu_cxx17__normal_iteratorIPKSt6vectorIdSaIdEES1_IS3_SaIS3_EEEppEv"
 "_ZN9__gnu_cxx17__normal_iteratorIPKySt6vectorIySaIyEEEC1ERKS2_"
 "_ZN9__gnu_cxx17__normal_iteratorIPKySt6vectorIySaIyEEEC1IPyvEERKNS0_IT_S5_EE"
 "_ZN9__gnu_cxx17__normal_iteratorIPKySt6vectorIySaIyEEEppEv"
 "_ZN9__gnu_cxx17__normal_iteratorIPN9quickpool5sched9TaskQueueESt6vectorIS3_NS1_3mem7aligned9allocatorIS3_Ly64EEEEEC1ERKS4_"
 "_ZN9__gnu_cxx17__normal_iteratorIPN9quickpool5sched9TaskQueueESt6vectorIS3_NS1_3mem7aligned9allocatorIS3_Ly64EEEEEppEv"
 "_ZN9__gnu_cxx17__normal_iteratorIPSt10unique_ptrIN9quickpool5sched10RingBufferIPSt8functionIFvvEEEESt14default_deleteIS9_EESt6vectorISC_SaISC_EEEC1ERKSD_"
 "_ZN9__gnu_cxx17__normal_iteratorIPSt4pairIidESt6vectorIS2_SaIS2_EEEC1ERKS3_"
 "_ZN9__gnu_cxx17__normal_iteratorIPSt4pairIidESt6vectorIS2_SaIS2_EEEppEv"
 "_ZN9__gnu_cxx17__normal_iteratorIPSt6threadSt6vectorIS1_SaIS1_EEEC1ERKS2_"
 "_ZN9__gnu_cxx17__normal_iteratorIPSt6threadSt6vectorIS1_SaIS1_EEEppEv"
 "_ZN9__gnu_cxx17__normal_iteratorIPSt6vectorI15IntersectionResSaIS2_EES1_IS4_SaIS4_EEEC1ERKS5_"
 "_ZN9__gnu_cxx17__normal_iteratorIPSt6vectorI15IntersectionResSaIS2_EES1_IS4_SaIS4_EEEppEv"
 "_ZN9__gnu_cxx17__normal_iteratorIPSt6vectorIdSaIdEES1_IS3_SaIS3_EEEC1ERKS4_"
 "_ZN9__gnu_cxx17__normal_iteratorIPSt6vectorIdSaIdEES1_IS3_SaIS3_EEEppEv"
 "_ZN9__gnu_cxx17__normal_iteratorIPySt6vectorIySaIyEEEC1ERKS1_"
 "_ZN9__gnu_cxx17__normal_iteratorIPySt6vectorIySaIyEEEmmEv"
 "_ZN9__gnu_cxx17__normal_iteratorIPySt6vectorIySaIyEEEppEv"
 "_ZN9__gnu_cxx5__ops14_Iter_less_valC1ENS0_15_Iter_less_iterE"
 "_ZN9__gnu_cxx5__ops15__val_comp_iterENS0_15_Iter_less_iterE"
 "_ZN9__gnu_cxx5__ops16__iter_less_iterEv"
 "_ZN9__gnu_cxx5__ops20__iter_equal_to_iterEv"
 "_ZN9__gnu_cxxeqIPKdSt6vectorIdSaIdEEEEbRKNS_17__normal_iteratorIT_T0_EESB_"
 "_ZN9__gnu_cxxeqIPySt6vectorIySaIyEEEEbRKNS_17__normal_iteratorIT_T0_EESA_"
 "_ZN9__gnu_cxxltIPySt6vectorIySaIyEEEEbRKNS_17__normal_iteratorIT_T0_EESA_"
 "_ZN9__gnu_cxxmiIP15IntersectionResSt6vectorIS1_SaIS1_EEEENS_17__normal_iteratorIT_T0_E15difference_typeERKS9_SC_"
 "_ZN9__gnu_cxxmiIPdSt6vectorIdSaIdEEEENS_17__normal_iteratorIT_T0_E15difference_typeERKS8_SB_"
 "_ZN9__gnu_cxxmiIPK15IntersectionResSt6vectorIS1_SaIS1_EEEENS_17__normal_iteratorIT_T0_E15difference_typeERKSA_SD_"
 "_ZN9__gnu_cxxmiIPKdSt6vectorIdSaIdEEEENS_17__normal_iteratorIT_T0_E15difference_typeERKS9_SC_"
 "_ZN9__gnu_cxxmiIPKySt6vectorIySaIyEEEENS_17__normal_iteratorIT_T0_E15difference_typeERKS9_SC_"
 "_ZN9__gnu_cxxmiIPSt10unique_ptrIN9quickpool5sched10RingBufferIPSt8functionIFvvEEEESt14default_deleteIS9_EESt6vectorISC_SaISC_EEEENS_17__normal_iteratorIT_T0_E15difference_typeERKSK_SN_"
 "_ZN9__gnu_cxxmiIPSt4pairIidESt6vectorIS2_SaIS2_EEEENS_17__normal_iteratorIT_T0_E15difference_typeERKSA_SD_"
 "_ZN9__gnu_cxxmiIPSt6vectorIdSaIdEES1_IS3_SaIS3_EEEENS_17__normal_iteratorIT_T0_E15difference_typeERKSA_SD_"
 "_ZN9__gnu_cxxmiIPySt6vectorIySaIyEEEENS_17__normal_iteratorIT_T0_E15difference_typeERKS8_SB_"
 "_ZN9__gnu_cxxneIP15IntersectionResSt6vectorIS1_SaIS1_EEEEbRKNS_17__normal_iteratorIT_T0_EESB_"
 "_ZN9__gnu_cxxneIPK15IntersectionResSt6vectorIS1_SaIS1_EEEEbRKNS_17__normal_iteratorIT_T0_EESC_"
 "_ZN9__gnu_cxxneIPKSt6vectorIdSaIdEES1_IS3_SaIS3_EEEEbRKNS_17__normal_iteratorIT_T0_EESD_"
 "_ZN9__gnu_cxxneIPKySt6vectorIySaIyEEEEbRKNS_17__normal_iteratorIT_T0_EESB_"
 "_ZN9__gnu_cxxneIPN9quickpool5sched9TaskQueueESt6vectorIS3_NS1_3mem7aligned9allocatorIS3_Ly64EEEEEEbRKNS_17__normal_iteratorIT_T0_EESG_"
 "_ZN9__gnu_cxxneIPSt4pairIidESt6vectorIS2_SaIS2_EEEEbRKNS_17__normal_iteratorIT_T0_EESC_"
 "_ZN9__gnu_cxxneIPSt6threadSt6vectorIS1_SaIS1_EEEEbRKNS_17__normal_iteratorIT_T0_EESB_"
 "_ZN9__gnu_cxxneIPSt6vectorI15IntersectionResSaIS2_EES1_IS4_SaIS4_EEEEbRKNS_17__normal_iteratorIT_T0_EESD_"
 "_ZN9__gnu_cxxneIPSt6vectorIdSaIdEES1_IS3_SaIS3_EEEEbRKNS_17__normal_iteratorIT_T0_EESC_"
 "_ZN9__gnu_cxxneIPySt6vectorIySaIyEEEEbRKNS_17__normal_iteratorIT_T0_EESA_"
 "_ZN9quickpool10ThreadPool10add_workerEy"
 "_ZN9quickpool10ThreadPool12join_threadsEv"
 "_ZN9quickpool10ThreadPool14execute_safelyERSt8functionIFvvEE"
 "_ZN9quickpool10ThreadPool14stop_and_resetEv"
 "_ZN9quickpool10ThreadPool18set_active_threadsEy"
 "_ZN9quickpool10ThreadPool4waitEy"
 "_ZN9quickpool10ThreadPoolC1Ey"
 "_ZN9quickpool10ThreadPooldlEPv"
 "_ZN9quickpool10ThreadPoolnwEy"
 "_ZN9quickpool3mem7aligned14relaxed_atomicINS_4loop5StateEEaSES4_"
 "_ZN9quickpool3mem7aligned14relaxed_atomicINS_4loop5StateEEC1ES4_"
 "_ZN9quickpool3mem7aligned14relaxed_atomicIyEaSEy"
 "_ZN9quickpool3mem7aligned14relaxed_atomicIyEC1Ey"
 "_ZN9quickpool3mem7aligned4freeEPv"
 "_ZN9quickpool3mem7aligned5allocEyy"
 "_ZN9quickpool3mem7aligned6atomicIiLy64EEaSEi"
 "_ZN9quickpool3mem7aligned6atomicIiLy64EEC1Ei"
 "_ZN9quickpool3mem7aligned6atomicINS_4loop5StateELy64EEC2ES4_"
 "_ZN9quickpool3mem7aligned6atomicINS_5sched11TaskManager6StatusELy64EEaSES5_"
 "_ZN9quickpool3mem7aligned6atomicINS_5sched11TaskManager6StatusELy64EEC1ES5_"
 "_ZN9quickpool3mem7aligned6atomicIyLy64EEC2Ey"
 "_ZN9quickpool3mem7aligned9allocatorINS_5sched9TaskQueueELy64EE10deallocateEPS4_y"
 "_ZN9quickpool3mem7aligned9allocatorINS_5sched9TaskQueueELy64EE7destroyIS4_EEvPT_"
 "_ZN9quickpool3mem7aligned9allocatorINS_5sched9TaskQueueELy64EE8allocateEyPKv"
 "_ZN9quickpool3mem7aligned9allocatorINS_5sched9TaskQueueELy64EE9constructIS4_JEEEvPT_DpOT0_"
 "_ZN9quickpool3mem7aligned9allocatorINS_5sched9TaskQueueELy64EEC1ERKS5_"
 "_ZN9quickpool3mem7aligned9allocatorINS_5sched9TaskQueueELy64EEC1Ev"
 "_ZN9quickpool3mem7aligned9allocatorINS_5sched9TaskQueueELy64EEC2ERKS5_"
 "_ZN9quickpool3mem7aligned9allocatorINS_5sched9TaskQueueELy64EED1Ev"
 "_ZN9quickpool3mem7aligned9allocatorINS_5sched9TaskQueueELy64EED2Ev"
 "_ZN9quickpool5sched10RingBufferIPSt8functionIFvvEEE9set_entryEyS5_"
 "_ZN9quickpool5sched10RingBufferIPSt8functionIFvvEEEC1Ey"
 "_ZN9quickpool5sched10RingBufferIPSt8functionIFvvEEED1Ev"
 "_ZN9quickpool5sched11TaskManager11report_failENSt15__exception_ptr13exception_ptrE"
 "_ZN9quickpool5sched11TaskManager13wait_for_jobsEy"
 "_ZN9quickpool5sched11TaskManager14report_successEv"
 "_ZN9quickpool5sched11TaskManager15wait_for_finishEy"
 "_ZN9quickpool5sched11TaskManager17rethrow_exceptionEv"
 "_ZN9quickpool5sched11TaskManager4stopEv"
 "_ZN9quickpool5sched11TaskManager6resizeEy"
 "_ZN9quickpool5sched11TaskManager7try_popISt8functionIFvvEEEEbRT_y"
 "_ZN9quickpool5sched11TaskManageraSEOS1_"
 "_ZN9quickpool5sched11TaskManagerC1Ey"
 "_ZN9quickpool5sched11TaskManagerD1Ev"
 "_ZN9quickpool5sched9TaskQueue4pushEOSt8functionIFvvEE"
 "_ZN9quickpool5sched9TaskQueue4stopEv"
 "_ZN9quickpool5sched9TaskQueue4waitEv"
 "_ZN9quickpool5sched9TaskQueue7try_popERSt8functionIFvvEE"
 "_ZN9quickpool5sched9TaskQueueC1Ey"
 "_ZN9quickpool5sched9TaskQueueD1Ev"
 "_ZNK10RcppThread10ThreadPool13getNumThreadsEv"
 "_ZNK10RcppThread22UserInterruptException4whatEv"
 "_ZNK9__gnu_cxx16__aligned_membufISt4pairIKiSt6vectorIdSaIdEEEE6_M_ptrEv"
 "_ZNK9__gnu_cxx16__aligned_membufISt4pairIKiSt6vectorIdSaIdEEEE7_M_addrEv"
 "_ZNK9__gnu_cxx17__normal_iteratorIP15IntersectionResSt6vectorIS1_SaIS1_EEE4baseEv"
 "_ZNK9__gnu_cxx17__normal_iteratorIP15IntersectionResSt6vectorIS1_SaIS1_EEEdeEv"
 "_ZNK9__gnu_cxx17__normal_iteratorIP15IntersectionResSt6vectorIS1_SaIS1_EEEplEx"
 "_ZNK9__gnu_cxx17__normal_iteratorIPdSt6vectorIdSaIdEEE4baseEv"
 "_ZNK9__gnu_cxx17__normal_iteratorIPdSt6vectorIdSaIdEEEdeEv"
 "_ZNK9__gnu_cxx17__normal_iteratorIPdSt6vectorIdSaIdEEEplEx"
 "_ZNK9__gnu_cxx17__normal_iteratorIPK15IntersectionResSt6vectorIS1_SaIS1_EEE4baseEv"
 "_ZNK9__gnu_cxx17__normal_iteratorIPK15IntersectionResSt6vectorIS1_SaIS1_EEEdeEv"
 "_ZNK9__gnu_cxx17__normal_iteratorIPKdSt6vectorIdSaIdEEE4baseEv"
 "_ZNK9__gnu_cxx17__normal_iteratorIPKdSt6vectorIdSaIdEEEdeEv"
 "_ZNK9__gnu_cxx17__normal_iteratorIPKSt6vectorIdSaIdEES1_IS3_SaIS3_EEE4baseEv"
 "_ZNK9__gnu_cxx17__normal_iteratorIPKSt6vectorIdSaIdEES1_IS3_SaIS3_EEEdeEv"
 "_ZNK9__gnu_cxx17__normal_iteratorIPKySt6vectorIySaIyEEE4baseEv"
 "_ZNK9__gnu_cxx17__normal_iteratorIPKySt6vectorIySaIyEEEdeEv"
 "_ZNK9__gnu_cxx17__normal_iteratorIPN9quickpool5sched9TaskQueueESt6vectorIS3_NS1_3mem7aligned9allocatorIS3_Ly64EEEEE4baseEv"
 "_ZNK9__gnu_cxx17__normal_iteratorIPN9quickpool5sched9TaskQueueESt6vectorIS3_NS1_3mem7aligned9allocatorIS3_Ly64EEEEEdeEv"
 "_ZNK9__gnu_cxx17__normal_iteratorIPSt10unique_ptrIN9quickpool5sched10RingBufferIPSt8functionIFvvEEEESt14default_deleteIS9_EESt6vectorISC_SaISC_EEE4baseEv"
 "_ZNK9__gnu_cxx17__normal_iteratorIPSt10unique_ptrIN9quickpool5sched10RingBufferIPSt8functionIFvvEEEESt14default_deleteIS9_EESt6vectorISC_SaISC_EEEdeEv"
 "_ZNK9__gnu_cxx17__normal_iteratorIPSt10unique_ptrIN9quickpool5sched10RingBufferIPSt8functionIFvvEEEESt14default_deleteIS9_EESt6vectorISC_SaISC_EEEmiEx"
 "_ZNK9__gnu_cxx17__normal_iteratorIPSt4pairIidESt6vectorIS2_SaIS2_EEE4baseEv"
 "_ZNK9__gnu_cxx17__normal_iteratorIPSt4pairIidESt6vectorIS2_SaIS2_EEEdeEv"
 "_ZNK9__gnu_cxx17__normal_iteratorIPSt4pairIidESt6vectorIS2_SaIS2_EEEmiEx"
 "_ZNK9__gnu_cxx17__normal_iteratorIPSt6threadSt6vectorIS1_SaIS1_EEE4baseEv"
 "_ZNK9__gnu_cxx17__normal_iteratorIPSt6threadSt6vectorIS1_SaIS1_EEEdeEv"
 "_ZNK9__gnu_cxx17__normal_iteratorIPSt6vectorI15IntersectionResSaIS2_EES1_IS4_SaIS4_EEE4baseEv"
 "_ZNK9__gnu_cxx17__normal_iteratorIPSt6vectorI15IntersectionResSaIS2_EES1_IS4_SaIS4_EEEdeEv"
 "_ZNK9__gnu_cxx17__normal_iteratorIPSt6vectorIdSaIdEES1_IS3_SaIS3_EEE4baseEv"
 "_ZNK9__gnu_cxx17__normal_iteratorIPSt6vectorIdSaIdEES1_IS3_SaIS3_EEEdeEv"
 "_ZNK9__gnu_cxx17__normal_iteratorIPSt6vectorIdSaIdEES1_IS3_SaIS3_EEEmiEx"
 "_ZNK9__gnu_cxx17__normal_iteratorIPSt6vectorIdSaIdEES1_IS3_SaIS3_EEEplEx"
 "_ZNK9__gnu_cxx17__normal_iteratorIPySt6vectorIySaIyEEE4baseEv"
 "_ZNK9__gnu_cxx17__normal_iteratorIPySt6vectorIySaIyEEEdeEv"
 "_ZNK9__gnu_cxx17__normal_iteratorIPySt6vectorIySaIyEEEmiEx"
 "_ZNK9__gnu_cxx17__normal_iteratorIPySt6vectorIySaIyEEEplEx"
 "_ZNK9__gnu_cxx5__ops14_Iter_less_valclINS_17__normal_iteratorIPySt6vectorIySaIyEEEEyEEbT_RT0_"
 "_ZNK9__gnu_cxx5__ops14_Val_less_iterclIyNS_17__normal_iteratorIPySt6vectorIySaIyEEEEEEbRT_T0_"
 "_ZNK9__gnu_cxx5__ops15_Iter_less_iterclINS_17__normal_iteratorIPySt6vectorIySaIyEEEES8_EEbT_T0_"
 "_ZNK9__gnu_cxx5__ops19_Iter_equal_to_iterclINS_17__normal_iteratorIPySt6vectorIySaIyEEEES8_EEbT_T0_"
 "_ZNK9quickpool10ThreadPool18get_active_threadsEv"
 "_ZNK9quickpool10ThreadPool4doneEv"
 "_ZNK9quickpool3mem7aligned14relaxed_atomicIyEcvyEv"
 "_ZNK9quickpool5sched10RingBufferIPSt8functionIFvvEEE13enlarged_copyEyy"
 "_ZNK9quickpool5sched10RingBufferIPSt8functionIFvvEEE8capacityEv"
 "_ZNK9quickpool5sched10RingBufferIPSt8functionIFvvEEE9get_entryEy"
 "_ZNK9quickpool5sched11TaskManager10is_runningEv"
 "_ZNK9quickpool5sched11TaskManager11has_erroredEv"
 "_ZNK9quickpool5sched11TaskManager24called_from_owner_threadEv"
 "_ZNK9quickpool5sched11TaskManager4doneEv"
 "_ZNK9quickpool5sched11TaskManager7stoppedEv"
 "_ZNK9quickpool5sched9TaskQueue5emptyEv"
 "_ZNKSt10_Select1stISt4pairIKiSt6vectorIdSaIdEEEEclERKS5_"
 "_ZNKSt10unique_ptrIA_PSt8functionIFvvEESt14default_deleteIS4_EE3getEv"
 "_ZNKSt10unique_ptrIA_PSt8functionIFvvEESt14default_deleteIS4_EEixEy"
 "_ZNKSt10unique_ptrIN9quickpool10ThreadPoolESt14default_deleteIS1_EE3getEv"
 "_ZNKSt10unique_ptrIN9quickpool10ThreadPoolESt14default_deleteIS1_EEptEv"
 "_ZNKSt11unique_lockISt5mutexE5mutexEv"
 "_ZNKSt12_Vector_baseI15IntersectionResSaIS0_EE13get_allocatorEv"
 "_ZNKSt12_Vector_baseI15IntersectionResSaIS0_EE19_M_get_Tp_allocatorEv"
 "_ZNKSt12_Vector_baseIdSaIdEE13get_allocatorEv"
 "_ZNKSt12_Vector_baseIdSaIdEE19_M_get_Tp_allocatorEv"
 "_ZNKSt12_Vector_baseIN9quickpool5sched9TaskQueueENS0_3mem7aligned9allocatorIS2_Ly64EEEE13get_allocatorEv"
 "_ZNKSt12_Vector_baseIN9quickpool5sched9TaskQueueENS0_3mem7aligned9allocatorIS2_Ly64EEEE19_M_get_Tp_allocatorEv"
 "_ZNKSt12_Vector_baseISt10unique_ptrIN9quickpool5sched10RingBufferIPSt8functionIFvvEEEESt14default_deleteIS8_EESaISB_EE19_M_get_Tp_allocatorEv"
 "_ZNKSt12_Vector_baseISt4pairIidESaIS1_EE19_M_get_Tp_allocatorEv"
 "_ZNKSt12_Vector_baseISt6threadSaIS0_EE13get_allocatorEv"
 "_ZNKSt12_Vector_baseISt6threadSaIS0_EE19_M_get_Tp_allocatorEv"
 "_ZNKSt12_Vector_baseISt6vectorIdSaIdEESaIS2_EE19_M_get_Tp_allocatorEv"
 "_ZNKSt12_Vector_baseIySaIyEE19_M_get_Tp_allocatorEv"
 "_ZNKSt13__atomic_baseIiEcviEv"
 "_ZNKSt13__atomic_baseIyEcvyEv"
 "_ZNKSt13_Rb_tree_nodeISt4pairIKiSt6vectorIdSaIdEEEE9_M_valptrEv"
 "_ZNKSt13move_iteratorIP15IntersectionResE4baseEv"
 "_ZNKSt13move_iteratorIP15IntersectionResEdeEv"
 "_ZNKSt14_Function_base8_M_emptyEv"
 "_ZNKSt14default_deleteIA_PSt8functionIFvvEEEclIS3_EENSt9enable_ifIXsrSt14is_convertibleIPA_T_PS4_E5valueEvE4typeEPS9_"
 "_ZNKSt14default_deleteIN9quickpool5sched10RingBufferIPSt8functionIFvvEEEEEclEPS7_"
 "_ZNKSt14default_deleteINSt6thread6_StateEEclEPS1_"
 "_ZNKSt15__uniq_ptr_implIN9quickpool10ThreadPoolESt14default_deleteIS1_EE6_M_ptrEv"
 "_ZNKSt15__uniq_ptr_implIPSt8functionIFvvEESt14default_deleteIA_S3_EE6_M_ptrEv"
 "_ZNKSt16initializer_listIdE3endEv"
 "_ZNKSt16initializer_listIdE4sizeEv"
 "_ZNKSt16initializer_listIdE5beginEv"
 "_ZNKSt17_Rb_tree_iteratorISt4pairIKiSt6vectorIdSaIdEEEEdeEv"
 "_ZNKSt23_Rb_tree_const_iteratorISt4pairIKiSt6vectorIdSaIdEEEE13_M_const_castEv"
 "_ZNKSt3mapIiSt6vectorIdSaIdEESt4lessIiESaISt4pairIKiS2_EEE8key_compEv"
 "_ZNKSt4lessIiEclERKiS2_"
 "_ZNKSt6atomicIbEcvbEv"
 "_ZNKSt6atomicIN9quickpool4loop5StateEE4loadESt12memory_order"
 "_ZNKSt6atomicIN9quickpool5sched11TaskManager6StatusEE4loadESt12memory_order"
 "_ZNKSt6atomicIPN9quickpool5sched10RingBufferIPSt8functionIFvvEEEEE4loadESt12memory_order"
 "_ZNKSt6chrono10time_pointINS_3_V212steady_clockENS_8durationIxSt5ratioILx1ELx1000000000EEEEE16time_since_epochEv"
 "_ZNKSt6chrono10time_pointINS_3_V212system_clockENS_8durationIxSt5ratioILx1ELx1000000000EEEEE16time_since_epochEv"
 "_ZNKSt6chrono10time_pointINS_3_V212system_clockENS_8durationIxSt5ratioILx1ELx1EEEEE16time_since_epochEv"
 "_ZNKSt6chrono8durationIfSt5ratioILx1ELx1EEE5countEv"
 "_ZNKSt6chrono8durationIxSt5ratioILx1ELx1000000000EEE5countEv"
 "_ZNKSt6chrono8durationIxSt5ratioILx1ELx1000EEE5countEv"
 "_ZNKSt6chrono8durationIxSt5ratioILx1ELx1EEE5countEv"
 "_ZNKSt6thread8joinableEv"
 "_ZNKSt6vectorI15IntersectionResSaIS0_EE12_M_check_lenEyPKc"
 "_ZNKSt6vectorI15IntersectionResSaIS0_EE3endEv"
 "_ZNKSt6vectorI15IntersectionResSaIS0_EE4sizeEv"
 "_ZNKSt6vectorI15IntersectionResSaIS0_EE5beginEv"
 "_ZNKSt6vectorI15IntersectionResSaIS0_EE6cbeginEv"
 "_ZNKSt6vectorI15IntersectionResSaIS0_EE8max_sizeEv"
 "_ZNKSt6vectorIdSaIdEE12_M_check_lenEyPKc"
 "_ZNKSt6vectorIdSaIdEE3endEv"
 "_ZNKSt6vectorIdSaIdEE4cendEv"
 "_ZNKSt6vectorIdSaIdEE4sizeEv"
 "_ZNKSt6vectorIdSaIdEE5beginEv"
 "_ZNKSt6vectorIdSaIdEE5emptyEv"
 "_ZNKSt6vectorIdSaIdEE6cbeginEv"
 "_ZNKSt6vectorIdSaIdEE8capacityEv"
 "_ZNKSt6vectorIdSaIdEE8max_sizeEv"
 "_ZNKSt6vectorIN9quickpool5sched9TaskQueueENS0_3mem7aligned9allocatorIS2_Ly64EEEE4sizeEv"
 "_ZNKSt6vectorIS_IdSaIdEESaIS1_EE12_M_check_lenEyPKc"
 "_ZNKSt6vectorIS_IdSaIdEESaIS1_EE3endEv"
 "_ZNKSt6vectorIS_IdSaIdEESaIS1_EE4sizeEv"
 "_ZNKSt6vectorIS_IdSaIdEESaIS1_EE5beginEv"
 "_ZNKSt6vectorIS_IdSaIdEESaIS1_EE8capacityEv"
 "_ZNKSt6vectorIS_IdSaIdEESaIS1_EE8max_sizeEv"
 "_ZNKSt6vectorIS_IdSaIdEESaIS1_EEixEy"
 "_ZNKSt6vectorISt10unique_ptrIN9quickpool5sched10RingBufferIPSt8functionIFvvEEEESt14default_deleteIS8_EESaISB_EE12_M_check_lenEyPKc"
 "_ZNKSt6vectorISt10unique_ptrIN9quickpool5sched10RingBufferIPSt8functionIFvvEEEESt14default_deleteIS8_EESaISB_EE4sizeEv"
 "_ZNKSt6vectorISt10unique_ptrIN9quickpool5sched10RingBufferIPSt8functionIFvvEEEESt14default_deleteIS8_EESaISB_EE8max_sizeEv"
 "_ZNKSt6vectorISt4pairIidESaIS1_EE12_M_check_lenEyPKc"
 "_ZNKSt6vectorISt4pairIidESaIS1_EE4sizeEv"
 "_ZNKSt6vectorISt4pairIidESaIS1_EE8max_sizeEv"
 "_ZNKSt6vectorISt6threadSaIS0_EE4sizeEv"
 "_ZNKSt6vectorIySaIyEE12_M_check_lenEyPKc"
 "_ZNKSt6vectorIySaIyEE3endEv"
 "_ZNKSt6vectorIySaIyEE4sizeEv"
 "_ZNKSt6vectorIySaIyEE5beginEv"
 "_ZNKSt6vectorIySaIyEE6cbeginEv"
 "_ZNKSt6vectorIySaIyEE8capacityEv"
 "_ZNKSt6vectorIySaIyEE8max_sizeEv"
 "_ZNKSt8_Rb_treeIiSt4pairIKiSt6vectorIdSaIdEEESt10_Select1stIS5_ESt4lessIiESaIS5_EE10_Auto_node6_M_keyEv"
 "_ZNKSt8_Rb_treeIiSt4pairIKiSt6vectorIdSaIdEEESt10_Select1stIS5_ESt4lessIiESaIS5_EE4sizeEv"
 "_ZNKSt8_Rb_treeIiSt4pairIKiSt6vectorIdSaIdEEESt10_Select1stIS5_ESt4lessIiESaIS5_EE8key_compEv"
 "_ZNKSt8_Rb_treeIiSt4pairIKiSt6vectorIdSaIdEEESt10_Select1stIS5_ESt4lessIiESaIS5_EE9_M_mbeginEv"
 "_ZNKSt8functionIFvvEEclEv"
 "_ZNKSt8functionIFvvEEcvbEv"
 "_ZNKSt9_Any_data9_M_accessEv"
 "_ZNSt10_Head_baseILy0EPN9quickpool10ThreadPoolELb0EE7_M_headERKS3_"
 "_ZNSt10_Head_baseILy0EPN9quickpool10ThreadPoolELb0EE7_M_headERS3_"
 "_ZNSt10_Head_baseILy0EPN9quickpool10ThreadPoolELb0EEC2Ev"
 "_ZNSt10_Head_baseILy0EPN9quickpool5sched10RingBufferIPSt8functionIFvvEEEELb0EE7_M_headERS9_"
 "_ZNSt10_Head_baseILy0EPN9quickpool5sched10RingBufferIPSt8functionIFvvEEEELb0EEC2Ev"
 "_ZNSt10_Head_baseILy0EPNSt6thread6_StateELb0EE7_M_headERS3_"
 "_ZNSt10_Head_baseILy0EPNSt6thread6_StateELb0EEC2Ev"
 "_ZNSt10_Head_baseILy0EPPSt8functionIFvvEELb0EE7_M_headERKS5_"
 "_ZNSt10_Head_baseILy0EPPSt8functionIFvvEELb0EE7_M_headERS5_"
 "_ZNSt10_Head_baseILy0EPPSt8functionIFvvEELb0EEC2Ev"
 "_ZNSt10_Head_baseILy0ERKiLb0EE7_M_headERS2_"
 "_ZNSt10_Head_baseILy0ERKiLb0EEC2ES1_"
 "_ZNSt10_Head_baseILy0EZN9quickpool10ThreadPool10add_workerEyEUlvE_Lb0EE7_M_headERS3_"
 "_ZNSt10_Head_baseILy0EZN9quickpool10ThreadPool10add_workerEyEUlvE_Lb0EEC2IS2_EEOT_"
 "_ZNSt10_Head_baseILy1ESt14default_deleteIA_PSt8functionIFvvEEELb1EE7_M_headERS7_"
 "_ZNSt10_Head_baseILy1ESt14default_deleteIA_PSt8functionIFvvEEELb1EEC2Ev"
 "_ZNSt10_Head_baseILy1ESt14default_deleteIN9quickpool10ThreadPoolEELb1EEC2Ev"
 "_ZNSt10_Head_baseILy1ESt14default_deleteIN9quickpool5sched10RingBufferIPSt8functionIFvvEEEEELb1EE7_M_headERSA_"
 "_ZNSt10_Head_baseILy1ESt14default_deleteIN9quickpool5sched10RingBufferIPSt8functionIFvvEEEEELb1EEC2Ev"
 "_ZNSt10_Head_baseILy1ESt14default_deleteINSt6thread6_StateEELb1EE7_M_headERS4_"
 "_ZNSt10_Head_baseILy1ESt14default_deleteINSt6thread6_StateEELb1EEC2Ev"
 "_ZNSt10lock_guardISt5mutexEC1ERS0_"
 "_ZNSt10lock_guardISt5mutexED1Ev"
 "_ZNSt10unique_ptrIA_PSt8functionIFvvEESt14default_deleteIS4_EE11get_deleterEv"
 "_ZNSt10unique_ptrIA_PSt8functionIFvvEESt14default_deleteIS4_EEC1IPS3_S6_vbEET_"
 "_ZNSt10unique_ptrIA_PSt8functionIFvvEESt14default_deleteIS4_EED1Ev"
 "_ZNSt10unique_ptrIN9quickpool10ThreadPoolESt14default_deleteIS1_EEC1IS3_vEEPS1_"
 "_ZNSt10unique_ptrIN9quickpool5sched10RingBufferIPSt8functionIFvvEEEESt14default_deleteIS7_EE11get_deleterEv"
 "_ZNSt10unique_ptrIN9quickpool5sched10RingBufferIPSt8functionIFvvEEEESt14default_deleteIS7_EEC1EOSA_"
 "_ZNSt10unique_ptrIN9quickpool5sched10RingBufferIPSt8functionIFvvEEEESt14default_deleteIS7_EEC1IS9_vEEPS7_"
 "_ZNSt10unique_ptrIN9quickpool5sched10RingBufferIPSt8functionIFvvEEEESt14default_deleteIS7_EED1Ev"
 "_ZNSt10unique_ptrINSt6thread6_StateESt14default_deleteIS1_EE11get_deleterEv"
 "_ZNSt10unique_ptrINSt6thread6_StateESt14default_deleteIS1_EEC1IS3_vEEPS1_"
 "_ZNSt10unique_ptrINSt6thread6_StateESt14default_deleteIS1_EED1Ev"
 "_ZNSt11__copy_moveILb0ELb0ESt26random_access_iterator_tagE12__assign_oneIddEEvPT_PT0_"
 "_ZNSt11__copy_moveILb0ELb0ESt26random_access_iterator_tagE12__assign_oneIdKdEEvPT_PT0_"
 "_ZNSt11__copy_moveILb0ELb0ESt26random_access_iterator_tagE12__assign_oneIyKyEEvPT_PT0_"
 "_ZNSt11__copy_moveILb0ELb0ESt26random_access_iterator_tagE8__copy_mIPK15IntersectionResPS3_EET0_T_S8_S7_"
 "_ZNSt11__copy_moveILb0ELb0ESt26random_access_iterator_tagE8__copy_mIPKSt6vectorIdSaIdEEPS5_EET0_T_SA_S9_"
 "_ZNSt11__copy_moveILb0ELb0ESt26random_access_iterator_tagE8__copy_mIPSt6vectorIdSaIdEES6_EET0_T_S8_S7_"
 "_ZNSt11__copy_moveILb0ELb1ESt26random_access_iterator_tagE8__copy_mIddEEPT0_PT_S6_S4_"
 "_ZNSt11__copy_moveILb0ELb1ESt26random_access_iterator_tagE8__copy_mIKddEEPT0_PT_S7_S5_"
 "_ZNSt11__copy_moveILb0ELb1ESt26random_access_iterator_tagE8__copy_mIKyyEEPT0_PT_S7_S5_"
 "_ZNSt11__copy_moveILb1ELb0ESt26random_access_iterator_tagE12__assign_oneIddEEvPT_PT0_"
 "_ZNSt11__copy_moveILb1ELb0ESt26random_access_iterator_tagE12__assign_oneIyyEEvPT_PT0_"
 "_ZNSt11__copy_moveILb1ELb1ESt26random_access_iterator_tagE8__copy_mIyyEEPT0_PT_S6_S4_"
 "_ZNSt11_Tuple_implILy0EJPN9quickpool10ThreadPoolESt14default_deleteIS1_EEE7_M_headERKS5_"
 "_ZNSt11_Tuple_implILy0EJPN9quickpool10ThreadPoolESt14default_deleteIS1_EEE7_M_headERS5_"
 "_ZNSt11_Tuple_implILy0EJPN9quickpool10ThreadPoolESt14default_deleteIS1_EEEC2Ev"
 "_ZNSt11_Tuple_implILy0EJPN9quickpool5sched10RingBufferIPSt8functionIFvvEEEESt14default_deleteIS7_EEE7_M_headERSB_"
 "_ZNSt11_Tuple_implILy0EJPN9quickpool5sched10RingBufferIPSt8functionIFvvEEEESt14default_deleteIS7_EEEC2EOSB_"
 "_ZNSt11_Tuple_implILy0EJPN9quickpool5sched10RingBufferIPSt8functionIFvvEEEESt14default_deleteIS7_EEEC2Ev"
 "_ZNSt11_Tuple_implILy0EJPNSt6thread6_StateESt14default_deleteIS1_EEE7_M_headERS5_"
 "_ZNSt11_Tuple_implILy0EJPNSt6thread6_StateESt14default_deleteIS1_EEEC2Ev"
 "_ZNSt11_Tuple_implILy0EJPPSt8functionIFvvEESt14default_deleteIA_S3_EEE7_M_headERKS8_"
 "_ZNSt11_Tuple_implILy0EJPPSt8functionIFvvEESt14default_deleteIA_S3_EEE7_M_headERS8_"
 "_ZNSt11_Tuple_implILy0EJPPSt8functionIFvvEESt14default_deleteIA_S3_EEEC2Ev"
 "_ZNSt11_Tuple_implILy0EJRKiEE7_M_headERS2_"
 "_ZNSt11_Tuple_implILy0EJRKiEEC2EOS2_"
 "_ZNSt11_Tuple_implILy0EJRKiEEC2ES1_"
 "_ZNSt11_Tuple_implILy0EJZN9quickpool10ThreadPool10add_workerEyEUlvE_EE7_M_headERS3_"
 "_ZNSt11_Tuple_implILy0EJZN9quickpool10ThreadPool10add_workerEyEUlvE_EEC2IS2_EEOT_"
 "_ZNSt11_Tuple_implILy1EJSt14default_deleteIA_PSt8functionIFvvEEEEE7_M_headERS7_"
 "_ZNSt11_Tuple_implILy1EJSt14default_deleteIA_PSt8functionIFvvEEEEEC2Ev"
 "_ZNSt11_Tuple_implILy1EJSt14default_deleteIN9quickpool10ThreadPoolEEEEC2Ev"
 "_ZNSt11_Tuple_implILy1EJSt14default_deleteIN9quickpool5sched10RingBufferIPSt8functionIFvvEEEEEEE7_M_headERSA_"
 "_ZNSt11_Tuple_implILy1EJSt14default_deleteIN9quickpool5sched10RingBufferIPSt8functionIFvvEEEEEEEC2EOSA_"
 "_ZNSt11_Tuple_implILy1EJSt14default_deleteIN9quickpool5sched10RingBufferIPSt8functionIFvvEEEEEEEC2Ev"
 "_ZNSt11_Tuple_implILy1EJSt14default_deleteINSt6thread6_StateEEEE7_M_headERS4_"
 "_ZNSt11_Tuple_implILy1EJSt14default_deleteINSt6thread6_StateEEEEC2Ev"
 "_ZNSt11char_traitsIcE6lengthEPKc"
 "_ZNSt11this_thread6get_idEv"
 "_ZNSt11unique_lockISt5mutexE4lockEv"
 "_ZNSt11unique_lockISt5mutexE6unlockEv"
 "_ZNSt11unique_lockISt5mutexEC1ERS0_"
 "_ZNSt11unique_lockISt5mutexED1Ev"
 "_ZNSt12__mutex_baseC2Ev"
 "_ZNSt12__mutex_baseD2Ev"
 "_ZNSt12_Destroy_auxILb0EE9__destroyIN9__gnu_cxx17__normal_iteratorIPSt6vectorIdSaIdEES4_IS6_SaIS6_EEEEEEvT_SB_"
 "_ZNSt12_Destroy_auxILb0EE9__destroyIP15IntersectionResEEvT_S4_"
 "_ZNSt12_Destroy_auxILb0EE9__destroyIPSt10unique_ptrIN9quickpool5sched10RingBufferIPSt8functionIFvvEEEESt14default_deleteISA_EEEEvT_SF_"
 "_ZNSt12_Destroy_auxILb0EE9__destroyIPSt6threadEEvT_S4_"
 "_ZNSt12_Destroy_auxILb0EE9__destroyIPSt6vectorI15IntersectionResSaIS3_EEEEvT_S7_"
 "_ZNSt12_Destroy_auxILb0EE9__destroyIPSt6vectorIdSaIdEEEEvT_S6_"
 "_ZNSt12_Destroy_auxILb0EE9__destroyIPSt6vectorIySaIyEEEEvT_S6_"
 "_ZNSt12_Destroy_auxILb1EE9__destroyIN9__gnu_cxx17__normal_iteratorIPdSt6vectorIdSaIdEEEEEEvT_S9_"
 "_ZNSt12_Destroy_auxILb1EE9__destroyIPdEEvT_S3_"
 "_ZNSt12_Destroy_auxILb1EE9__destroyIPSt4pairIidEEEvT_S5_"
 "_ZNSt12_Destroy_auxILb1EE9__destroyIPyEEvT_S3_"
 "_ZNSt12_Vector_baseI15IntersectionResSaIS0_EE11_M_allocateEy"
 "_ZNSt12_Vector_baseI15IntersectionResSaIS0_EE12_Vector_implC1ERKS1_"
 "_ZNSt12_Vector_baseI15IntersectionResSaIS0_EE12_Vector_implC1Ev"
 "_ZNSt12_Vector_baseI15IntersectionResSaIS0_EE12_Vector_implD1Ev"
 "_ZNSt12_Vector_baseI15IntersectionResSaIS0_EE13_M_deallocateEPS0_y"
 "_ZNSt12_Vector_baseI15IntersectionResSaIS0_EE17_Vector_impl_data12_M_copy_dataERKS3_"
 "_ZNSt12_Vector_baseI15IntersectionResSaIS0_EE17_Vector_impl_data12_M_swap_dataERS3_"
 "_ZNSt12_Vector_baseI15IntersectionResSaIS0_EE17_Vector_impl_dataC1Ev"
 "_ZNSt12_Vector_baseI15IntersectionResSaIS0_EE17_Vector_impl_dataC2Ev"
 "_ZNSt12_Vector_baseI15IntersectionResSaIS0_EE19_M_get_Tp_allocatorEv"
 "_ZNSt12_Vector_baseI15IntersectionResSaIS0_EEC2ERKS1_"
 "_ZNSt12_Vector_baseI15IntersectionResSaIS0_EEC2Ev"
 "_ZNSt12_Vector_baseI15IntersectionResSaIS0_EED2Ev"
 "_ZNSt12_Vector_baseIdSaIdEE11_M_allocateEy"
 "_ZNSt12_Vector_baseIdSaIdEE12_Vector_implC1EOS2_"
 "_ZNSt12_Vector_baseIdSaIdEE12_Vector_implC1ERKS0_"
 "_ZNSt12_Vector_baseIdSaIdEE12_Vector_implC1Ev"
 "_ZNSt12_Vector_baseIdSaIdEE12_Vector_implD1Ev"
 "_ZNSt12_Vector_baseIdSaIdEE13_M_deallocateEPdy"
 "_ZNSt12_Vector_baseIdSaIdEE17_M_create_storageEy"
 "_ZNSt12_Vector_baseIdSaIdEE17_Vector_impl_data12_M_copy_dataERKS2_"
 "_ZNSt12_Vector_baseIdSaIdEE17_Vector_impl_data12_M_swap_dataERS2_"
 "_ZNSt12_Vector_baseIdSaIdEE17_Vector_impl_dataC1Ev"
 "_ZNSt12_Vector_baseIdSaIdEE17_Vector_impl_dataC2EOS2_"
 "_ZNSt12_Vector_baseIdSaIdEE17_Vector_impl_dataC2Ev"
 "_ZNSt12_Vector_baseIdSaIdEE19_M_get_Tp_allocatorEv"
 "_ZNSt12_Vector_baseIdSaIdEEC2EOS1_"
 "_ZNSt12_Vector_baseIdSaIdEEC2ERKS0_"
 "_ZNSt12_Vector_baseIdSaIdEEC2Ev"
 "_ZNSt12_Vector_baseIdSaIdEEC2EyRKS0_"
 "_ZNSt12_Vector_baseIdSaIdEED2Ev"
 "_ZNSt12_Vector_baseIN9quickpool5sched9TaskQueueENS0_3mem7aligned9allocatorIS2_Ly64EEEE11_M_allocateEy"
 "_ZNSt12_Vector_baseIN9quickpool5sched9TaskQueueENS0_3mem7aligned9allocatorIS2_Ly64EEEE12_Vector_implC1ERKS6_"
 "_ZNSt12_Vector_baseIN9quickpool5sched9TaskQueueENS0_3mem7aligned9allocatorIS2_Ly64EEEE12_Vector_implD1Ev"
 "_ZNSt12_Vector_baseIN9quickpool5sched9TaskQueueENS0_3mem7aligned9allocatorIS2_Ly64EEEE13_M_deallocateEPS2_y"
 "_ZNSt12_Vector_baseIN9quickpool5sched9TaskQueueENS0_3mem7aligned9allocatorIS2_Ly64EEEE17_M_create_storageEy"
 "_ZNSt12_Vector_baseIN9quickpool5sched9TaskQueueENS0_3mem7aligned9allocatorIS2_Ly64EEEE17_Vector_impl_data12_M_copy_dataERKS8_"
 "_ZNSt12_Vector_baseIN9quickpool5sched9TaskQueueENS0_3mem7aligned9allocatorIS2_Ly64EEEE17_Vector_impl_data12_M_swap_dataERS8_"
 "_ZNSt12_Vector_baseIN9quickpool5sched9TaskQueueENS0_3mem7aligned9allocatorIS2_Ly64EEEE17_Vector_impl_dataC1Ev"
 "_ZNSt12_Vector_baseIN9quickpool5sched9TaskQueueENS0_3mem7aligned9allocatorIS2_Ly64EEEE17_Vector_impl_dataC2Ev"
 "_ZNSt12_Vector_baseIN9quickpool5sched9TaskQueueENS0_3mem7aligned9allocatorIS2_Ly64EEEE19_M_get_Tp_allocatorEv"
 "_ZNSt12_Vector_baseIN9quickpool5sched9TaskQueueENS0_3mem7aligned9allocatorIS2_Ly64EEEEC2ERKS6_"
 "_ZNSt12_Vector_baseIN9quickpool5sched9TaskQueueENS0_3mem7aligned9allocatorIS2_Ly64EEEEC2EyRKS6_"
 "_ZNSt12_Vector_baseIN9quickpool5sched9TaskQueueENS0_3mem7aligned9allocatorIS2_Ly64EEEED2Ev"
 "_ZNSt12_Vector_baseISt10unique_ptrIN9quickpool5sched10RingBufferIPSt8functionIFvvEEEESt14default_deleteIS8_EESaISB_EE11_M_allocateEy"
 "_ZNSt12_Vector_baseISt10unique_ptrIN9quickpool5sched10RingBufferIPSt8functionIFvvEEEESt14default_deleteIS8_EESaISB_EE12_Vector_implC1Ev"
 "_ZNSt12_Vector_baseISt10unique_ptrIN9quickpool5sched10RingBufferIPSt8functionIFvvEEEESt14default_deleteIS8_EESaISB_EE12_Vector_implD1Ev"
 "_ZNSt12_Vector_baseISt10unique_ptrIN9quickpool5sched10RingBufferIPSt8functionIFvvEEEESt14default_deleteIS8_EESaISB_EE13_M_deallocateEPSB_y"
 "_ZNSt12_Vector_baseISt10unique_ptrIN9quickpool5sched10RingBufferIPSt8functionIFvvEEEESt14default_deleteIS8_EESaISB_EE17_Vector_impl_dataC2Ev"
 "_ZNSt12_Vector_baseISt10unique_ptrIN9quickpool5sched10RingBufferIPSt8functionIFvvEEEESt14default_deleteIS8_EESaISB_EE19_M_get_Tp_allocatorEv"
 "_ZNSt12_Vector_baseISt10unique_ptrIN9quickpool5sched10RingBufferIPSt8functionIFvvEEEESt14default_deleteIS8_EESaISB_EEC2Ev"
 "_ZNSt12_Vector_baseISt10unique_ptrIN9quickpool5sched10RingBufferIPSt8functionIFvvEEEESt14default_deleteIS8_EESaISB_EED2Ev"
 "_ZNSt12_Vector_baseISt4pairIidESaIS1_EE11_M_allocateEy"
 "_ZNSt12_Vector_baseISt4pairIidESaIS1_EE12_Vector_implC1Ev"
 "_ZNSt12_Vector_baseISt4pairIidESaIS1_EE12_Vector_implD1Ev"
 "_ZNSt12_Vector_baseISt4pairIidESaIS1_EE13_M_deallocateEPS1_y"
 "_ZNSt12_Vector_baseISt4pairIidESaIS1_EE17_Vector_impl_dataC2Ev"
 "_ZNSt12_Vector_baseISt4pairIidESaIS1_EE19_M_get_Tp_allocatorEv"
 "_ZNSt12_Vector_baseISt4pairIidESaIS1_EEC2Ev"
 "_ZNSt12_Vector_baseISt4pairIidESaIS1_EED2Ev"
 "_ZNSt12_Vector_baseISt6threadSaIS0_EE11_M_allocateEy"
 "_ZNSt12_Vector_baseISt6threadSaIS0_EE12_Vector_implC1ERKS1_"
 "_ZNSt12_Vector_baseISt6threadSaIS0_EE12_Vector_implC1Ev"
 "_ZNSt12_Vector_baseISt6threadSaIS0_EE12_Vector_implD1Ev"
 "_ZNSt12_Vector_baseISt6threadSaIS0_EE13_M_deallocateEPS0_y"
 "_ZNSt12_Vector_baseISt6threadSaIS0_EE17_M_create_storageEy"
 "_ZNSt12_Vector_baseISt6threadSaIS0_EE17_Vector_impl_data12_M_copy_dataERKS3_"
 "_ZNSt12_Vector_baseISt6threadSaIS0_EE17_Vector_impl_data12_M_swap_dataERS3_"
 "_ZNSt12_Vector_baseISt6threadSaIS0_EE17_Vector_impl_dataC1Ev"
 "_ZNSt12_Vector_baseISt6threadSaIS0_EE17_Vector_impl_dataC2Ev"
 "_ZNSt12_Vector_baseISt6threadSaIS0_EE19_M_get_Tp_allocatorEv"
 "_ZNSt12_Vector_baseISt6threadSaIS0_EEC2ERKS1_"
 "_ZNSt12_Vector_baseISt6threadSaIS0_EEC2Ev"
 "_ZNSt12_Vector_baseISt6threadSaIS0_EEC2EyRKS1_"
 "_ZNSt12_Vector_baseISt6threadSaIS0_EED2Ev"
 "_ZNSt12_Vector_baseISt6vectorI15IntersectionResSaIS1_EESaIS3_EE11_M_allocateEy"
 "_ZNSt12_Vector_baseISt6vectorI15IntersectionResSaIS1_EESaIS3_EE12_Vector_implC1ERKS4_"
 "_ZNSt12_Vector_baseISt6vectorI15IntersectionResSaIS1_EESaIS3_EE12_Vector_implD1Ev"
 "_ZNSt12_Vector_baseISt6vectorI15IntersectionResSaIS1_EESaIS3_EE13_M_deallocateEPS3_y"
 "_ZNSt12_Vector_baseISt6vectorI15IntersectionResSaIS1_EESaIS3_EE17_M_create_storageEy"
 "_ZNSt12_Vector_baseISt6vectorI15IntersectionResSaIS1_EESaIS3_EE17_Vector_impl_dataC2Ev"
 "_ZNSt12_Vector_baseISt6vectorI15IntersectionResSaIS1_EESaIS3_EE19_M_get_Tp_allocatorEv"
 "_ZNSt12_Vector_baseISt6vectorI15IntersectionResSaIS1_EESaIS3_EEC2EyRKS4_"
 "_ZNSt12_Vector_baseISt6vectorI15IntersectionResSaIS1_EESaIS3_EED2Ev"
 "_ZNSt12_Vector_baseISt6vectorIdSaIdEESaIS2_EE11_M_allocateEy"
 "_ZNSt12_Vector_baseISt6vectorIdSaIdEESaIS2_EE12_Vector_implC1Ev"
 "_ZNSt12_Vector_baseISt6vectorIdSaIdEESaIS2_EE12_Vector_implD1Ev"
 "_ZNSt12_Vector_baseISt6vectorIdSaIdEESaIS2_EE13_M_deallocateEPS2_y"
 "_ZNSt12_Vector_baseISt6vectorIdSaIdEESaIS2_EE17_Vector_impl_dataC2Ev"
 "_ZNSt12_Vector_baseISt6vectorIdSaIdEESaIS2_EE19_M_get_Tp_allocatorEv"
 "_ZNSt12_Vector_baseISt6vectorIdSaIdEESaIS2_EEC2Ev"
 "_ZNSt12_Vector_baseISt6vectorIdSaIdEESaIS2_EED2Ev"
 "_ZNSt12_Vector_baseISt6vectorIySaIyEESaIS2_EE12_Vector_implD1Ev"
 "_ZNSt12_Vector_baseISt6vectorIySaIyEESaIS2_EE13_M_deallocateEPS2_y"
 "_ZNSt12_Vector_baseISt6vectorIySaIyEESaIS2_EE19_M_get_Tp_allocatorEv"
 "_ZNSt12_Vector_baseISt6vectorIySaIyEESaIS2_EED2Ev"
 "_ZNSt12_Vector_baseIySaIyEE11_M_allocateEy"
 "_ZNSt12_Vector_baseIySaIyEE12_Vector_implC1ERKS0_"
 "_ZNSt12_Vector_baseIySaIyEE12_Vector_implC1Ev"
 "_ZNSt12_Vector_baseIySaIyEE12_Vector_implD1Ev"
 "_ZNSt12_Vector_baseIySaIyEE13_M_deallocateEPyy"
 "_ZNSt12_Vector_baseIySaIyEE17_Vector_impl_dataC2Ev"
 "_ZNSt12_Vector_baseIySaIyEE19_M_get_Tp_allocatorEv"
 "_ZNSt12_Vector_baseIySaIyEEC2ERKS0_"
 "_ZNSt12_Vector_baseIySaIyEEC2Ev"
 "_ZNSt12_Vector_baseIySaIyEED2Ev"
 "_ZNSt13__atomic_baseIbEaSEb"
 "_ZNSt13__atomic_baseIbEC1Eb"
 "_ZNSt13__atomic_baseIiEaSEi"
 "_ZNSt13__atomic_baseIiEC2Ei"
 "_ZNSt13__atomic_baseIPN9quickpool5sched10RingBufferIPSt8functionIFvvEEEEEC1ES8_"
 "_ZNSt13__atomic_baseIyEaSEy"
 "_ZNSt13__atomic_baseIyEC2Ey"
 "_ZNSt13__atomic_baseIyEmmEv"
 "_ZNSt13__atomic_baseIyEppEi"
 "_ZNSt13__atomic_baseIyEppEv"
 "_ZNSt13_Rb_tree_nodeISt4pairIKiSt6vectorIdSaIdEEEE9_M_valptrEv"
 "_ZNSt13move_iteratorIP15IntersectionResEC1ES1_"
 "_ZNSt13move_iteratorIP15IntersectionResEppEv"
 "_ZNSt14__shared_countILN9__gnu_cxx12_Lock_policyE2EE7_M_swapERS2_"
 "_ZNSt14__shared_countILN9__gnu_cxx12_Lock_policyE2EEC1ERKS2_"
 "_ZNSt14__shared_countILN9__gnu_cxx12_Lock_policyE2EEC1Ev"
 "_ZNSt14__shared_countILN9__gnu_cxx12_Lock_policyE2EED1Ev"
 "_ZNSt14_Function_baseC2Ev"
 "_ZNSt14_Function_baseD2Ev"
 "_ZNSt14numeric_limitsIiE3minEv"
 "_ZNSt15__exception_ptr13exception_ptr4swapERS0_"
 "_ZNSt15__exception_ptr13exception_ptraSEOS0_"
 "_ZNSt15__exception_ptr13exception_ptraSERKS0_"
 "_ZNSt15__exception_ptr13exception_ptrC1EDn"
 "_ZNSt15__exception_ptr13exception_ptrC1EOS0_"
 "_ZNSt15__exception_ptr13exception_ptrC1ERKS0_"
 "_ZNSt15__exception_ptr13exception_ptrD1Ev"
 "_ZNSt15__new_allocatorI15IntersectionResE10deallocateEPS0_y"
 "_ZNSt15__new_allocatorI15IntersectionResE8allocateEyPKv"
 "_ZNSt15__new_allocatorI15IntersectionResED2Ev"
 "_ZNSt15__new_allocatorIcED2Ev"
 "_ZNSt15__new_allocatorIdE10deallocateEPdy"
 "_ZNSt15__new_allocatorIdE8allocateEyPKv"
 "_ZNSt15__new_allocatorIdED2Ev"
 "_ZNSt15__new_allocatorIN9quickpool5sched9TaskQueueEED2Ev"
 "_ZNSt15__new_allocatorISt10unique_ptrIN9quickpool5sched10RingBufferIPSt8functionIFvvEEEESt14default_deleteIS8_EEE10deallocateEPSB_y"
 "_ZNSt15__new_allocatorISt10unique_ptrIN9quickpool5sched10RingBufferIPSt8functionIFvvEEEESt14default_deleteIS8_EEE8allocateEyPKv"
 "_ZNSt15__new_allocatorISt10unique_ptrIN9quickpool5sched10RingBufferIPSt8functionIFvvEEEESt14default_deleteIS8_EEED2Ev"
 "_ZNSt15__new_allocatorISt13_Rb_tree_nodeISt4pairIKiSt6vectorIdSaIdEEEEE10deallocateEPS7_y"
 "_ZNSt15__new_allocatorISt13_Rb_tree_nodeISt4pairIKiSt6vectorIdSaIdEEEEE8allocateEyPKv"
 "_ZNSt15__new_allocatorISt13_Rb_tree_nodeISt4pairIKiSt6vectorIdSaIdEEEEED2Ev"
 "_ZNSt15__new_allocatorISt4pairIidEE10deallocateEPS1_y"
 "_ZNSt15__new_allocatorISt4pairIidEE8allocateEyPKv"
 "_ZNSt15__new_allocatorISt4pairIidEED2Ev"
 "_ZNSt15__new_allocatorISt6threadE10deallocateEPS0_y"
 "_ZNSt15__new_allocatorISt6threadE8allocateEyPKv"
 "_ZNSt15__new_allocatorISt6threadED2Ev"
 "_ZNSt15__new_allocatorISt6vectorI15IntersectionResSaIS1_EEE10deallocateEPS3_y"
 "_ZNSt15__new_allocatorISt6vectorI15IntersectionResSaIS1_EEE8allocateEyPKv"
 "_ZNSt15__new_allocatorISt6vectorI15IntersectionResSaIS1_EEED2Ev"
 "_ZNSt15__new_allocatorISt6vectorIdSaIdEEE10deallocateEPS2_y"
 "_ZNSt15__new_allocatorISt6vectorIdSaIdEEE8allocateEyPKv"
 "_ZNSt15__new_allocatorISt6vectorIdSaIdEEED2Ev"
 "_ZNSt15__new_allocatorISt6vectorIySaIyEEE10deallocateEPS2_y"
 "_ZNSt15__new_allocatorISt6vectorIySaIyEEED2Ev"
 "_ZNSt15__new_allocatorIyE10deallocateEPyy"
 "_ZNSt15__new_allocatorIyE8allocateEyPKv"
 "_ZNSt15__new_allocatorIyED2Ev"
 "_ZNSt15__uniq_ptr_dataIN9quickpool10ThreadPoolESt14default_deleteIS1_ELb1ELb1EECI1St15__uniq_ptr_implIS1_S3_EEPS1_"
 "_ZNSt15__uniq_ptr_dataIN9quickpool5sched10RingBufferIPSt8functionIFvvEEEESt14default_deleteIS7_ELb1ELb1EEC1EOSA_"
 "_ZNSt15__uniq_ptr_dataIN9quickpool5sched10RingBufferIPSt8functionIFvvEEEESt14default_deleteIS7_ELb1ELb1EECI1St15__uniq_ptr_implIS7_S9_EEPS7_"
 "_ZNSt15__uniq_ptr_dataINSt6thread6_StateESt14default_deleteIS1_ELb1ELb1EECI1St15__uniq_ptr_implIS1_S3_EEPS1_"
 "_ZNSt15__uniq_ptr_dataIPSt8functionIFvvEESt14default_deleteIA_S3_ELb1ELb1EECI1St15__uniq_ptr_implIS3_S6_EEPS3_"
 "_ZNSt15__uniq_ptr_implIN9quickpool10ThreadPoolESt14default_deleteIS1_EE6_M_ptrEv"
 "_ZNSt15__uniq_ptr_implIN9quickpool10ThreadPoolESt14default_deleteIS1_EEC2EPS1_"
 "_ZNSt15__uniq_ptr_implIN9quickpool5sched10RingBufferIPSt8functionIFvvEEEESt14default_deleteIS7_EE10_M_deleterEv"
 "_ZNSt15__uniq_ptr_implIN9quickpool5sched10RingBufferIPSt8functionIFvvEEEESt14default_deleteIS7_EE6_M_ptrEv"
 "_ZNSt15__uniq_ptr_implIN9quickpool5sched10RingBufferIPSt8functionIFvvEEEESt14default_deleteIS7_EEC2EOSA_"
 "_ZNSt15__uniq_ptr_implIN9quickpool5sched10RingBufferIPSt8functionIFvvEEEESt14default_deleteIS7_EEC2EPS7_"
 "_ZNSt15__uniq_ptr_implINSt6thread6_StateESt14default_deleteIS1_EE10_M_deleterEv"
 "_ZNSt15__uniq_ptr_implINSt6thread6_StateESt14default_deleteIS1_EE6_M_ptrEv"
 "_ZNSt15__uniq_ptr_implINSt6thread6_StateESt14default_deleteIS1_EEC2EPS1_"
 "_ZNSt15__uniq_ptr_implIPSt8functionIFvvEESt14default_deleteIA_S3_EE10_M_deleterEv"
 "_ZNSt15__uniq_ptr_implIPSt8functionIFvvEESt14default_deleteIA_S3_EE6_M_ptrEv"
 "_ZNSt15__uniq_ptr_implIPSt8functionIFvvEESt14default_deleteIA_S3_EEC2EPS3_"
 "_ZNSt15_Rb_tree_header8_M_resetEv"
 "_ZNSt15_Rb_tree_headerC2Ev"
 "_ZNSt16_Sp_counted_baseILN9__gnu_cxx12_Lock_policyE2EE10_M_destroyEv"
 "_ZNSt16_Sp_counted_baseILN9__gnu_cxx12_Lock_policyE2EE10_M_releaseEv"
 "_ZNSt16_Sp_counted_baseILN9__gnu_cxx12_Lock_policyE2EE15_M_add_ref_copyEv"
 "_ZNSt16_Sp_counted_baseILN9__gnu_cxx12_Lock_policyE2EE19_M_release_last_useEv"
 "_ZNSt16_Sp_counted_baseILN9__gnu_cxx12_Lock_policyE2EE24_M_release_last_use_coldEv"
 "_ZNSt16_Sp_counted_baseILN9__gnu_cxx12_Lock_policyE2EEC2Ev"
 "_ZNSt16_Sp_counted_baseILN9__gnu_cxx12_Lock_policyE2EED2Ev"
 "_ZNSt16allocator_traitsIN9quickpool3mem7aligned9allocatorINS0_5sched9TaskQueueELy64EEEE10_S_destroyIS6_S5_EEDTcldtfp_7destroyfp0_EERT_PT0_i"
 "_ZNSt16allocator_traitsIN9quickpool3mem7aligned9allocatorINS0_5sched9TaskQueueELy64EEEE10deallocateERS6_PS5_y"
 "_ZNSt16allocator_traitsIN9quickpool3mem7aligned9allocatorINS0_5sched9TaskQueueELy64EEEE11_S_max_sizeIKS6_EEDTcldtfp_8max_sizeEERT_i"
 "_ZNSt16allocator_traitsIN9quickpool3mem7aligned9allocatorINS0_5sched9TaskQueueELy64EEEE7destroyIS5_EEvRS6_PT_"
 "_ZNSt16allocator_traitsIN9quickpool3mem7aligned9allocatorINS0_5sched9TaskQueueELy64EEEE8allocateERS6_y"
 "_ZNSt16allocator_traitsIN9quickpool3mem7aligned9allocatorINS0_5sched9TaskQueueELy64EEEE8max_sizeERKS6_"
 "_ZNSt16allocator_traitsIN9quickpool3mem7aligned9allocatorINS0_5sched9TaskQueueELy64EEEE9constructIS5_JEEENSt9enable_ifIX15__can_constructIS6_T_JDpT0_EEEvE4typeERS6_PSA_DpOSB_"
 "_ZNSt17_Rb_tree_iteratorISt4pairIKiSt6vectorIdSaIdEEEEC1EPSt18_Rb_tree_node_base"
 "_ZNSt17_Rb_tree_iteratorISt4pairIKiSt6vectorIdSaIdEEEEmmEv"
 "_ZNSt17_Rb_tree_iteratorISt4pairIKiSt6vectorIdSaIdEEEEppEv"
 "_ZNSt18condition_variable10wait_untilINSt6chrono3_V212steady_clockENS1_8durationIxSt5ratioILx1ELx1000000000EEEEEESt9cv_statusRSt11unique_lockISt5mutexERKNS1_10time_pointIT_T0_EE"
 "_ZNSt18condition_variable10wait_untilINSt6chrono3_V212steady_clockENS1_8durationIxSt5ratioILx1ELx1000000000EEEEZN9quickpool5sched11TaskManager15wait_for_finishEyEUlvE_EEbRSt11unique_lockISt5mutexERKNS1_10time_pointIT_T0_EET1_"
 "_ZNSt18condition_variable17__wait_until_implINSt6chrono8durationIxSt5ratioILx1ELx1000000000EEEEEESt9cv_statusRSt11unique_lockISt5mutexERKNS1_10time_pointINS1_3_V212system_clockET_EE"
 "_ZNSt18condition_variable4waitIZN9quickpool5sched11TaskManager15wait_for_finishEyEUlvE_EEvRSt11unique_lockISt5mutexET_"
 "_ZNSt18condition_variable4waitIZN9quickpool5sched11TaskManager17rethrow_exceptionEvEUlvE_EEvRSt11unique_lockISt5mutexET_"
 "_ZNSt18condition_variable4waitIZN9quickpool5sched9TaskQueue4waitEvEUlvE_EEvRSt11unique_lockISt5mutexET_"
 "_ZNSt18condition_variable8wait_forIxSt5ratioILx1ELx1000EEZN9quickpool5sched11TaskManager15wait_for_finishEyEUlvE_EEbRSt11unique_lockISt5mutexERKNSt6chrono8durationIT_T0_EET1_"
 "_ZNSt20__copy_move_backwardILb1ELb0ESt26random_access_iterator_tagE13__copy_move_bIP15IntersectionResS4_EET0_T_S6_S5_"
 "_ZNSt20__copy_move_backwardILb1ELb1ESt26random_access_iterator_tagE13__copy_move_bIddEEPT0_PT_S6_S4_"
 "_ZNSt20__copy_move_backwardILb1ELb1ESt26random_access_iterator_tagE13__copy_move_bIyyEEPT0_PT_S6_S4_"
 "_ZNSt20__uninitialized_copyILb0EE13__uninit_copyIN9__gnu_cxx17__normal_iteratorIPK15IntersectionResSt6vectorIS4_SaIS4_EEEEPS4_EET0_T_SD_SC_"
 "_ZNSt20__uninitialized_copyILb0EE13__uninit_copyIN9__gnu_cxx17__normal_iteratorIPKSt6vectorIdSaIdEES4_IS6_SaIS6_EEEEPS6_EET0_T_SE_SD_"
 "_ZNSt20__uninitialized_copyILb0EE13__uninit_copyIPSt6vectorIdSaIdEES5_EET0_T_S7_S6_"
 "_ZNSt20__uninitialized_copyILb0EE13__uninit_copyISt13move_iteratorIP15IntersectionResES4_EET0_T_S7_S6_"
 "_ZNSt20__uninitialized_copyILb1EE13__uninit_copyIN9__gnu_cxx17__normal_iteratorIPKdSt6vectorIdSaIdEEEEPdEET0_T_SC_SB_"
 "_ZNSt20__uninitialized_copyILb1EE13__uninit_copyIN9__gnu_cxx17__normal_iteratorIPKySt6vectorIySaIyEEEEPyEET0_T_SC_SB_"
 "_ZNSt20__uninitialized_copyILb1EE13__uninit_copyIPdS2_EET0_T_S4_S3_"
 "_ZNSt20__uninitialized_copyILb1EE13__uninit_copyIPKdPdEET0_T_S6_S5_"
 "_ZNSt20_Rb_tree_key_compareISt4lessIiEEC2Ev"
 "_ZNSt23_Rb_tree_const_iteratorISt4pairIKiSt6vectorIdSaIdEEEEC1ERKSt17_Rb_tree_iteratorIS5_E"
 "_ZNSt27__uninitialized_default_n_1ILb0EE18__uninit_default_nIPSt6threadyEET_S4_T0_"
 "_ZNSt27__uninitialized_default_n_1ILb0EE18__uninit_default_nIPSt6vectorI15IntersectionResSaIS3_EEyEET_S7_T0_"
 "_ZNSt3mapIiSt6vectorIdSaIdEESt4lessIiESaISt4pairIKiS2_EEE11lower_boundERS6_"
 "_ZNSt3mapIiSt6vectorIdSaIdEESt4lessIiESaISt4pairIKiS2_EEE3endEv"
 "_ZNSt3mapIiSt6vectorIdSaIdEESt4lessIiESaISt4pairIKiS2_EEE5beginEv"
 "_ZNSt3mapIiSt6vectorIdSaIdEESt4lessIiESaISt4pairIKiS2_EEEC1Ev"
 "_ZNSt3mapIiSt6vectorIdSaIdEESt4lessIiESaISt4pairIKiS2_EEED1Ev"
 "_ZNSt3mapIiSt6vectorIdSaIdEESt4lessIiESaISt4pairIKiS2_EEEixERS6_"
 "_ZNSt4pairIidEC1IiRdLb1EEEOT_OT0_"
 "_ZNSt4pairIKiSt6vectorIdSaIdEEEC1IJRS0_EJEEESt21piecewise_construct_tSt5tupleIJDpT_EES8_IJDpT0_EE"
 "_ZNSt4pairIKiSt6vectorIdSaIdEEEC1IJRS0_EJLy0EEJEJEEERSt5tupleIJDpT_EERS7_IJDpT1_EESt12_Index_tupleIJXspT0_EEESG_IJXspT2_EEE"
 "_ZNSt4pairIKiSt6vectorIdSaIdEEED1Ev"
 "_ZNSt4pairIPSt18_Rb_tree_node_baseS1_EC1IRPSt13_Rb_tree_nodeIS_IKiSt6vectorIdSaIdEEEERS1_Lb1EEEOT_OT0_"
 "_ZNSt4pairIPSt18_Rb_tree_node_baseS1_EC1IRS1_S4_Lb1EEEOT_OT0_"
 "_ZNSt4pairIPSt18_Rb_tree_node_baseS1_EC1IS1_S1_Lb1EEERKS1_S5_"
 "_ZNSt5mutex13native_handleEv"
 "_ZNSt5mutex4lockEv"
 "_ZNSt5mutex6unlockEv"
 "_ZNSt5mutexC1Ev"
 "_ZNSt5mutexD1Ev"
 "_ZNSt5tupleIJPN9quickpool10ThreadPoolESt14default_deleteIS1_EEEC1ILb1ELb1EEEv"
 "_ZNSt5tupleIJPN9quickpool5sched10RingBufferIPSt8functionIFvvEEEESt14default_deleteIS7_EEEC1EOSB_"
 "_ZNSt5tupleIJPN9quickpool5sched10RingBufferIPSt8functionIFvvEEEESt14default_deleteIS7_EEEC1ILb1ELb1EEEv"
 "_ZNSt5tupleIJPNSt6thread6_StateESt14default_deleteIS1_EEEC1ILb1ELb1EEEv"
 "_ZNSt5tupleIJPPSt8functionIFvvEESt14default_deleteIA_S3_EEEC1ILb1ELb1EEEv"
 "_ZNSt5tupleIJRKiEEC1EOS2_"
 "_ZNSt5tupleIJRKiEEC1ILb1ELb1EEES1_"
 "_ZNSt5tupleIJZN9quickpool10ThreadPool10add_workerEyEUlvE_EEC1IJS2_ELb1ELb1EEEDpOT_"
 "_ZNSt6atomicIbEaSEb"
 "_ZNSt6atomicIbEC1Eb"
 "_ZNSt6atomicIiEC2Ei"
 "_ZNSt6atomicIN9quickpool4loop5StateEE21compare_exchange_weakERS2_S2_St12memory_order"
 "_ZNSt6atomicIN9quickpool4loop5StateEE21compare_exchange_weakERS2_S2_St12memory_orderS5_"
 "_ZNSt6atomicIN9quickpool4loop5StateEE5storeES2_St12memory_order"
 "_ZNSt6atomicIN9quickpool4loop5StateEEC2ES2_"
 "_ZNSt6atomicIN9quickpool5sched11TaskManager6StatusEE5storeES3_St12memory_order"
 "_ZNSt6atomicIN9quickpool5sched11TaskManager6StatusEEaSES3_"
 "_ZNSt6atomicIN9quickpool5sched11TaskManager6StatusEEC2ES3_"
 "_ZNSt6atomicIPN9quickpool5sched10RingBufferIPSt8functionIFvvEEEEE5storeES8_St12memory_order"
 "_ZNSt6atomicIPN9quickpool5sched10RingBufferIPSt8functionIFvvEEEEEC1ES8_"
 "_ZNSt6atomicIyEC1Ey"
 "_ZNSt6atomicIyEC2Ey"
 "_ZNSt6chrono10time_pointINS_3_V212steady_clockENS_8durationIxSt5ratioILx1ELx1000000000EEEEEC1ERKS6_"
 "_ZNSt6chrono10time_pointINS_3_V212system_clockENS_8durationIxSt5ratioILx1ELx1000000000EEEEEC1ERKS6_"
 "_ZNSt6chrono10time_pointINS_3_V212system_clockENS_8durationIxSt5ratioILx1ELx1EEEEEC1ERKS6_"
 "_ZNSt6chrono13duration_castINS_8durationIfSt5ratioILx1ELx1EEEExS2_ILx1ELx1000000000EEEENSt9enable_ifIXsrNS_13__is_durationIT_EE5valueES8_E4typeERKNS1_IT0_T1_EE"
 "_ZNSt6chrono13duration_castINS_8durationIxSt5ratioILx1ELx1000000000EEEExS2_ILx1ELx1000EEEENSt9enable_ifIXsrNS_13__is_durationIT_EE5valueES8_E4typeERKNS1_IT0_T1_EE"
 "_ZNSt6chrono13duration_castINS_8durationIxSt5ratioILx1ELx1000000000EEEExS2_ILx1ELx1EEEENSt9enable_ifIXsrNS_13__is_durationIT_EE5valueES8_E4typeERKNS1_IT0_T1_EE"
 "_ZNSt6chrono13duration_castINS_8durationIxSt5ratioILx1ELx1000000000EEEExS3_EENSt9enable_ifIXsrNS_13__is_durationIT_EE5valueES7_E4typeERKNS1_IT0_T1_EE"
 "_ZNSt6chrono13duration_castINS_8durationIxSt5ratioILx1ELx1EEEExS2_ILx1ELx1000000000EEEENSt9enable_ifIXsrNS_13__is_durationIT_EE5valueES8_E4typeERKNS1_IT0_T1_EE"
 "_ZNSt6chrono15time_point_castINS_8durationIxSt5ratioILx1ELx1EEEENS_3_V212system_clockENS1_IxS2_ILx1ELx1000000000EEEEEENSt9enable_ifIXsrNS_13__is_durationIT_EE5valueENS_10time_pointIT0_SB_EEE4typeERKNSD_ISE_T1_EE"
 "_ZNSt6chrono20__duration_cast_implINS_8durationIfSt5ratioILx1ELx1EEEES2_ILx1ELx1000000000EEfLb1ELb0EE6__castIxS5_EES4_RKNS1_IT_T0_EE"
 "_ZNSt6chrono20__duration_cast_implINS_8durationIxSt5ratioILx1ELx1000000000EEEES2_ILx1000000000ELx1EExLb0ELb1EE6__castIxS2_ILx1ELx1EEEES4_RKNS1_IT_T0_EE"
 "_ZNSt6chrono20__duration_cast_implINS_8durationIxSt5ratioILx1ELx1000000000EEEES2_ILx1000000ELx1EExLb0ELb1EE6__castIxS2_ILx1ELx1000EEEES4_RKNS1_IT_T0_EE"
 "_ZNSt6chrono20__duration_cast_implINS_8durationIxSt5ratioILx1ELx1EEEES2_ILx1ELx1000000000EExLb1ELb0EE6__castIxS5_EES4_RKNS1_IT_T0_EE"
 "_ZNSt6chrono4ceilINS_8durationIxSt5ratioILx1ELx1000000000EEEExS2_ILx1ELx1000EEEENSt9enable_ifIXsrNS_13__is_durationIT_EE5valueES8_E4typeERKNS1_IT0_T1_EE"
 "_ZNSt6chrono4ceilINS_8durationIxSt5ratioILx1ELx1000000000EEEExS3_EENSt9enable_ifIXsrNS_13__is_durationIT_EE5valueES7_E4typeERKNS1_IT0_T1_EE"
 "_ZNSt6chrono8durationIfSt5ratioILx1ELx1EEEC1IfvEERKT_"
 "_ZNSt6chrono8durationIfSt5ratioILx1ELx1EEEC1IxS1_ILx1ELx1000000000EEvEERKNS0_IT_T0_EE"
 "_ZNSt6chrono8durationIxSt5ratioILx1ELx1000000000EEEC1IivEERKT_"
 "_ZNSt6chrono8durationIxSt5ratioILx1ELx1000000000EEEC1IxS1_ILx1ELx1000EEvEERKNS0_IT_T0_EE"
 "_ZNSt6chrono8durationIxSt5ratioILx1ELx1000000000EEEC1IxS1_ILx1ELx1EEvEERKNS0_IT_T0_EE"
 "_ZNSt6chrono8durationIxSt5ratioILx1ELx1000000000EEEC1IxvEERKT_"
 "_ZNSt6chrono8durationIxSt5ratioILx1ELx1000EEEC1IyvEERKT_"
 "_ZNSt6chrono8durationIxSt5ratioILx1ELx1EEEC1IxvEERKT_"
 "_ZNSt6chronoltINS_3_V212steady_clockENS_8durationIxSt5ratioILx1ELx1000000000EEEES6_EEbRKNS_10time_pointIT_T0_EERKNS7_IS8_T1_EE"
 "_ZNSt6chronoltINS_3_V212system_clockENS_8durationIxSt5ratioILx1ELx1000000000EEEES6_EEbRKNS_10time_pointIT_T0_EERKNS7_IS8_T1_EE"
 "_ZNSt6chronoltIxSt5ratioILx1ELx1000000000EExS1_ILx1ELx1000EEEEbRKNS_8durationIT_T0_EERKNS4_IT1_T2_EE"
 "_ZNSt6chronoltIxSt5ratioILx1ELx1000000000EExS2_EEbRKNS_8durationIT_T0_EERKNS3_IT1_T2_EE"
 "_ZNSt6chronomiINS_3_V212steady_clockENS_8durationIxSt5ratioILx1ELx1000000000EEEES6_EENSt11common_typeIJT0_T1_EE4typeERKNS_10time_pointIT_S8_EERKNSC_ISD_S9_EE"
 "_ZNSt6chronomiINS_3_V212system_clockENS_8durationIxSt5ratioILx1ELx1000000000EEEENS3_IxS4_ILx1ELx1EEEEEENSt11common_typeIJT0_T1_EE4typeERKNS_10time_pointIT_SA_EERKNSE_ISF_SB_EE"
 "_ZNSt6chronomiIxSt5ratioILx1ELx1000000000EExS1_ILx1ELx1EEEENSt11common_typeIJNS_8durationIT_T0_EENS5_IT1_T2_EEEE4typeERKS8_RKSB_"
 "_ZNSt6chronomiIxSt5ratioILx1ELx1000000000EExS2_EENSt11common_typeIJNS_8durationIT_T0_EENS4_IT1_T2_EEEE4typeERKS7_RKSA_"
 "_ZNSt6chronoplINS_3_V212steady_clockENS_8durationIxSt5ratioILx1ELx1000000000EEEExS5_EENS_10time_pointIT_NSt11common_typeIJT0_NS3_IT1_T2_EEEE4typeEEERKNS7_IS8_SA_EERKSD_"
 "_ZNSt6chronoplINS_3_V212system_clockENS_8durationIxSt5ratioILx1ELx1000000000EEEExS5_EENS_10time_pointIT_NSt11common_typeIJT0_NS3_IT1_T2_EEEE4typeEEERKNS7_IS8_SA_EERKSD_"
 "_ZNSt6chronoplIxSt5ratioILx1ELx1000000000EExS2_EENSt11common_typeIJNS_8durationIT_T0_EENS4_IT1_T2_EEEE4typeERKS7_RKSA_"
 "_ZNSt6thread11_State_implINS_8_InvokerISt5tupleIJZN9quickpool10ThreadPool10add_workerEyEUlvE_EEEEE6_M_runEv"
 "_ZNSt6thread11_State_implINS_8_InvokerISt5tupleIJZN9quickpool10ThreadPool10add_workerEyEUlvE_EEEEEC1IJS5_EEEDpOT_"
 "_ZNSt6thread11_State_implINS_8_InvokerISt5tupleIJZN9quickpool10ThreadPool10add_workerEyEUlvE_EEEEED0Ev"
 "_ZNSt6thread11_State_implINS_8_InvokerISt5tupleIJZN9quickpool10ThreadPool10add_workerEyEUlvE_EEEEED1Ev"
 "_ZNSt6thread24_M_thread_deps_never_runEv"
 "_ZNSt6thread2idC1Ev"
 "_ZNSt6thread2idC1Ey"
 "_ZNSt6thread4swapERS_"
 "_ZNSt6thread6_StateC2Ev"
 "_ZNSt6thread8_InvokerISt5tupleIJZN9quickpool10ThreadPool10add_workerEyEUlvE_EEE9_M_invokeIJLy0EEEEvSt12_Index_tupleIJXspT_EEE"
 "_ZNSt6thread8_InvokerISt5tupleIJZN9quickpool10ThreadPool10add_workerEyEUlvE_EEEC1IJS4_EEEDpOT_"
 "_ZNSt6thread8_InvokerISt5tupleIJZN9quickpool10ThreadPool10add_workerEyEUlvE_EEEclEv"
 "_ZNSt6threadaSEOS_"
 "_ZNSt6threadC1Ev"
 "_ZNSt6threadC1IZN9quickpool10ThreadPool10add_workerEyEUlvE_JEvEEOT_DpOT0_"
 "_ZNSt6threadD1Ev"
 "_ZNSt6vectorI15IntersectionResSaIS0_EE11_S_max_sizeERKS1_"
 "_ZNSt6vectorI15IntersectionResSaIS0_EE14_M_move_assignEOS2_St17integral_constantIbLb1EE"
 "_ZNSt6vectorI15IntersectionResSaIS0_EE15_M_range_insertIN9__gnu_cxx17__normal_iteratorIPKS0_S2_EEEEvNS5_IPS0_S2_EET_SB_St20forward_iterator_tag"
 "_ZNSt6vectorI15IntersectionResSaIS0_EE3endEv"
 "_ZNSt6vectorI15IntersectionResSaIS0_EE5beginEv"
 "_ZNSt6vectorI15IntersectionResSaIS0_EE6insertIN9__gnu_cxx17__normal_iteratorIPKS0_S2_EEvEENS5_IPS0_S2_EES8_T_SB_"
 "_ZNSt6vectorI15IntersectionResSaIS0_EEaSEOS2_"
 "_ZNSt6vectorI15IntersectionResSaIS0_EEC1ERKS1_"
 "_ZNSt6vectorI15IntersectionResSaIS0_EEC1Ev"
 "_ZNSt6vectorI15IntersectionResSaIS0_EED1Ev"
 "_ZNSt6vectorIdSaIdEE11_S_max_sizeERKS0_"
 "_ZNSt6vectorIdSaIdEE11_S_relocateEPdS2_S2_RS0_"
 "_ZNSt6vectorIdSaIdEE13_M_insert_auxIdEEvN9__gnu_cxx17__normal_iteratorIPdS1_EEOT_"
 "_ZNSt6vectorIdSaIdEE14_M_insert_rvalEN9__gnu_cxx17__normal_iteratorIPKdS1_EEOd"
 "_ZNSt6vectorIdSaIdEE14_M_move_assignEOS1_St17integral_constantIbLb1EE"
 "_ZNSt6vectorIdSaIdEE15_M_erase_at_endEPd"
 "_ZNSt6vectorIdSaIdEE17_M_realloc_appendIJRKdEEEvDpOT_"
 "_ZNSt6vectorIdSaIdEE17_M_realloc_insertIJdEEEvN9__gnu_cxx17__normal_iteratorIPdS1_EEDpOT_"
 "_ZNSt6vectorIdSaIdEE17_S_check_init_lenEyRKS0_"
 "_ZNSt6vectorIdSaIdEE20_M_allocate_and_copyIN9__gnu_cxx17__normal_iteratorIPKdS1_EEEEPdyT_S9_"
 "_ZNSt6vectorIdSaIdEE21_M_range_initialize_nIPKdEEvT_S5_y"
 "_ZNSt6vectorIdSaIdEE3endEv"
 "_ZNSt6vectorIdSaIdEE5beginEv"
 "_ZNSt6vectorIdSaIdEE5clearEv"
 "_ZNSt6vectorIdSaIdEE6insertEN9__gnu_cxx17__normal_iteratorIPKdS1_EEOd"
 "_ZNSt6vectorIdSaIdEE9push_backERKd"
 "_ZNSt6vectorIdSaIdEEaSEOS1_"
 "_ZNSt6vectorIdSaIdEEaSERKS1_"
 "_ZNSt6vectorIdSaIdEEC1EOS1_"
 "_ZNSt6vectorIdSaIdEEC1ERKS0_"
 "_ZNSt6vectorIdSaIdEEC1ERKS1_"
 "_ZNSt6vectorIdSaIdEEC1ESt16initializer_listIdERKS0_"
 "_ZNSt6vectorIdSaIdEEC1Ev"
 "_ZNSt6vectorIdSaIdEED1Ev"
 "_ZNSt6vectorIdSaIdEEixEy"
 "_ZNSt6vectorIN9quickpool5sched9TaskQueueENS0_3mem7aligned9allocatorIS2_Ly64EEEE11_S_max_sizeERKS6_"
 "_ZNSt6vectorIN9quickpool5sched9TaskQueueENS0_3mem7aligned9allocatorIS2_Ly64EEEE14_M_move_assignEOS7_St17integral_constantIbLb1EE"
 "_ZNSt6vectorIN9quickpool5sched9TaskQueueENS0_3mem7aligned9allocatorIS2_Ly64EEEE17_S_check_init_lenEyRKS6_"
 "_ZNSt6vectorIN9quickpool5sched9TaskQueueENS0_3mem7aligned9allocatorIS2_Ly64EEEE21_M_default_initializeEy"
 "_ZNSt6vectorIN9quickpool5sched9TaskQueueENS0_3mem7aligned9allocatorIS2_Ly64EEEE3endEv"
 "_ZNSt6vectorIN9quickpool5sched9TaskQueueENS0_3mem7aligned9allocatorIS2_Ly64EEEE4swapERS7_"
 "_ZNSt6vectorIN9quickpool5sched9TaskQueueENS0_3mem7aligned9allocatorIS2_Ly64EEEE5beginEv"
 "_ZNSt6vectorIN9quickpool5sched9TaskQueueENS0_3mem7aligned9allocatorIS2_Ly64EEEEaSEOS7_"
 "_ZNSt6vectorIN9quickpool5sched9TaskQueueENS0_3mem7aligned9allocatorIS2_Ly64EEEEC1ERKS6_"
 "_ZNSt6vectorIN9quickpool5sched9TaskQueueENS0_3mem7aligned9allocatorIS2_Ly64EEEEC1EyRKS6_"
 "_ZNSt6vectorIN9quickpool5sched9TaskQueueENS0_3mem7aligned9allocatorIS2_Ly64EEEED1Ev"
 "_ZNSt6vectorIN9quickpool5sched9TaskQueueENS0_3mem7aligned9allocatorIS2_Ly64EEEEixEy"
 "_ZNSt6vectorIS_I15IntersectionResSaIS0_EESaIS2_EE11_S_max_sizeERKS3_"
 "_ZNSt6vectorIS_I15IntersectionResSaIS0_EESaIS2_EE17_S_check_init_lenEyRKS3_"
 "_ZNSt6vectorIS_I15IntersectionResSaIS0_EESaIS2_EE21_M_default_initializeEy"
 "_ZNSt6vectorIS_I15IntersectionResSaIS0_EESaIS2_EE3endEv"
 "_ZNSt6vectorIS_I15IntersectionResSaIS0_EESaIS2_EE5beginEv"
 "_ZNSt6vectorIS_I15IntersectionResSaIS0_EESaIS2_EEC1EyRKS3_"
 "_ZNSt6vectorIS_I15IntersectionResSaIS0_EESaIS2_EED1Ev"
 "_ZNSt6vectorIS_I15IntersectionResSaIS0_EESaIS2_EEixEy"
 "_ZNSt6vectorIS_IdSaIdEESaIS1_EE11_S_max_sizeERKS2_"
 "_ZNSt6vectorIS_IdSaIdEESaIS1_EE11_S_relocateEPS1_S4_S4_RS2_"
 "_ZNSt6vectorIS_IdSaIdEESaIS1_EE12emplace_backIJS1_EEERS1_DpOT_"
 "_ZNSt6vectorIS_IdSaIdEESaIS1_EE15_M_erase_at_endEPS1_"
 "_ZNSt6vectorIS_IdSaIdEESaIS1_EE17_M_realloc_appendIJS1_EEEvDpOT_"
 "_ZNSt6vectorIS_IdSaIdEESaIS1_EE20_M_allocate_and_copyIN9__gnu_cxx17__normal_iteratorIPKS1_S3_EEEEPS1_yT_SB_"
 "_ZNSt6vectorIS_IdSaIdEESaIS1_EE3endEv"
 "_ZNSt6vectorIS_IdSaIdEESaIS1_EE4backEv"
 "_ZNSt6vectorIS_IdSaIdEESaIS1_EE5beginEv"
 "_ZNSt6vectorIS_IdSaIdEESaIS1_EE5clearEv"
 "_ZNSt6vectorIS_IdSaIdEESaIS1_EE9push_backEOS1_"
 "_ZNSt6vectorIS_IdSaIdEESaIS1_EEaSERKS3_"
 "_ZNSt6vectorIS_IdSaIdEESaIS1_EEC1Ev"
 "_ZNSt6vectorIS_IdSaIdEESaIS1_EED1Ev"
 "_ZNSt6vectorIS_IySaIyEESaIS1_EED1Ev"
 "_ZNSt6vectorISt10unique_ptrIN9quickpool5sched10RingBufferIPSt8functionIFvvEEEESt14default_deleteIS8_EESaISB_EE11_S_max_sizeERKSC_"
 "_ZNSt6vectorISt10unique_ptrIN9quickpool5sched10RingBufferIPSt8functionIFvvEEEESt14default_deleteIS8_EESaISB_EE11_S_relocateEPSB_SE_SE_RSC_"
 "_ZNSt6vectorISt10unique_ptrIN9quickpool5sched10RingBufferIPSt8functionIFvvEEEESt14default_deleteIS8_EESaISB_EE12emplace_backIJRPS8_EEERSB_DpOT_"
 "_ZNSt6vectorISt10unique_ptrIN9quickpool5sched10RingBufferIPSt8functionIFvvEEEESt14default_deleteIS8_EESaISB_EE17_M_realloc_appendIJRPS8_EEEvDpOT_"
 "_ZNSt6vectorISt10unique_ptrIN9quickpool5sched10RingBufferIPSt8functionIFvvEEEESt14default_deleteIS8_EESaISB_EE3endEv"
 "_ZNSt6vectorISt10unique_ptrIN9quickpool5sched10RingBufferIPSt8functionIFvvEEEESt14default_deleteIS8_EESaISB_EE4backEv"
 "_ZNSt6vectorISt10unique_ptrIN9quickpool5sched10RingBufferIPSt8functionIFvvEEEESt14default_deleteIS8_EESaISB_EE5beginEv"
 "_ZNSt6vectorISt10unique_ptrIN9quickpool5sched10RingBufferIPSt8functionIFvvEEEESt14default_deleteIS8_EESaISB_EEC1Ev"
 "_ZNSt6vectorISt10unique_ptrIN9quickpool5sched10RingBufferIPSt8functionIFvvEEEESt14default_deleteIS8_EESaISB_EED1Ev"
 "_ZNSt6vectorISt4pairIidESaIS1_EE11_S_max_sizeERKS2_"
 "_ZNSt6vectorISt4pairIidESaIS1_EE11_S_relocateEPS1_S4_S4_RS2_"
 "_ZNSt6vectorISt4pairIidESaIS1_EE12emplace_backIJiRdEEERS1_DpOT_"
 "_ZNSt6vectorISt4pairIidESaIS1_EE17_M_realloc_appendIJiRdEEEvDpOT_"
 "_ZNSt6vectorISt4pairIidESaIS1_EE3endEv"
 "_ZNSt6vectorISt4pairIidESaIS1_EE4backEv"
 "_ZNSt6vectorISt4pairIidESaIS1_EE5beginEv"
 "_ZNSt6vectorISt4pairIidESaIS1_EEC1Ev"
 "_ZNSt6vectorISt4pairIidESaIS1_EED1Ev"
 "_ZNSt6vectorISt6threadSaIS0_EE11_S_max_sizeERKS1_"
 "_ZNSt6vectorISt6threadSaIS0_EE14_M_move_assignEOS2_St17integral_constantIbLb1EE"
 "_ZNSt6vectorISt6threadSaIS0_EE17_S_check_init_lenEyRKS1_"
 "_ZNSt6vectorISt6threadSaIS0_EE21_M_default_initializeEy"
 "_ZNSt6vectorISt6threadSaIS0_EE3endEv"
 "_ZNSt6vectorISt6threadSaIS0_EE5beginEv"
 "_ZNSt6vectorISt6threadSaIS0_EEaSEOS2_"
 "_ZNSt6vectorISt6threadSaIS0_EEC1ERKS1_"
 "_ZNSt6vectorISt6threadSaIS0_EEC1Ev"
 "_ZNSt6vectorISt6threadSaIS0_EEC1EyRKS1_"
 "_ZNSt6vectorISt6threadSaIS0_EED1Ev"
 "_ZNSt6vectorISt6threadSaIS0_EEixEy"
 "_ZNSt6vectorIySaIyEE11_S_max_sizeERKS0_"
 "_ZNSt6vectorIySaIyEE11_S_relocateEPyS2_S2_RS0_"
 "_ZNSt6vectorIySaIyEE12emplace_backIJyEEERyDpOT_"
 "_ZNSt6vectorIySaIyEE15_M_erase_at_endEPy"
 "_ZNSt6vectorIySaIyEE17_M_realloc_appendIJRKyEEEvDpOT_"
 "_ZNSt6vectorIySaIyEE17_M_realloc_appendIJyEEEvDpOT_"
 "_ZNSt6vectorIySaIyEE17_S_check_init_lenEyRKS0_"
 "_ZNSt6vectorIySaIyEE19_M_range_initializeIN9__gnu_cxx17__normal_iteratorIPKyS1_EEEEvT_S8_St20forward_iterator_tag"
 "_ZNSt6vectorIySaIyEE21_M_range_initialize_nIN9__gnu_cxx17__normal_iteratorIPKyS1_EEEEvT_S8_y"
 "_ZNSt6vectorIySaIyEE3endEv"
 "_ZNSt6vectorIySaIyEE4backEv"
 "_ZNSt6vectorIySaIyEE5beginEv"
 "_ZNSt6vectorIySaIyEE5eraseEN9__gnu_cxx17__normal_iteratorIPKyS1_EES6_"
 "_ZNSt6vectorIySaIyEE7reserveEy"
 "_ZNSt6vectorIySaIyEE8_M_eraseEN9__gnu_cxx17__normal_iteratorIPyS1_EES5_"
 "_ZNSt6vectorIySaIyEE9push_backEOy"
 "_ZNSt6vectorIySaIyEE9push_backERKy"
 "_ZNSt6vectorIySaIyEEC1Ev"
 "_ZNSt6vectorIySaIyEEC1IN9__gnu_cxx17__normal_iteratorIPKyS1_EEvEET_S8_RKS0_"
 "_ZNSt6vectorIySaIyEED1Ev"
 "_ZNSt6vectorIySaIyEEixEy"
 "_ZNSt7__cxx1112basic_stringIcSt11char_traitsIcESaIcEE12_Alloc_hiderD1Ev"
 "_ZNSt7__cxx1112basic_stringIcSt11char_traitsIcESaIcEE12_M_constructIPKcEEvT_S8_St20forward_iterator_tag"
 "_ZNSt7__cxx1112basic_stringIcSt11char_traitsIcESaIcEEC1IS3_EEPKcRKS3_"
 "_ZNSt8_Rb_treeIiSt4pairIKiSt6vectorIdSaIdEEESt10_Select1stIS5_ESt4lessIiESaIS5_EE10_Auto_node9_M_insertES0_IPSt18_Rb_tree_node_baseSE_E"
 "_ZNSt8_Rb_treeIiSt4pairIKiSt6vectorIdSaIdEEESt10_Select1stIS5_ESt4lessIiESaIS5_EE10_Auto_nodeC1IJRKSt21piecewise_construct_tSt5tupleIJRS1_EESH_IJEEEEERSB_DpOT_"
 "_ZNSt8_Rb_treeIiSt4pairIKiSt6vectorIdSaIdEEESt10_Select1stIS5_ESt4lessIiESaIS5_EE10_Auto_nodeD1Ev"
 "_ZNSt8_Rb_treeIiSt4pairIKiSt6vectorIdSaIdEEESt10_Select1stIS5_ESt4lessIiESaIS5_EE11_M_get_nodeEv"
 "_ZNSt8_Rb_treeIiSt4pairIKiSt6vectorIdSaIdEEESt10_Select1stIS5_ESt4lessIiESaIS5_EE11_M_leftmostEv"
 "_ZNSt8_Rb_treeIiSt4pairIKiSt6vectorIdSaIdEEESt10_Select1stIS5_ESt4lessIiESaIS5_EE11_M_put_nodeEPSt13_Rb_tree_nodeIS5_E"
 "_ZNSt8_Rb_treeIiSt4pairIKiSt6vectorIdSaIdEEESt10_Select1stIS5_ESt4lessIiESaIS5_EE11lower_boundERS1_"
 "_ZNSt8_Rb_treeIiSt4pairIKiSt6vectorIdSaIdEEESt10_Select1stIS5_ESt4lessIiESaIS5_EE12_M_drop_nodeEPSt13_Rb_tree_nodeIS5_E"
 "_ZNSt8_Rb_treeIiSt4pairIKiSt6vectorIdSaIdEEESt10_Select1stIS5_ESt4lessIiESaIS5_EE12_M_rightmostEv"
 "_ZNSt8_Rb_treeIiSt4pairIKiSt6vectorIdSaIdEEESt10_Select1stIS5_ESt4lessIiESaIS5_EE13_Rb_tree_implIS9_Lb1EEC1Ev"
 "_ZNSt8_Rb_treeIiSt4pairIKiSt6vectorIdSaIdEEESt10_Select1stIS5_ESt4lessIiESaIS5_EE13_Rb_tree_implIS9_Lb1EED1Ev"
 "_ZNSt8_Rb_treeIiSt4pairIKiSt6vectorIdSaIdEEESt10_Select1stIS5_ESt4lessIiESaIS5_EE14_M_create_nodeIJRKSt21piecewise_construct_tSt5tupleIJRS1_EESG_IJEEEEEPSt13_Rb_tree_nodeIS5_EDpOT_"
 "_ZNSt8_Rb_treeIiSt4pairIKiSt6vectorIdSaIdEEESt10_Select1stIS5_ESt4lessIiESaIS5_EE14_M_insert_nodeEPSt18_Rb_tree_node_baseSD_PSt13_Rb_tree_nodeIS5_E"
 "_ZNSt8_Rb_treeIiSt4pairIKiSt6vectorIdSaIdEEESt10_Select1stIS5_ESt4lessIiESaIS5_EE14_M_lower_boundEPSt13_Rb_tree_nodeIS5_EPSt18_Rb_tree_node_baseRS1_"
 "_ZNSt8_Rb_treeIiSt4pairIKiSt6vectorIdSaIdEEESt10_Select1stIS5_ESt4lessIiESaIS5_EE15_M_destroy_nodeEPSt13_Rb_tree_nodeIS5_E"
 "_ZNSt8_Rb_treeIiSt4pairIKiSt6vectorIdSaIdEEESt10_Select1stIS5_ESt4lessIiESaIS5_EE17_M_construct_nodeIJRKSt21piecewise_construct_tSt5tupleIJRS1_EESG_IJEEEEEvPSt13_Rb_tree_nodeIS5_EDpOT_"
 "_ZNSt8_Rb_treeIiSt4pairIKiSt6vectorIdSaIdEEESt10_Select1stIS5_ESt4lessIiESaIS5_EE21_M_get_Node_allocatorEv"
 "_ZNSt8_Rb_treeIiSt4pairIKiSt6vectorIdSaIdEEESt10_Select1stIS5_ESt4lessIiESaIS5_EE22_M_emplace_hint_uniqueIJRKSt21piecewise_construct_tSt5tupleIJRS1_EESG_IJEEEEESt17_Rb_tree_iteratorIS5_ESt23_Rb_tree_const_iteratorIS5_EDpOT_"
 "_ZNSt8_Rb_treeIiSt4pairIKiSt6vectorIdSaIdEEESt10_Select1stIS5_ESt4lessIiESaIS5_EE24_M_get_insert_unique_posERS1_"
 "_ZNSt8_Rb_treeIiSt4pairIKiSt6vectorIdSaIdEEESt10_Select1stIS5_ESt4lessIiESaIS5_EE29_M_get_insert_hint_unique_posESt23_Rb_tree_const_iteratorIS5_ERS1_"
 "_ZNSt8_Rb_treeIiSt4pairIKiSt6vectorIdSaIdEEESt10_Select1stIS5_ESt4lessIiESaIS5_EE3endEv"
 "_ZNSt8_Rb_treeIiSt4pairIKiSt6vectorIdSaIdEEESt10_Select1stIS5_ESt4lessIiESaIS5_EE5beginEv"
 "_ZNSt8_Rb_treeIiSt4pairIKiSt6vectorIdSaIdEEESt10_Select1stIS5_ESt4lessIiESaIS5_EE6_M_endEv"
 "_ZNSt8_Rb_treeIiSt4pairIKiSt6vectorIdSaIdEEESt10_Select1stIS5_ESt4lessIiESaIS5_EE6_S_keyEPKSt13_Rb_tree_nodeIS5_E"
 "_ZNSt8_Rb_treeIiSt4pairIKiSt6vectorIdSaIdEEESt10_Select1stIS5_ESt4lessIiESaIS5_EE6_S_keyEPKSt18_Rb_tree_node_base"
 "_ZNSt8_Rb_treeIiSt4pairIKiSt6vectorIdSaIdEEESt10_Select1stIS5_ESt4lessIiESaIS5_EE7_S_leftEPSt18_Rb_tree_node_base"
 "_ZNSt8_Rb_treeIiSt4pairIKiSt6vectorIdSaIdEEESt10_Select1stIS5_ESt4lessIiESaIS5_EE8_M_beginEv"
 "_ZNSt8_Rb_treeIiSt4pairIKiSt6vectorIdSaIdEEESt10_Select1stIS5_ESt4lessIiESaIS5_EE8_M_eraseEPSt13_Rb_tree_nodeIS5_E"
 "_ZNSt8_Rb_treeIiSt4pairIKiSt6vectorIdSaIdEEESt10_Select1stIS5_ESt4lessIiESaIS5_EE8_S_rightEPSt18_Rb_tree_node_base"
 "_ZNSt8_Rb_treeIiSt4pairIKiSt6vectorIdSaIdEEESt10_Select1stIS5_ESt4lessIiESaIS5_EEC1Ev"
 "_ZNSt8_Rb_treeIiSt4pairIKiSt6vectorIdSaIdEEESt10_Select1stIS5_ESt4lessIiESaIS5_EED1Ev"
 "_ZNSt8functionIFvvEE4swapERS1_"
 "_ZNSt8functionIFvvEEaSEOS1_"
 "_ZNSt8functionIFvvEEC1EOS1_"
 "_ZNSt8functionIFvvEEC1Ev"
 "_ZNSt8functionIFvvEED1Ev"
 "_ZNSt9__condvar10wait_untilERSt5mutexR8timespec"
 "_ZNSt9_Any_data9_M_accessEv"
 "_ZNSt9_Any_data9_M_accessIPKSt9type_infoEERT_v"
 "_ZNSt9bad_allocC1Ev"
 "_ZNSt9exceptionC2Ev"
 "_ZnwyPv"
 "_ZSt10__pop_heapIN9__gnu_cxx17__normal_iteratorIPySt6vectorIySaIyEEEENS0_5__ops15_Iter_less_iterEEvT_S9_S9_RT0_"
 "_ZSt10_ConstructI15IntersectionResJRKS0_EEvPT_DpOT0_"
 "_ZSt10_ConstructI15IntersectionResJS0_EEvPT_DpOT0_"
 "_ZSt10_ConstructISt6threadJEEvPT_DpOT0_"
 "_ZSt10_ConstructISt6vectorI15IntersectionResSaIS1_EEJEEvPT_DpOT0_"
 "_ZSt10_ConstructISt6vectorIdSaIdEEJRKS2_EEvPT_DpOT0_"
 "_ZSt10_ConstructISt6vectorIdSaIdEEJRS2_EEvPT_DpOT0_"
 "_ZSt11__addressofI15IntersectionResEPT_RS1_"
 "_ZSt11__addressofIKN9quickpool4loop5StateEEPT_RS4_"
 "_ZSt11__addressofIKN9quickpool5sched11TaskManager6StatusEEPT_RS5_"
 "_ZSt11__addressofIKSt6vectorIdSaIdEEEPT_RS4_"
 "_ZSt11__addressofIKSt6vectorIS0_IdSaIdEESaIS2_EEEPT_RS6_"
 "_ZSt11__addressofIN9quickpool4loop5StateEEPT_RS3_"
 "_ZSt11__addressofIN9quickpool5sched11TaskManager6StatusEEPT_RS4_"
 "_ZSt11__addressofIN9quickpool5sched9TaskQueueEEPT_RS3_"
 "_ZSt11__addressofISt10unique_ptrIN9quickpool5sched10RingBufferIPSt8functionIFvvEEEESt14default_deleteIS8_EEEPT_RSC_"
 "_ZSt11__addressofISt4pairIidEEPT_RS2_"
 "_ZSt11__addressofISt5mutexEPT_RS1_"
 "_ZSt11__addressofISt6threadEPT_RS1_"
 "_ZSt11__addressofISt6vectorI15IntersectionResSaIS1_EEEPT_RS4_"
 "_ZSt11__addressofISt6vectorIdSaIdEEEPT_RS3_"
 "_ZSt11__addressofISt6vectorIySaIyEEEPT_RS3_"
 "_ZSt11__bit_widthIyEiT_"
 "_ZSt11__make_heapIN9__gnu_cxx17__normal_iteratorIPySt6vectorIySaIyEEEENS0_5__ops15_Iter_less_iterEEvT_S9_RT0_"
 "_ZSt11__push_heapIN9__gnu_cxx17__normal_iteratorIPySt6vectorIySaIyEEEExyNS0_5__ops14_Iter_less_valEEvT_T0_SA_T1_RT2_"
 "_ZSt11__sort_heapIN9__gnu_cxx17__normal_iteratorIPySt6vectorIySaIyEEEENS0_5__ops15_Iter_less_iterEEvT_S9_RT0_"
 "_ZSt11max_elementIN9__gnu_cxx17__normal_iteratorIPySt6vectorIySaIyEEEEET_S7_S7_"
 "_ZSt12__get_helperILy0EPN9quickpool10ThreadPoolEJSt14default_deleteIS1_EEERKT0_RKSt11_Tuple_implIXT_EJS5_DpT1_EE"
 "_ZSt12__get_helperILy0EPN9quickpool10ThreadPoolEJSt14default_deleteIS1_EEERT0_RSt11_Tuple_implIXT_EJS5_DpT1_EE"
 "_ZSt12__get_helperILy0EPN9quickpool5sched10RingBufferIPSt8functionIFvvEEEEJSt14default_deleteIS7_EEERT0_RSt11_Tuple_implIXT_EJSB_DpT1_EE"
 "_ZSt12__get_helperILy0EPNSt6thread6_StateEJSt14default_deleteIS1_EEERT0_RSt11_Tuple_implIXT_EJS5_DpT1_EE"
 "_ZSt12__get_helperILy0EPPSt8functionIFvvEEJSt14default_deleteIA_S3_EEERKT0_RKSt11_Tuple_implIXT_EJS8_DpT1_EE"
 "_ZSt12__get_helperILy0EPPSt8functionIFvvEEJSt14default_deleteIA_S3_EEERT0_RSt11_Tuple_implIXT_EJS8_DpT1_EE"
 "_ZSt12__get_helperILy0ERKiJEERT0_RSt11_Tuple_implIXT_EJS2_DpT1_EE"
 "_ZSt12__get_helperILy0EZN9quickpool10ThreadPool10add_workerEyEUlvE_JEERT0_RSt11_Tuple_implIXT_EJS3_DpT1_EE"
 "_ZSt12__get_helperILy1ESt14default_deleteIA_PSt8functionIFvvEEEJEERT0_RSt11_Tuple_implIXT_EJS7_DpT1_EE"
 "_ZSt12__get_helperILy1ESt14default_deleteIN9quickpool5sched10RingBufferIPSt8functionIFvvEEEEEJEERT0_RSt11_Tuple_implIXT_EJSA_DpT1_EE"
 "_ZSt12__get_helperILy1ESt14default_deleteINSt6thread6_StateEEJEERT0_RSt11_Tuple_implIXT_EJS4_DpT1_EE"
 "_ZSt12__miter_baseIN9__gnu_cxx17__normal_iteratorIPK15IntersectionResSt6vectorIS2_SaIS2_EEEEET_S9_"
 "_ZSt12__miter_baseIN9__gnu_cxx17__normal_iteratorIPKdSt6vectorIdSaIdEEEEET_S8_"
 "_ZSt12__miter_baseIN9__gnu_cxx17__normal_iteratorIPKSt6vectorIdSaIdEES2_IS4_SaIS4_EEEEET_SA_"
 "_ZSt12__miter_baseIN9__gnu_cxx17__normal_iteratorIPKySt6vectorIySaIyEEEEET_S8_"
 "_ZSt12__miter_baseIN9__gnu_cxx17__normal_iteratorIPySt6vectorIySaIyEEEEET_S7_"
 "_ZSt12__miter_baseIP15IntersectionResET_S2_"
 "_ZSt12__miter_baseIPdET_S1_"
 "_ZSt12__miter_baseIPKdET_S2_"
 "_ZSt12__miter_baseIPSt6vectorIdSaIdEEET_S4_"
 "_ZSt12__niter_baseIP15IntersectionResET_S2_"
 "_ZSt12__niter_baseIP15IntersectionResSt6vectorIS0_SaIS0_EEET_N9__gnu_cxx17__normal_iteratorIS5_T0_EE"
 "_ZSt12__niter_baseIPdET_S1_"
 "_ZSt12__niter_baseIPdSt6vectorIdSaIdEEET_N9__gnu_cxx17__normal_iteratorIS4_T0_EE"
 "_ZSt12__niter_baseIPK15IntersectionResSt6vectorIS0_SaIS0_EEET_N9__gnu_cxx17__normal_iteratorIS6_T0_EE"
 "_ZSt12__niter_baseIPKdET_S2_"
 "_ZSt12__niter_baseIPKdSt6vectorIdSaIdEEET_N9__gnu_cxx17__normal_iteratorIS5_T0_EE"
 "_ZSt12__niter_baseIPKSt6vectorIdSaIdEES0_IS2_SaIS2_EEET_N9__gnu_cxx17__normal_iteratorIS7_T0_EE"
 "_ZSt12__niter_baseIPKySt6vectorIySaIyEEET_N9__gnu_cxx17__normal_iteratorIS5_T0_EE"
 "_ZSt12__niter_baseIPSt10unique_ptrIN9quickpool5sched10RingBufferIPSt8functionIFvvEEEESt14default_deleteIS8_EEET_SD_"
 "_ZSt12__niter_baseIPSt4pairIidEET_S3_"
 "_ZSt12__niter_baseIPSt6vectorIdSaIdEEET_S4_"
 "_ZSt12__niter_baseIPSt6vectorIdSaIdEES0_IS2_SaIS2_EEET_N9__gnu_cxx17__normal_iteratorIS6_T0_EE"
 "_ZSt12__niter_baseIPyET_S1_"
 "_ZSt12__niter_baseIPySt6vectorIySaIyEEET_N9__gnu_cxx17__normal_iteratorIS4_T0_EE"
 "_ZSt12__niter_wrapIN9__gnu_cxx17__normal_iteratorIP15IntersectionResSt6vectorIS2_SaIS2_EEEES3_ET_S8_T0_"
 "_ZSt12__niter_wrapIN9__gnu_cxx17__normal_iteratorIPdSt6vectorIdSaIdEEEES2_ET_S7_T0_"
 "_ZSt12__niter_wrapIN9__gnu_cxx17__normal_iteratorIPSt6vectorIdSaIdEES2_IS4_SaIS4_EEEES5_ET_S9_T0_"
 "_ZSt12__niter_wrapIN9__gnu_cxx17__normal_iteratorIPySt6vectorIySaIyEEEES2_ET_S7_T0_"
 "_ZSt12__niter_wrapIP15IntersectionResET_RKS2_S2_"
 "_ZSt12__niter_wrapIPdET_RKS1_S1_"
 "_ZSt12__niter_wrapIPSt6vectorIdSaIdEEET_RKS4_S4_"
 "_ZSt12__niter_wrapIPyET_RKS1_S1_"
 "_ZSt12__relocate_aIPdS0_SaIdEET0_T_S3_S2_RT1_"
 "_ZSt12__relocate_aIPSt10unique_ptrIN9quickpool5sched10RingBufferIPSt8functionIFvvEEEESt14default_deleteIS8_EESC_SaISB_EET0_T_SF_SE_RT1_"
 "_ZSt12__relocate_aIPSt4pairIidES2_SaIS1_EET0_T_S5_S4_RT1_"
 "_ZSt12__relocate_aIPSt6vectorIdSaIdEES3_SaIS2_EET0_T_S6_S5_RT1_"
 "_ZSt12__relocate_aIPyS0_SaIyEET0_T_S3_S2_RT1_"
 "_ZSt12__to_addressIdEPT_S1_"
 "_ZSt12__to_addressISt10unique_ptrIN9quickpool5sched10RingBufferIPSt8functionIFvvEEEESt14default_deleteIS8_EEEPT_SD_"
 "_ZSt12__to_addressISt4pairIidEEPT_S3_"
 "_ZSt12__to_addressISt6vectorIdSaIdEEEPT_S4_"
 "_ZSt12__to_addressIyEPT_S1_"
 "_ZSt13__adjust_heapIN9__gnu_cxx17__normal_iteratorIPySt6vectorIySaIyEEEExyNS0_5__ops15_Iter_less_iterEEvT_T0_SA_T1_T2_"
 "_ZSt13__copy_move_aILb0EN9__gnu_cxx17__normal_iteratorIPK15IntersectionResSt6vectorIS2_SaIS2_EEEENS1_IPS2_S7_EEET1_T0_SC_SB_"
 "_ZSt13__copy_move_aILb0EN9__gnu_cxx17__normal_iteratorIPKdSt6vectorIdSaIdEEEENS1_IPdS6_EEET1_T0_SB_SA_"
 "_ZSt13__copy_move_aILb0EN9__gnu_cxx17__normal_iteratorIPKdSt6vectorIdSaIdEEEEPdET1_T0_SA_S9_"
 "_ZSt13__copy_move_aILb0EN9__gnu_cxx17__normal_iteratorIPKSt6vectorIdSaIdEES2_IS4_SaIS4_EEEENS1_IPS4_S8_EEET1_T0_SD_SC_"
 "_ZSt13__copy_move_aILb0EN9__gnu_cxx17__normal_iteratorIPKySt6vectorIySaIyEEEEPyET1_T0_SA_S9_"
 "_ZSt13__copy_move_aILb0EPdS0_ET1_T0_S2_S1_"
 "_ZSt13__copy_move_aILb0EPKdPdET1_T0_S4_S3_"
 "_ZSt13__copy_move_aILb0EPSt6vectorIdSaIdEES3_ET1_T0_S5_S4_"
 "_ZSt13__copy_move_aILb1EN9__gnu_cxx17__normal_iteratorIPySt6vectorIySaIyEEEES6_ET1_T0_S8_S7_"
 "_ZSt13__countl_zeroIyEiT_"
 "_ZSt13__heap_selectIN9__gnu_cxx17__normal_iteratorIPySt6vectorIySaIyEEEENS0_5__ops15_Iter_less_iterEEvT_S9_S9_T0_"
 "_ZSt13__invoke_implIvZN9quickpool10ThreadPool10add_workerEyEUlvE_JEET_St14__invoke_otherOT0_DpOT1_"
 "_ZSt13__max_elementIN9__gnu_cxx17__normal_iteratorIPySt6vectorIySaIyEEEENS0_5__ops15_Iter_less_iterEET_S9_S9_T0_"
 "_ZSt13move_backwardIN9__gnu_cxx17__normal_iteratorIPySt6vectorIySaIyEEEES6_ET0_T_S8_S7_"
 "_ZSt13move_backwardIP15IntersectionResS1_ET0_T_S3_S2_"
 "_ZSt13move_backwardIPdS0_ET0_T_S2_S1_"
 "_ZSt14__copy_move_a1ILb0EPdS0_ET1_T0_S2_S1_"
 "_ZSt14__copy_move_a1ILb0EPK15IntersectionResPS0_ET1_T0_S5_S4_"
 "_ZSt14__copy_move_a1ILb0EPKdPdET1_T0_S4_S3_"
 "_ZSt14__copy_move_a1ILb0EPKSt6vectorIdSaIdEEPS2_ET1_T0_S7_S6_"
 "_ZSt14__copy_move_a1ILb0EPKyPyET1_T0_S4_S3_"
 "_ZSt14__copy_move_a1ILb0EPSt6vectorIdSaIdEES3_ET1_T0_S5_S4_"
 "_ZSt14__copy_move_a1ILb1EPyS0_ET1_T0_S2_S1_"
 "_ZSt14__copy_move_a2ILb0EPdS0_ET1_T0_S2_S1_"
 "_ZSt14__copy_move_a2ILb0EPK15IntersectionResPS0_ET1_T0_S5_S4_"
 "_ZSt14__copy_move_a2ILb0EPKdPdET1_T0_S4_S3_"
 "_ZSt14__copy_move_a2ILb0EPKSt6vectorIdSaIdEEPS2_ET1_T0_S7_S6_"
 "_ZSt14__copy_move_a2ILb0EPKyPyET1_T0_S4_S3_"
 "_ZSt14__copy_move_a2ILb0EPSt6vectorIdSaIdEES3_ET1_T0_S5_S4_"
 "_ZSt14__copy_move_a2ILb1EPyS0_ET1_T0_S2_S1_"
 "_ZSt14__partial_sortIN9__gnu_cxx17__normal_iteratorIPySt6vectorIySaIyEEEENS0_5__ops15_Iter_less_iterEEvT_S9_S9_T0_"
 "_ZSt14__relocate_a_1IddENSt9enable_ifIXsrSt24__is_bitwise_relocatableIT_vE5valueEPS2_E4typeES4_S4_S4_RSaIT0_E"
 "_ZSt14__relocate_a_1IPSt10unique_ptrIN9quickpool5sched10RingBufferIPSt8functionIFvvEEEESt14default_deleteIS8_EESC_SaISB_EET0_T_SF_SE_RT1_"
 "_ZSt14__relocate_a_1IPSt4pairIidES2_SaIS1_EET0_T_S5_S4_RT1_"
 "_ZSt14__relocate_a_1IPSt6vectorIdSaIdEES3_SaIS2_EET0_T_S6_S5_RT1_"
 "_ZSt14__relocate_a_1IyyENSt9enable_ifIXsrSt24__is_bitwise_relocatableIT_vE5valueEPS2_E4typeES4_S4_S4_RSaIT0_E"
 "_ZSt15__adjacent_findIN9__gnu_cxx17__normal_iteratorIPySt6vectorIySaIyEEEENS0_5__ops19_Iter_equal_to_iterEET_S9_S9_T0_"
 "_ZSt16__do_uninit_copyIN9__gnu_cxx17__normal_iteratorIPK15IntersectionResSt6vectorIS2_SaIS2_EEEEPS2_ET0_T_SB_SA_"
 "_ZSt16__do_uninit_copyIN9__gnu_cxx17__normal_iteratorIPKSt6vectorIdSaIdEES2_IS4_SaIS4_EEEEPS4_ET0_T_SC_SB_"
 "_ZSt16__do_uninit_copyIPSt6vectorIdSaIdEES3_ET0_T_S5_S4_"
 "_ZSt16__do_uninit_copyISt13move_iteratorIP15IntersectionResES2_ET0_T_S5_S4_"
 "_ZSt16__insertion_sortIN9__gnu_cxx17__normal_iteratorIPySt6vectorIySaIyEEEENS0_5__ops15_Iter_less_iterEEvT_S9_T0_"
 "_ZSt16__introsort_loopIN9__gnu_cxx17__normal_iteratorIPySt6vectorIySaIyEEEExNS0_5__ops15_Iter_less_iterEEvT_S9_T0_T1_"
 "_ZSt16forward_as_tupleIJEESt5tupleIJDpOT_EES3_"
 "_ZSt18make_move_iteratorIP15IntersectionResESt13move_iteratorIT_ES3_"
 "_ZSt18uninitialized_copyIN9__gnu_cxx17__normal_iteratorIPK15IntersectionResSt6vectorIS2_SaIS2_EEEEPS2_ET0_T_SB_SA_"
 "_ZSt18uninitialized_copyIN9__gnu_cxx17__normal_iteratorIPKdSt6vectorIdSaIdEEEEPdET0_T_SA_S9_"
 "_ZSt18uninitialized_copyIN9__gnu_cxx17__normal_iteratorIPKSt6vectorIdSaIdEES2_IS4_SaIS4_EEEEPS4_ET0_T_SC_SB_"
 "_ZSt18uninitialized_copyIN9__gnu_cxx17__normal_iteratorIPKySt6vectorIySaIyEEEEPyET0_T_SA_S9_"
 "_ZSt18uninitialized_copyIPdS0_ET0_T_S2_S1_"
 "_ZSt18uninitialized_copyIPKdPdET0_T_S4_S3_"
 "_ZSt18uninitialized_copyIPSt6vectorIdSaIdEES3_ET0_T_S5_S4_"
 "_ZSt18uninitialized_copyISt13move_iteratorIP15IntersectionResES2_ET0_T_S5_S4_"
 "_ZSt19__relocate_object_aISt10unique_ptrIN9quickpool5sched10RingBufferIPSt8functionIFvvEEEESt14default_deleteIS8_EESB_SaISB_EEvPT_PT0_RT1_"
 "_ZSt19__relocate_object_aISt4pairIidES1_SaIS1_EEvPT_PT0_RT1_"
 "_ZSt19__relocate_object_aISt6vectorIdSaIdEES2_SaIS2_EEvPT_PT0_RT1_"
 "_ZSt19piecewise_construct"
 "_ZSt21__unguarded_partitionIN9__gnu_cxx17__normal_iteratorIPySt6vectorIySaIyEEEENS0_5__ops15_Iter_less_iterEET_S9_S9_S9_T0_"
 "_ZSt22__copy_move_backward_aILb1EN9__gnu_cxx17__normal_iteratorIPySt6vectorIySaIyEEEES6_ET1_T0_S8_S7_"
 "_ZSt22__copy_move_backward_aILb1EP15IntersectionResS1_ET1_T0_S3_S2_"
 "_ZSt22__copy_move_backward_aILb1EPdS0_ET1_T0_S2_S1_"
 "_ZSt22__final_insertion_sortIN9__gnu_cxx17__normal_iteratorIPySt6vectorIySaIyEEEENS0_5__ops15_Iter_less_iterEEvT_S9_T0_"
 "_ZSt22__move_median_to_firstIN9__gnu_cxx17__normal_iteratorIPySt6vectorIySaIyEEEENS0_5__ops15_Iter_less_iterEEvT_S9_S9_S9_T0_"
 "_ZSt22__uninitialized_copy_aIN9__gnu_cxx17__normal_iteratorIPK15IntersectionResSt6vectorIS2_SaIS2_EEEEPS2_S2_ET0_T_SB_SA_RSaIT1_E"
 "_ZSt22__uninitialized_copy_aIN9__gnu_cxx17__normal_iteratorIPKdSt6vectorIdSaIdEEEEPddET0_T_SA_S9_RSaIT1_E"
 "_ZSt22__uninitialized_copy_aIN9__gnu_cxx17__normal_iteratorIPKSt6vectorIdSaIdEES2_IS4_SaIS4_EEEEPS4_S4_ET0_T_SC_SB_RSaIT1_E"
 "_ZSt22__uninitialized_copy_aIN9__gnu_cxx17__normal_iteratorIPKySt6vectorIySaIyEEEEPyyET0_T_SA_S9_RSaIT1_E"
 "_ZSt22__uninitialized_copy_aIPdS0_dET0_T_S2_S1_RSaIT1_E"
 "_ZSt22__uninitialized_copy_aIPKdPddET0_T_S4_S3_RSaIT1_E"
 "_ZSt22__uninitialized_copy_aIPSt6vectorIdSaIdEES3_S2_ET0_T_S5_S4_RSaIT1_E"
 "_ZSt22__uninitialized_copy_aISt13move_iteratorIP15IntersectionResES2_S1_ET0_T_S5_S4_RSaIT1_E"
 "_ZSt22__uninitialized_move_aIP15IntersectionResS1_SaIS0_EET0_T_S4_S3_RT1_"
 "_ZSt23__cmpexch_failure_orderSt12memory_order"
 "_ZSt23__copy_move_backward_a1ILb1EP15IntersectionResS1_ET1_T0_S3_S2_"
 "_ZSt23__copy_move_backward_a1ILb1EPdS0_ET1_T0_S2_S1_"
 "_ZSt23__copy_move_backward_a1ILb1EPyS0_ET1_T0_S2_S1_"
 "_ZSt23__copy_move_backward_a2ILb1EP15IntersectionResS1_ET1_T0_S3_S2_"
 "_ZSt23__copy_move_backward_a2ILb1EPdS0_ET1_T0_S2_S1_"
 "_ZSt23__copy_move_backward_a2ILb1EPyS0_ET1_T0_S2_S1_"
 "_ZSt24__cmpexch_failure_order2St12memory_order"
 "_ZSt25__unguarded_linear_insertIN9__gnu_cxx17__normal_iteratorIPySt6vectorIySaIyEEEENS0_5__ops14_Val_less_iterEEvT_T0_"
 "_ZSt25__uninitialized_default_nIPSt6threadyET_S2_T0_"
 "_ZSt25__uninitialized_default_nIPSt6vectorI15IntersectionResSaIS1_EEyET_S5_T0_"
 "_ZSt26__unguarded_insertion_sortIN9__gnu_cxx17__normal_iteratorIPySt6vectorIySaIyEEEENS0_5__ops15_Iter_less_iterEEvT_S9_T0_"
 "_ZSt27__unguarded_partition_pivotIN9__gnu_cxx17__normal_iteratorIPySt6vectorIySaIyEEEENS0_5__ops15_Iter_less_iterEET_S9_S9_T0_"
 "_ZSt27__uninitialized_default_n_aIPN9quickpool5sched9TaskQueueEyNS0_3mem7aligned9allocatorIS2_Ly64EEEET_S8_T0_RT1_"
 "_ZSt27__uninitialized_default_n_aIPSt6threadyS0_ET_S2_T0_RSaIT1_E"
 "_ZSt27__uninitialized_default_n_aIPSt6vectorI15IntersectionResSaIS1_EEyS3_ET_S5_T0_RSaIT1_E"
 "_ZSt32__is_valid_cmpexch_failure_orderSt12memory_order"
 "_ZSt32__make_move_if_noexcept_iteratorI15IntersectionResSt13move_iteratorIPS0_EET0_PT_"
 "_ZSt34__uninitialized_move_if_noexcept_aIP15IntersectionResS1_SaIS0_EET0_T_S4_S3_RT1_"
 "_ZSt3getILy0EJPN9quickpool10ThreadPoolESt14default_deleteIS1_EEERKNSt13tuple_elementIXT_ESt5tupleIJDpT0_EEE4typeERKS9_"
 "_ZSt3getILy0EJPN9quickpool10ThreadPoolESt14default_deleteIS1_EEERNSt13tuple_elementIXT_ESt5tupleIJDpT0_EEE4typeERS9_"
 "_ZSt3getILy0EJPN9quickpool5sched10RingBufferIPSt8functionIFvvEEEESt14default_deleteIS7_EEERNSt13tuple_elementIXT_ESt5tupleIJDpT0_EEE4typeERSF_"
 "_ZSt3getILy0EJPNSt6thread6_StateESt14default_deleteIS1_EEERNSt13tuple_elementIXT_ESt5tupleIJDpT0_EEE4typeERS9_"
 "_ZSt3getILy0EJPPSt8functionIFvvEESt14default_deleteIA_S3_EEERKNSt13tuple_elementIXT_ESt5tupleIJDpT0_EEE4typeERKSC_"
 "_ZSt3getILy0EJPPSt8functionIFvvEESt14default_deleteIA_S3_EEERNSt13tuple_elementIXT_ESt5tupleIJDpT0_EEE4typeERSC_"
 "_ZSt3getILy0EJRKiEERNSt13tuple_elementIXT_ESt5tupleIJDpT0_EEE4typeERS6_"
 "_ZSt3getILy0EJZN9quickpool10ThreadPool10add_workerEyEUlvE_EEONSt13tuple_elementIXT_ESt5tupleIJDpT0_EEE4typeEOS7_"
 "_ZSt3getILy1EJPN9quickpool5sched10RingBufferIPSt8functionIFvvEEEESt14default_deleteIS7_EEERNSt13tuple_elementIXT_ESt5tupleIJDpT0_EEE4typeERSF_"
 "_ZSt3getILy1EJPNSt6thread6_StateESt14default_deleteIS1_EEERNSt13tuple_elementIXT_ESt5tupleIJDpT0_EEE4typeERS9_"
 "_ZSt3getILy1EJPPSt8functionIFvvEESt14default_deleteIA_S3_EEERNSt13tuple_elementIXT_ESt5tupleIJDpT0_EEE4typeERSC_"
 "_ZSt3maxIiERKT_S2_S2_"
 "_ZSt3maxIyERKT_S2_S2_"
 "_ZSt3minIyERKT_S2_S2_"
 "_ZSt4__lgIxET_S0_"
 "_ZSt4copyIN9__gnu_cxx17__normal_iteratorIPK15IntersectionResSt6vectorIS2_SaIS2_EEEENS1_IPS2_S7_EEET0_T_SC_SB_"
 "_ZSt4copyIN9__gnu_cxx17__normal_iteratorIPKdSt6vectorIdSaIdEEEENS1_IPdS6_EEET0_T_SB_SA_"
 "_ZSt4copyIN9__gnu_cxx17__normal_iteratorIPKdSt6vectorIdSaIdEEEEPdET0_T_SA_S9_"
 "_ZSt4copyIN9__gnu_cxx17__normal_iteratorIPKSt6vectorIdSaIdEES2_IS4_SaIS4_EEEENS1_IPS4_S8_EEET0_T_SD_SC_"
 "_ZSt4copyIN9__gnu_cxx17__normal_iteratorIPKySt6vectorIySaIyEEEEPyET0_T_SA_S9_"
 "_ZSt4copyIPdS0_ET0_T_S2_S1_"
 "_ZSt4copyIPKdPdET0_T_S4_S3_"
 "_ZSt4copyIPSt6vectorIdSaIdEES3_ET0_T_S5_S4_"
 "_ZSt4moveIN9__gnu_cxx17__normal_iteratorIPySt6vectorIySaIyEEEES6_ET0_T_S8_S7_"
 "_ZSt4moveIPN9quickpool5sched10RingBufferIPSt8functionIFvvEEEEEONSt16remove_referenceIT_E4typeEOSA_"
 "_ZSt4moveIR15IntersectionResEONSt16remove_referenceIT_E4typeEOS3_"
 "_ZSt4moveIRdEONSt16remove_referenceIT_E4typeEOS2_"
 "_ZSt4moveIRN9__gnu_cxx17__normal_iteratorIPKySt6vectorIySaIyEEEEEONSt16remove_referenceIT_E4typeEOSA_"
 "_ZSt4moveIRN9__gnu_cxx5__ops15_Iter_less_iterEEONSt16remove_referenceIT_E4typeEOS5_"
 "_ZSt4moveIRN9quickpool3mem7aligned9allocatorINS0_5sched9TaskQueueELy64EEEEONSt16remove_referenceIT_E4typeEOS9_"
 "_ZSt4moveIRNSt12_Vector_baseIdSaIdEE12_Vector_implEEONSt16remove_referenceIT_E4typeEOS6_"
 "_ZSt4moveIRNSt6thread2idEEONSt16remove_referenceIT_E4typeEOS4_"
 "_ZSt4moveIRP15IntersectionResEONSt16remove_referenceIT_E4typeEOS4_"
 "_ZSt4moveIRPFbRSt9_Any_dataRKS0_St18_Manager_operationEEONSt16remove_referenceIT_E4typeEOS9_"
 "_ZSt4moveIRPFvRKSt9_Any_dataEEONSt16remove_referenceIT_E4typeEOS7_"
 "_ZSt4moveIRPKdEONSt16remove_referenceIT_E4typeEOS4_"
 "_ZSt4moveIRPN9quickpool5sched10RingBufferIPSt8functionIFvvEEEEEONSt16remove_referenceIT_E4typeEOSB_"
 "_ZSt4moveIRPNSt6thread6_StateEEONSt16remove_referenceIT_E4typeEOS5_"
 "_ZSt4moveIRSaI15IntersectionResEEONSt16remove_referenceIT_E4typeEOS4_"
 "_ZSt4moveIRSaIdEEONSt16remove_referenceIT_E4typeEOS3_"
 "_ZSt4moveIRSaISt6threadEEONSt16remove_referenceIT_E4typeEOS4_"
 "_ZSt4moveIRSt10unique_ptrIN9quickpool5sched10RingBufferIPSt8functionIFvvEEEESt14default_deleteIS8_EEEONSt16remove_referenceIT_E4typeEOSE_"
 "_ZSt4moveIRSt4pairIidEEONSt16remove_referenceIT_E4typeEOS4_"
 "_ZSt4moveIRSt5tupleIJPN9quickpool5sched10RingBufferIPSt8functionIFvvEEEESt14default_deleteIS8_EEEEONSt16remove_referenceIT_E4typeEOSF_"
 "_ZSt4moveIRSt5tupleIJZN9quickpool10ThreadPool10add_workerEyEUlvE_EEEONSt16remove_referenceIT_E4typeEOS7_"
 "_ZSt4moveIRSt6vectorI15IntersectionResSaIS1_EEEONSt16remove_referenceIT_E4typeEOS6_"
 "_ZSt4moveIRSt6vectorIdSaIdEEEONSt16remove_referenceIT_E4typeEOS5_"
 "_ZSt4moveIRSt6vectorIN9quickpool5sched9TaskQueueENS1_3mem7aligned9allocatorIS3_Ly64EEEEEONSt16remove_referenceIT_E4typeEOSB_"
 "_ZSt4moveIRSt6vectorISt6threadSaIS1_EEEONSt16remove_referenceIT_E4typeEOS6_"
 "_ZSt4moveIRSt8functionIFvvEEEONSt16remove_referenceIT_E4typeEOS5_"
 "_ZSt4moveIRSt9_Any_dataEONSt16remove_referenceIT_E4typeEOS3_"
 "_ZSt4moveIRyEONSt16remove_referenceIT_E4typeEOS2_"
 "_ZSt4moveIRZN9quickpool5sched11TaskManager15wait_for_finishEyEUlvE_EONSt16remove_referenceIT_E4typeEOS6_"
 "_ZSt4sortIN9__gnu_cxx17__normal_iteratorIPySt6vectorIySaIyEEEEEvT_S7_"
 "_ZSt4swapIN9quickpool5sched9TaskQueueENS0_3mem7aligned9allocatorIS2_Ly64EEEEvRSt6vectorIT_T0_ESB_"
 "_ZSt4swapINSt6thread2idEENSt9enable_ifIXsrSt6__and_IJSt6__not_ISt15__is_tuple_likeIT_EESt21is_move_constructibleIS6_ESt18is_move_assignableIS6_EEE5valueEvE4typeERS6_SG_"
 "_ZSt4swapIPFbRSt9_Any_dataRKS0_St18_Manager_operationEENSt9enable_ifIXsrSt6__and_IJSt6__not_ISt15__is_tuple_likeIT_EESt21is_move_constructibleISB_ESt18is_move_assignableISB_EEE5valueEvE4typeERSB_SL_"
 "_ZSt4swapIPFvRKSt9_Any_dataEENSt9enable_ifIXsrSt6__and_IJSt6__not_ISt15__is_tuple_likeIT_EESt21is_move_constructibleIS9_ESt18is_move_assignableIS9_EEE5valueEvE4typeERS9_SJ_"
 "_ZSt4swapISt9_Any_dataENSt9enable_ifIXsrSt6__and_IJSt6__not_ISt15__is_tuple_likeIT_EESt21is_move_constructibleIS5_ESt18is_move_assignableIS5_EEE5valueEvE4typeERS5_SF_"
 "_ZSt4swapIyENSt9enable_ifIXsrSt6__and_IJSt6__not_ISt15__is_tuple_likeIT_EESt21is_move_constructibleIS4_ESt18is_move_assignableIS4_EEE5valueEvE4typeERS4_SE_"
 "_ZSt5alignyyRPvRy"
 "_ZSt5isnand"
 "_ZSt6__sortIN9__gnu_cxx17__normal_iteratorIPySt6vectorIySaIyEEEENS0_5__ops15_Iter_less_iterEEvT_S9_T0_"
 "_ZSt6uniqueIN9__gnu_cxx17__normal_iteratorIPySt6vectorIySaIyEEEEET_S7_S7_"
 "_ZSt7forwardI15IntersectionResEOT_RNSt16remove_referenceIS1_E4typeE"
 "_ZSt7forwardIdEOT_RNSt16remove_referenceIS0_E4typeE"
 "_ZSt7forwardIiEOT_RNSt16remove_referenceIS0_E4typeE"
 "_ZSt7forwardIRdEOT_RNSt16remove_referenceIS1_E4typeE"
 "_ZSt7forwardIRK15IntersectionResEOT_RNSt16remove_referenceIS3_E4typeE"
 "_ZSt7forwardIRKdEOT_RNSt16remove_referenceIS2_E4typeE"
 "_ZSt7forwardIRKiEOT_RNSt16remove_referenceIS2_E4typeE"
 "_ZSt7forwardIRKSt21piecewise_construct_tEOT_RNSt16remove_referenceIS3_E4typeE"
 "_ZSt7forwardIRKSt6vectorIdSaIdEEEOT_RNSt16remove_referenceIS5_E4typeE"
 "_ZSt7forwardIRKyEOT_RNSt16remove_referenceIS2_E4typeE"
 "_ZSt7forwardIRPN9quickpool5sched10RingBufferIPSt8functionIFvvEEEEEOT_RNSt16remove_referenceISA_E4typeE"
 "_ZSt7forwardIRPSt13_Rb_tree_nodeISt4pairIKiSt6vectorIdSaIdEEEEEOT_RNSt16remove_referenceISA_E4typeE"
 "_ZSt7forwardIRPSt18_Rb_tree_node_baseEOT_RNSt16remove_referenceIS3_E4typeE"
 "_ZSt7forwardIRSt6vectorIdSaIdEEEOT_RNSt16remove_referenceIS4_E4typeE"
 "_ZSt7forwardISt10unique_ptrIN9quickpool5sched10RingBufferIPSt8functionIFvvEEEESt14default_deleteIS8_EEEOT_RNSt16remove_referenceISC_E4typeE"
 "_ZSt7forwardISt4pairIidEEOT_RNSt16remove_referenceIS2_E4typeE"
 "_ZSt7forwardISt5tupleIJEEEOT_RNSt16remove_referenceIS2_E4typeE"
 "_ZSt7forwardISt5tupleIJRKiEEEOT_RNSt16remove_referenceIS4_E4typeE"
 "_ZSt7forwardISt6vectorIdSaIdEEEOT_RNSt16remove_referenceIS3_E4typeE"
 "_ZSt7forwardISt8functionIFvvEEEOT_RNSt16remove_referenceIS3_E4typeE"
 "_ZSt7forwardIyEOT_RNSt16remove_referenceIS0_E4typeE"
 "_ZSt7forwardIZN9quickpool10ThreadPool10add_workerEyEUlvE_EOT_RNSt16remove_referenceIS3_E4typeE"
 "_ZSt8__invokeIZN9quickpool10ThreadPool10add_workerEyEUlvE_JEENSt15__invoke_resultIT_JDpT0_EE4typeEOS4_DpOS5_"
 "_ZSt8__uniqueIN9__gnu_cxx17__normal_iteratorIPySt6vectorIySaIyEEEENS0_5__ops19_Iter_equal_to_iterEET_S9_S9_T0_"
 "_ZSt8_DestroyI15IntersectionResEvPT_"
 "_ZSt8_DestroyIN9__gnu_cxx17__normal_iteratorIPdSt6vectorIdSaIdEEEEEvT_S7_"
 "_ZSt8_DestroyIN9__gnu_cxx17__normal_iteratorIPSt6vectorIdSaIdEES2_IS4_SaIS4_EEEEEvT_S9_"
 "_ZSt8_DestroyIP15IntersectionResEvT_S2_"
 "_ZSt8_DestroyIPdEvT_S1_"
 "_ZSt8_DestroyIPN9quickpool5sched9TaskQueueENS0_3mem7aligned9allocatorIS2_Ly64EEEEvT_S8_RT0_"
 "_ZSt8_DestroyIPSt10unique_ptrIN9quickpool5sched10RingBufferIPSt8functionIFvvEEEESt14default_deleteIS8_EEEvT_SD_"
 "_ZSt8_DestroyIPSt4pairIidEEvT_S3_"
 "_ZSt8_DestroyIPSt6threadEvT_S2_"
 "_ZSt8_DestroyIPSt6vectorI15IntersectionResSaIS1_EEEvT_S5_"
 "_ZSt8_DestroyIPSt6vectorIdSaIdEEEvT_S4_"
 "_ZSt8_DestroyIPSt6vectorIySaIyEEEvT_S4_"
 "_ZSt8_DestroyIPyEvT_S1_"
 "_ZSt8_DestroyISt10unique_ptrIN9quickpool5sched10RingBufferIPSt8functionIFvvEEEESt14default_deleteIS8_EEEvPT_"
 "_ZSt8_DestroyISt6threadEvPT_"
 "_ZSt8_DestroyISt6vectorI15IntersectionResSaIS1_EEEvPT_"
 "_ZSt8_DestroyISt6vectorIdSaIdEEEvPT_"
 "_ZSt8_DestroyISt6vectorIySaIyEEEvPT_"
 "_ZSt9__advanceIN9__gnu_cxx17__normal_iteratorIPK15IntersectionResSt6vectorIS2_SaIS2_EEEExEvRT_T0_St26random_access_iterator_tag"
 "_ZSt9iter_swapIN9__gnu_cxx17__normal_iteratorIPySt6vectorIySaIyEEEES6_EvT_T0_"
 "_ZStanSt12memory_orderSt23__memory_order_modifier"
 "_ZSteqIP15IntersectionResEbRKSt13move_iteratorIT_ES6_"
 "_ZSteqNSt6thread2idES0_"
 "_ZSteqRKSt17_Rb_tree_iteratorISt4pairIKiSt6vectorIdSaIdEEEES8_"
 "_ZStneIP15IntersectionResEbRKSt13move_iteratorIT_ES6_"
 "_ZStneNSt6thread2idES0_"
 "_ZStneRKSt17_Rb_tree_iteratorISt4pairIKiSt6vectorIdSaIdEEEES8_"
 "_ZStorSt12memory_orderSt23__memory_order_modifier"
 "_ZTIN10RcppThread11ProgressBarE"
 "_ZTIN10RcppThread15ProgressPrinterE"
 "_ZTIN10RcppThread22UserInterruptExceptionE"
 "_ZTINSt6thread11_State_implINS_8_InvokerISt5tupleIJZN9quickpool10ThreadPool10add_workerEyEUlvE_EEEEEE"
 "_ZTINSt6thread6_StateE"
 "_ZTISt11_Mutex_baseILN9__gnu_cxx12_Lock_policyE2EE"
 "_ZTISt16_Sp_counted_baseILN9__gnu_cxx12_Lock_policyE2EE"
 "_ZTISt9bad_alloc"
 "_ZTISt9exception"
 "_ZTSN10RcppThread11ProgressBarE"
 "_ZTSN10RcppThread15ProgressPrinterE"
 "_ZTSN10RcppThread22UserInterruptExceptionE"
 "_ZTSNSt6thread11_State_implINS_8_InvokerISt5tupleIJZN9quickpool10ThreadPool10add_workerEyEUlvE_EEEEEE"
 "_ZTSNSt6thread6_StateE"
 "_ZTSSt11_Mutex_baseILN9__gnu_cxx12_Lock_policyE2EE"
 "_ZTSSt16_Sp_counted_baseILN9__gnu_cxx12_Lock_policyE2EE"
 "_ZTSSt9bad_alloc"
 "_ZTSSt9exception"
 "_ZTVN10RcppThread11ProgressBarE"
 "_ZTVN10RcppThread15ProgressPrinterE"
 "_ZTVN10RcppThread22UserInterruptExceptionE"
 "_ZTVNSt6thread11_State_implINS_8_InvokerISt5tupleIJZN9quickpool10ThreadPool10add_workerEyEUlvE_EEEEEE"
 "_ZTVSt16_Sp_counted_baseILN9__gnu_cxx12_Lock_policyE2EE"
 "_ZZN10RcppThread10ThreadPool14globalInstanceEvE3ptr"
 "_ZZN10RcppThread8RMonitor8instanceEvE9instance_"
 "_ZZN9quickpool10ThreadPool10add_workerEyENKUlvE_clEv"
 "_ZZN9quickpool5sched11TaskManager15wait_for_finishEyENKUlvE_clEv"
 "_ZZN9quickpool5sched11TaskManager17rethrow_exceptionEvENKUlvE_clEv"
 "_ZZN9quickpool5sched9TaskQueue4waitEvENKUlvE_clEv"
 "_ZZNSt6vectorIdSaIdEE17_M_realloc_appendIJRKdEEEvDpOT_EN6_GuardC1EPdyRS0_"
 "_ZZNSt6vectorIdSaIdEE17_M_realloc_appendIJRKdEEEvDpOT_EN6_GuardD1Ev"
 "_ZZNSt6vectorIdSaIdEE17_M_realloc_insertIJdEEEvN9__gnu_cxx17__normal_iteratorIPdS1_EEDpOT_EN6_GuardC1ES5_yRS0_"
 "_ZZNSt6vectorIdSaIdEE17_M_realloc_insertIJdEEEvN9__gnu_cxx17__normal_iteratorIPdS1_EEDpOT_EN6_GuardD1Ev"
 "_ZZNSt6vectorIS_IdSaIdEESaIS1_EE17_M_realloc_appendIJS1_EEEvDpOT_EN6_GuardC1EPS1_yRS2_"
 "_ZZNSt6vectorIS_IdSaIdEESaIS1_EE17_M_realloc_appendIJS1_EEEvDpOT_EN6_GuardD1Ev"
 "_ZZNSt6vectorISt10unique_ptrIN9quickpool5sched10RingBufferIPSt8functionIFvvEEEESt14default_deleteIS8_EESaISB_EE17_M_realloc_appendIJRPS8_EEEvDpOT_EN6_GuardC1EPSB_yRSC_"
 "_ZZNSt6vectorISt10unique_ptrIN9quickpool5sched10RingBufferIPSt8functionIFvvEEEESt14default_deleteIS8_EESaISB_EE17_M_realloc_appendIJRPS8_EEEvDpOT_EN6_GuardD1Ev"
 "_ZZNSt6vectorISt4pairIidESaIS1_EE17_M_realloc_appendIJiRdEEEvDpOT_EN6_GuardC1EPS1_yRS2_"
 "_ZZNSt6vectorISt4pairIidESaIS1_EE17_M_realloc_appendIJiRdEEEvDpOT_EN6_GuardD1Ev"
 "_ZZNSt6vectorIySaIyEE17_M_realloc_appendIJRKyEEEvDpOT_EN6_GuardC1EPyyRS0_"
 "_ZZNSt6vectorIySaIyEE17_M_realloc_appendIJRKyEEEvDpOT_EN6_GuardD1Ev"
 "_ZZNSt6vectorIySaIyEE17_M_realloc_appendIJyEEEvDpOT_EN6_GuardC1EPyyRS0_"
 "_ZZNSt6vectorIySaIyEE17_M_realloc_appendIJyEEEvDpOT_EN6_GuardD1Ev"
 "_ZZNSt7__cxx1112basic_stringIcSt11char_traitsIcESaIcEE12_M_constructIPKcEEvT_S8_St20forward_iterator_tagEN6_GuardC1EPS4_"
 "_ZZNSt7__cxx1112basic_stringIcSt11char_traitsIcESaIcEE12_M_constructIPKcEEvT_S8_St20forward_iterator_tagEN6_GuardD1Ev"
 "_Z19CppDeLongPlacementsRKSt6vectorIdSaIdEES3_RKNSt7__cxx1112basic_stringIcSt11char_traitsIcESaIcEEE"
 "_ZdlPvS_"
 "_ZN19DeLongPlacementsResC1Ev"
 "_ZN19DeLongPlacementsResD1Ev"
 "_ZN9__gnu_cxx11char_traitsIcE2eqERKcS3_"
 "_ZN9__gnu_cxx11char_traitsIcE6lengthEPKc"
 "_ZN9__gnu_cxx17__normal_iteratorIPdSt6vectorIdSaIdEEEC1ERKS1_"
 "_ZN9__gnu_cxx17__normal_iteratorIPdSt6vectorIdSaIdEEEppEv"
 "_ZN9__gnu_cxx17__normal_iteratorIPKdSt6vectorIdSaIdEEEC1ERKS2_"
 "_ZN9__gnu_cxx17__normal_iteratorIPSt4pairIydESt6vectorIS2_SaIS2_EEEC1ERKS3_"
 "_ZN9__gnu_cxx17__normal_iteratorIPSt4pairIydESt6vectorIS2_SaIS2_EEEmmEv"
 "_ZN9__gnu_cxx17__normal_iteratorIPSt4pairIydESt6vectorIS2_SaIS2_EEEppEv"
 "_ZN9__gnu_cxx17__normal_iteratorIPySt6vectorIySaIyEEEC1ERKS1_"
 "_ZN9__gnu_cxx17__normal_iteratorIPySt6vectorIySaIyEEEppEv"
 "_ZN9__gnu_cxxeqIPSt4pairIydESt6vectorIS2_SaIS2_EEEEbRKNS_17__normal_iteratorIT_T0_EESC_"
 "_ZN9__gnu_cxxltIPSt4pairIydESt6vectorIS2_SaIS2_EEEEbRKNS_17__normal_iteratorIT_T0_EESC_"
 "_ZN9__gnu_cxxmiIPdSt6vectorIdSaIdEEEENS_17__normal_iteratorIT_T0_E15difference_typeERKS8_SB_"
 "_ZN9__gnu_cxxmiIPSt4pairIydESt6vectorIS2_SaIS2_EEEENS_17__normal_iteratorIT_T0_E15difference_typeERKSA_SD_"
 "_ZN9__gnu_cxxmiIPySt6vectorIySaIyEEEENS_17__normal_iteratorIT_T0_E15difference_typeERKS8_SB_"
 "_ZN9__gnu_cxxneIPdSt6vectorIdSaIdEEEEbRKNS_17__normal_iteratorIT_T0_EESA_"
 "_ZN9__gnu_cxxneIPSt4pairIydESt6vectorIS2_SaIS2_EEEEbRKNS_17__normal_iteratorIT_T0_EESC_"
 "_ZN9__gnu_cxxneIPySt6vectorIySaIyEEEEbRKNS_17__normal_iteratorIT_T0_EESA_"
 "_ZNK9__gnu_cxx17__normal_iteratorIPdSt6vectorIdSaIdEEE4baseEv"
 "_ZNK9__gnu_cxx17__normal_iteratorIPdSt6vectorIdSaIdEEEdeEv"
 "_ZNK9__gnu_cxx17__normal_iteratorIPdSt6vectorIdSaIdEEEmiEx"
 "_ZNK9__gnu_cxx17__normal_iteratorIPKdSt6vectorIdSaIdEEE4baseEv"
 "_ZNK9__gnu_cxx17__normal_iteratorIPSt4pairIydESt6vectorIS2_SaIS2_EEE4baseEv"
 "_ZNK9__gnu_cxx17__normal_iteratorIPSt4pairIydESt6vectorIS2_SaIS2_EEEdeEv"
 "_ZNK9__gnu_cxx17__normal_iteratorIPSt4pairIydESt6vectorIS2_SaIS2_EEEmiEx"
 "_ZNK9__gnu_cxx17__normal_iteratorIPSt4pairIydESt6vectorIS2_SaIS2_EEEplEx"
 "_ZNK9__gnu_cxx17__normal_iteratorIPySt6vectorIySaIyEEE4baseEv"
 "_ZNK9__gnu_cxx17__normal_iteratorIPySt6vectorIySaIyEEEdeEv"
 "_ZNKSt12_Vector_baseIdSaIdEE19_M_get_Tp_allocatorEv"
 "_ZNKSt12_Vector_baseISt4pairIydESaIS1_EE19_M_get_Tp_allocatorEv"
 "_ZNKSt12_Vector_baseIySaIyEE19_M_get_Tp_allocatorEv"
 "_ZNKSt6vectorIdSaIdEE12_M_check_lenEyPKc"
 "_ZNKSt6vectorIdSaIdEE3endEv"
 "_ZNKSt6vectorIdSaIdEE4sizeEv"
 "_ZNKSt6vectorIdSaIdEE5beginEv"
 "_ZNKSt6vectorIdSaIdEE8max_sizeEv"
 "_ZNKSt6vectorISt4pairIydESaIS1_EE12_M_check_lenEyPKc"
 "_ZNKSt6vectorISt4pairIydESaIS1_EE4sizeEv"
 "_ZNKSt6vectorISt4pairIydESaIS1_EE8max_sizeEv"
 "_ZNKSt6vectorIySaIyEE12_M_check_lenEyPKc"
 "_ZNKSt6vectorIySaIyEE4sizeEv"
 "_ZNKSt6vectorIySaIyEE8max_sizeEv"
 "_ZNSt11__copy_moveILb0ELb0ESt26random_access_iterator_tagE12__assign_oneIdKdEEvPT_PT0_"
 "_ZNSt11__copy_moveILb0ELb1ESt26random_access_iterator_tagE8__copy_mIKddEEPT0_PT_S7_S5_"
 "_ZNSt11char_traitsIcE2ltERKcS2_"
 "_ZNSt11char_traitsIcE6lengthEPKc"
 "_ZNSt11char_traitsIcE7compareEPKcS2_y"
 "_ZNSt12_Destroy_auxILb1EE9__destroyIPdEEvT_S3_"
 "_ZNSt12_Destroy_auxILb1EE9__destroyIPhEEvT_S3_"
 "_ZNSt12_Destroy_auxILb1EE9__destroyIPSt4pairIydEEEvT_S5_"
 "_ZNSt12_Destroy_auxILb1EE9__destroyIPyEEvT_S3_"
 "_ZNSt12_Vector_baseIdSaIdEE11_M_allocateEy"
 "_ZNSt12_Vector_baseIdSaIdEE12_Vector_implC1ERKS0_"
 "_ZNSt12_Vector_baseIdSaIdEE12_Vector_implC1Ev"
 "_ZNSt12_Vector_baseIdSaIdEE12_Vector_implD1Ev"
 "_ZNSt12_Vector_baseIdSaIdEE13_M_deallocateEPdy"
 "_ZNSt12_Vector_baseIdSaIdEE17_M_create_storageEy"
 "_ZNSt12_Vector_baseIdSaIdEE17_Vector_impl_dataC2Ev"
 "_ZNSt12_Vector_baseIdSaIdEE19_M_get_Tp_allocatorEv"
 "_ZNSt12_Vector_baseIdSaIdEEC2Ev"
 "_ZNSt12_Vector_baseIdSaIdEEC2EyRKS0_"
 "_ZNSt12_Vector_baseIdSaIdEED2Ev"
 "_ZNSt12_Vector_baseIhSaIhEE11_M_allocateEy"
 "_ZNSt12_Vector_baseIhSaIhEE12_Vector_implC1ERKS0_"
 "_ZNSt12_Vector_baseIhSaIhEE12_Vector_implD1Ev"
 "_ZNSt12_Vector_baseIhSaIhEE13_M_deallocateEPhy"
 "_ZNSt12_Vector_baseIhSaIhEE17_M_create_storageEy"
 "_ZNSt12_Vector_baseIhSaIhEE17_Vector_impl_dataC2Ev"
 "_ZNSt12_Vector_baseIhSaIhEE19_M_get_Tp_allocatorEv"
 "_ZNSt12_Vector_baseIhSaIhEEC2EyRKS0_"
 "_ZNSt12_Vector_baseIhSaIhEED2Ev"
 "_ZNSt12_Vector_baseISt4pairIydESaIS1_EE11_M_allocateEy"
 "_ZNSt12_Vector_baseISt4pairIydESaIS1_EE12_Vector_implC1Ev"
 "_ZNSt12_Vector_baseISt4pairIydESaIS1_EE12_Vector_implD1Ev"
 "_ZNSt12_Vector_baseISt4pairIydESaIS1_EE13_M_deallocateEPS1_y"
 "_ZNSt12_Vector_baseISt4pairIydESaIS1_EE17_Vector_impl_dataC2Ev"
 "_ZNSt12_Vector_baseISt4pairIydESaIS1_EE19_M_get_Tp_allocatorEv"
 "_ZNSt12_Vector_baseISt4pairIydESaIS1_EEC2Ev"
 "_ZNSt12_Vector_baseISt4pairIydESaIS1_EED2Ev"
 "_ZNSt12_Vector_baseIySaIyEE11_M_allocateEy"
 "_ZNSt12_Vector_baseIySaIyEE12_Vector_implC1Ev"
 "_ZNSt12_Vector_baseIySaIyEE12_Vector_implD1Ev"
 "_ZNSt12_Vector_baseIySaIyEE13_M_deallocateEPyy"
 "_ZNSt12_Vector_baseIySaIyEE17_Vector_impl_dataC2Ev"
 "_ZNSt12_Vector_baseIySaIyEE19_M_get_Tp_allocatorEv"
 "_ZNSt12_Vector_baseIySaIyEEC2Ev"
 "_ZNSt12_Vector_baseIySaIyEED2Ev"
 "_ZNSt15__new_allocatorIdE10deallocateEPdy"
 "_ZNSt15__new_allocatorIdE8allocateEyPKv"
 "_ZNSt15__new_allocatorIdED2Ev"
 "_ZNSt15__new_allocatorIhE10deallocateEPhy"
 "_ZNSt15__new_allocatorIhE8allocateEyPKv"
 "_ZNSt15__new_allocatorIhED2Ev"
 "_ZNSt15__new_allocatorISt4pairIydEE10deallocateEPS1_y"
 "_ZNSt15__new_allocatorISt4pairIydEE8allocateEyPKv"
 "_ZNSt15__new_allocatorISt4pairIydEED2Ev"
 "_ZNSt15__new_allocatorIyE10deallocateEPyy"
 "_ZNSt15__new_allocatorIyE8allocateEyPKv"
 "_ZNSt15__new_allocatorIyED2Ev"
 "_ZNSt20__copy_move_backwardILb1ELb0ESt26random_access_iterator_tagE13__copy_move_bIPSt4pairIydES5_EET0_T_S7_S6_"
 "_ZNSt20__uninitialized_copyILb1EE13__uninit_copyIN9__gnu_cxx17__normal_iteratorIPKdSt6vectorIdSaIdEEEEPdEET0_T_SC_SB_"
 "_ZNSt22__uninitialized_fill_nILb1EE15__uninit_fill_nIPdydEET_S3_T0_RKT1_"
 "_ZNSt22__uninitialized_fill_nILb1EE15__uninit_fill_nIPhyhEET_S3_T0_RKT1_"
 "_ZNSt4pairIydE4swapERS0_"
 "_ZNSt4pairIydEaSEOS0_"
 "_ZNSt4pairIydEC1IRyRdLb1EEEOT_OT0_"
 "_ZNSt4pairIydEC1IyRdLb1EEEOT_OT0_"
 "_ZNSt6vectorIdSaIdEE11_S_max_sizeERKS0_"
 "_ZNSt6vectorIdSaIdEE11_S_relocateEPdS2_S2_RS0_"
 "_ZNSt6vectorIdSaIdEE12emplace_backIJdEEERdDpOT_"
 "_ZNSt6vectorIdSaIdEE17_M_realloc_appendIJdEEEvDpOT_"
 "_ZNSt6vectorIdSaIdEE17_S_check_init_lenEyRKS0_"
 "_ZNSt6vectorIdSaIdEE18_M_fill_initializeEyRKd"
 "_ZNSt6vectorIdSaIdEE3endEv"
 "_ZNSt6vectorIdSaIdEE4backEv"
 "_ZNSt6vectorIdSaIdEE5beginEv"
 "_ZNSt6vectorIdSaIdEE9push_backEOd"
 "_ZNSt6vectorIdSaIdEEC1ERKS1_"
 "_ZNSt6vectorIdSaIdEEC1Ev"
 "_ZNSt6vectorIdSaIdEEC1EyRKdRKS0_"
 "_ZNSt6vectorIdSaIdEED1Ev"
 "_ZNSt6vectorIdSaIdEEixEy"
 "_ZNSt6vectorIhSaIhEE11_S_max_sizeERKS0_"
 "_ZNSt6vectorIhSaIhEE17_S_check_init_lenEyRKS0_"
 "_ZNSt6vectorIhSaIhEE18_M_fill_initializeEyRKh"
 "_ZNSt6vectorIhSaIhEEC1EyRKhRKS0_"
 "_ZNSt6vectorIhSaIhEED1Ev"
 "_ZNSt6vectorIhSaIhEEixEy"
 "_ZNSt6vectorISt4pairIydESaIS1_EE11_S_max_sizeERKS2_"
 "_ZNSt6vectorISt4pairIydESaIS1_EE11_S_relocateEPS1_S4_S4_RS2_"
 "_ZNSt6vectorISt4pairIydESaIS1_EE12emplace_backIJRyRdEEERS1_DpOT_"
 "_ZNSt6vectorISt4pairIydESaIS1_EE12emplace_backIJyRdEEERS1_DpOT_"
 "_ZNSt6vectorISt4pairIydESaIS1_EE17_M_realloc_appendIJRyRdEEEvDpOT_"
 "_ZNSt6vectorISt4pairIydESaIS1_EE17_M_realloc_appendIJyRdEEEvDpOT_"
 "_ZNSt6vectorISt4pairIydESaIS1_EE3endEv"
 "_ZNSt6vectorISt4pairIydESaIS1_EE4backEv"
 "_ZNSt6vectorISt4pairIydESaIS1_EE5beginEv"
 "_ZNSt6vectorISt4pairIydESaIS1_EEC1Ev"
 "_ZNSt6vectorISt4pairIydESaIS1_EED1Ev"
 "_ZNSt6vectorISt4pairIydESaIS1_EEixEy"
 "_ZNSt6vectorIySaIyEE11_S_max_sizeERKS0_"
 "_ZNSt6vectorIySaIyEE11_S_relocateEPyS2_S2_RS0_"
 "_ZNSt6vectorIySaIyEE17_M_realloc_appendIJRKyEEEvDpOT_"
 "_ZNSt6vectorIySaIyEE3endEv"
 "_ZNSt6vectorIySaIyEE5beginEv"
 "_ZNSt6vectorIySaIyEE9push_backERKy"
 "_ZNSt6vectorIySaIyEEC1Ev"
 "_ZNSt6vectorIySaIyEED1Ev"
 "_ZnwyPv"
 "_ZSt10__fill_n_aIPdydET_S1_T0_RKT1_St26random_access_iterator_tag"
 "_ZSt10__fill_n_aIPhyhET_S1_T0_RKT1_St26random_access_iterator_tag"
 "_ZSt11__addressofISt4pairIydEEPT_RS2_"
 "_ZSt11__bit_widthIyEiT_"
 "_ZSt12__miter_baseIN9__gnu_cxx17__normal_iteratorIPKdSt6vectorIdSaIdEEEEET_S8_"
 "_ZSt12__miter_baseIN9__gnu_cxx17__normal_iteratorIPSt4pairIydESt6vectorIS3_SaIS3_EEEEET_S9_"
 "_ZSt12__niter_baseIPdET_S1_"
 "_ZSt12__niter_baseIPKdSt6vectorIdSaIdEEET_N9__gnu_cxx17__normal_iteratorIS5_T0_EE"
 "_ZSt12__niter_baseIPSt4pairIydEET_S3_"
 "_ZSt12__niter_baseIPSt4pairIydESt6vectorIS1_SaIS1_EEET_N9__gnu_cxx17__normal_iteratorIS6_T0_EE"
 "_ZSt12__niter_baseIPyET_S1_"
 "_ZSt12__niter_wrapIN9__gnu_cxx17__normal_iteratorIPSt4pairIydESt6vectorIS3_SaIS3_EEEES4_ET_S9_T0_"
 "_ZSt12__niter_wrapIPdET_RKS1_S1_"
 "_ZSt12__relocate_aIPdS0_SaIdEET0_T_S3_S2_RT1_"
 "_ZSt12__relocate_aIPSt4pairIydES2_SaIS1_EET0_T_S5_S4_RT1_"
 "_ZSt12__relocate_aIPyS0_SaIyEET0_T_S3_S2_RT1_"
 "_ZSt12__to_addressIdEPT_S1_"
 "_ZSt12__to_addressISt4pairIydEEPT_S3_"
 "_ZSt12__to_addressIyEPT_S1_"
 "_ZSt13__copy_move_aILb0EN9__gnu_cxx17__normal_iteratorIPKdSt6vectorIdSaIdEEEEPdET1_T0_SA_S9_"
 "_ZSt13__countl_zeroIyEiT_"
 "_ZSt13move_backwardIN9__gnu_cxx17__normal_iteratorIPSt4pairIydESt6vectorIS3_SaIS3_EEEES8_ET0_T_SA_S9_"
 "_ZSt14__copy_move_a1ILb0EPKdPdET1_T0_S4_S3_"
 "_ZSt14__copy_move_a2ILb0EPKdPdET1_T0_S4_S3_"
 "_ZSt14__relocate_a_1IddENSt9enable_ifIXsrSt24__is_bitwise_relocatableIT_vE5valueEPS2_E4typeES4_S4_S4_RSaIT0_E"
 "_ZSt14__relocate_a_1IPSt4pairIydES2_SaIS1_EET0_T_S5_S4_RT1_"
 "_ZSt14__relocate_a_1IyyENSt9enable_ifIXsrSt24__is_bitwise_relocatableIT_vE5valueEPS2_E4typeES4_S4_S4_RSaIT0_E"
 "_ZSt17__size_to_integery"
 "_ZSt18uninitialized_copyIN9__gnu_cxx17__normal_iteratorIPKdSt6vectorIdSaIdEEEEPdET0_T_SA_S9_"
 "_ZSt19__relocate_object_aISt4pairIydES1_SaIS1_EEvPT_PT0_RT1_"
 "_ZSt20uninitialized_fill_nIPdydET_S1_T0_RKT1_"
 "_ZSt20uninitialized_fill_nIPhyhET_S1_T0_RKT1_"
 "_ZSt22__copy_move_backward_aILb1EN9__gnu_cxx17__normal_iteratorIPSt4pairIydESt6vectorIS3_SaIS3_EEEES8_ET1_T0_SA_S9_"
 "_ZSt22__uninitialized_copy_aIN9__gnu_cxx17__normal_iteratorIPKdSt6vectorIdSaIdEEEEPddET0_T_SA_S9_RSaIT1_E"
 "_ZSt23__copy_move_backward_a1ILb1EPSt4pairIydES2_ET1_T0_S4_S3_"
 "_ZSt23__copy_move_backward_a2ILb1EPSt4pairIydES2_ET1_T0_S4_S3_"
 "_ZSt24__uninitialized_fill_n_aIPdyddET_S1_T0_RKT1_RSaIT2_E"
 "_ZSt24__uninitialized_fill_n_aIPhyhhET_S1_T0_RKT1_RSaIT2_E"
 "_ZSt3maxIyERKT_S2_S2_"
 "_ZSt3minIyERKT_S2_S2_"
 "_ZSt4__lgIxET_S0_"
 "_ZSt4copyIN9__gnu_cxx17__normal_iteratorIPKdSt6vectorIdSaIdEEEEPdET0_T_SA_S9_"
 "_ZSt4moveIRdEONSt16remove_referenceIT_E4typeEOS2_"
 "_ZSt4moveIRSt4pairIydEEONSt16remove_referenceIT_E4typeEOS4_"
 "_ZSt4moveIRyEONSt16remove_referenceIT_E4typeEOS2_"
 "_ZSt4swapIdENSt9enable_ifIXsrSt6__and_IJSt6__not_ISt15__is_tuple_likeIT_EESt21is_move_constructibleIS4_ESt18is_move_assignableIS4_EEE5valueEvE4typeERS4_SE_"
 "_ZSt4swapIydENSt9enable_ifIXsrSt6__and_IJSt14__is_swappableIT_ES2_IT0_EEE5valueEvE4typeERSt4pairIS3_S5_ESC_"
 "_ZSt4swapIyENSt9enable_ifIXsrSt6__and_IJSt6__not_ISt15__is_tuple_likeIT_EESt21is_move_constructibleIS4_ESt18is_move_assignableIS4_EEE5valueEvE4typeERS4_SE_"
 "_ZSt6fill_nIPdydET_S1_T0_RKT1_"
 "_ZSt6fill_nIPhyhET_S1_T0_RKT1_"
 "_ZSt7forwardIdEOT_RNSt16remove_referenceIS0_E4typeE"
 "_ZSt7forwardIRdEOT_RNSt16remove_referenceIS1_E4typeE"
 "_ZSt7forwardIRKyEOT_RNSt16remove_referenceIS2_E4typeE"
 "_ZSt7forwardIRyEOT_RNSt16remove_referenceIS1_E4typeE"
 "_ZSt7forwardISt4pairIydEEOT_RNSt16remove_referenceIS2_E4typeE"
 "_ZSt7forwardIyEOT_RNSt16remove_referenceIS0_E4typeE"
 "_ZSt8__fill_aIPddEvT_S1_RKT0_"
 "_ZSt8__fill_aIPhhEvT_S1_RKT0_"
 "_ZSt8_DestroyIPdEvT_S1_"
 "_ZSt8_DestroyIPhEvT_S1_"
 "_ZSt8_DestroyIPSt4pairIydEEvT_S3_"
 "_ZSt8_DestroyIPyEvT_S1_"
 "_ZSt9__fill_a1IhEN9__gnu_cxx11__enable_ifIXsrSt9__is_byteIT_E7__valueEvE6__typeEPS3_S7_RKS3_"
 "_ZSt9__fill_a1IPddEN9__gnu_cxx11__enable_ifIXsrSt11__is_scalarIT0_E7__valueEvE6__typeET_S8_RKS4_"
 "_ZSt9iter_swapIN9__gnu_cxx17__normal_iteratorIPSt4pairIydESt6vectorIS3_SaIS3_EEEES8_EvT_T0_"
 "_ZSteqIcSt11char_traitsIcESaIcEEbRKNSt7__cxx1112basic_stringIT_T0_T1_EEPKS5_"
 "_ZZNSt6vectorIdSaIdEE17_M_realloc_appendIJdEEEvDpOT_EN6_GuardC1EPdyRS0_"
 "_ZZNSt6vectorIdSaIdEE17_M_realloc_appendIJdEEEvDpOT_EN6_GuardD1Ev"
 "_ZZNSt6vectorISt4pairIydESaIS1_EE17_M_realloc_appendIJRyRdEEEvDpOT_EN6_GuardC1EPS1_yRS2_"
 "_ZZNSt6vectorISt4pairIydESaIS1_EE17_M_realloc_appendIJRyRdEEEvDpOT_EN6_GuardD1Ev"
 "_ZZNSt6vectorISt4pairIydESaIS1_EE17_M_realloc_appendIJyRdEEEvDpOT_EN6_GuardC1EPS1_yRS2_"
 "_ZZNSt6vectorISt4pairIydESaIS1_EE17_M_realloc_appendIJyRdEEEvDpOT_EN6_GuardD1Ev"
 "_ZZNSt6vectorIySaIyEE17_M_realloc_appendIJRKyEEEvDpOT_EN6_GuardC1EPyyRS0_"
 "_ZZNSt6vectorIySaIyEE17_M_realloc_appendIJRKyEEEvDpOT_EN6_GuardD1Ev"
 "_Z15CppEntropy_ContRKSt6vectorIdSaIdEEydb"
 "_Z15CppEntropy_DiscRKSt6vectorIdSaIdEEdb"
 "_Z19CppJoinEntropy_ContRKSt6vectorIS_IdSaIdEESaIS1_EERKS_IiSaIiEEydb"
 "_Z19CppJoinEntropy_DiscRKSt6vectorIS_IdSaIdEESaIS1_EERKS_IiSaIiEEdb"
 "_Z25CppMutualInformation_ContRKSt6vectorIS_IdSaIdEESaIS1_EERKS_IiSaIiEES9_yibb"
 "_Z25CppMutualInformation_DiscRKSt6vectorIS_IdSaIdEESaIS1_EERKS_IiSaIiEES9_db"
 "_Z26CppConditionalEntropy_ContRKSt6vectorIS_IdSaIdEESaIS1_EERKS_IiSaIiEES9_ydb"
 "_Z26CppConditionalEntropy_DiscRKSt6vectorIS_IdSaIdEESaIS1_EERKS_IiSaIiEES9_db"
 "_ZdlPvS_"
 "_ZN9__gnu_cxx12__to_xstringINSt7__cxx1112basic_stringIcSt11char_traitsIcESaIcEEEcEET_PFiPT0_yPKS8_PcEySB_z"
 "_ZN9__gnu_cxx16__aligned_bufferIiE6_M_ptrEv"
 "_ZN9__gnu_cxx16__aligned_bufferIiE7_M_addrEv"
 "_ZN9__gnu_cxx16__aligned_bufferISt4pairIKdiEE6_M_ptrEv"
 "_ZN9__gnu_cxx16__aligned_bufferISt4pairIKdiEE7_M_addrEv"
 "_ZN9__gnu_cxx16__aligned_bufferISt4pairIKNSt7__cxx1112basic_stringIcSt11char_traitsIcESaIcEEEiEE6_M_ptrEv"
 "_ZN9__gnu_cxx16__aligned_bufferISt4pairIKNSt7__cxx1112basic_stringIcSt11char_traitsIcESaIcEEEiEE7_M_addrEv"
 "_ZN9__gnu_cxx17__normal_iteratorIPdSt6vectorIdSaIdEEEC1ERKS1_"
 "_ZN9__gnu_cxx17__normal_iteratorIPdSt6vectorIdSaIdEEEmmEv"
 "_ZN9__gnu_cxx17__normal_iteratorIPdSt6vectorIdSaIdEEEppEv"
 "_ZN9__gnu_cxx17__normal_iteratorIPiSt6vectorIiSaIiEEEC1ERKS1_"
 "_ZN9__gnu_cxx17__normal_iteratorIPiSt6vectorIiSaIiEEEppEv"
 "_ZN9__gnu_cxx17__normal_iteratorIPKdSt6vectorIdSaIdEEEC1ERKS2_"
 "_ZN9__gnu_cxx17__normal_iteratorIPKdSt6vectorIdSaIdEEEppEv"
 "_ZN9__gnu_cxx17__normal_iteratorIPKiSt6vectorIiSaIiEEEC1ERKS2_"
 "_ZN9__gnu_cxx17__normal_iteratorIPKiSt6vectorIiSaIiEEEppEv"
 "_ZN9__gnu_cxx17__normal_iteratorIPKSt6vectorIdSaIdEES1_IS3_SaIS3_EEEC1ERKS5_"
 "_ZN9__gnu_cxx17__normal_iteratorIPKSt6vectorIdSaIdEES1_IS3_SaIS3_EEEppEv"
 "_ZN9__gnu_cxx17__normal_iteratorIPSt6vectorIdSaIdEES1_IS3_SaIS3_EEEC1ERKS4_"
 "_ZN9__gnu_cxx17__normal_iteratorIPSt6vectorIdSaIdEES1_IS3_SaIS3_EEEppEv"
 "_ZN9__gnu_cxx5__ops14_Iter_less_valC1ENS0_15_Iter_less_iterE"
 "_ZN9__gnu_cxx5__ops15__val_comp_iterENS0_15_Iter_less_iterE"
 "_ZN9__gnu_cxx5__ops16__iter_less_iterEv"
 "_ZN9__gnu_cxxeqIPdSt6vectorIdSaIdEEEEbRKNS_17__normal_iteratorIT_T0_EESA_"
 "_ZN9__gnu_cxxeqIPKSt6vectorIdSaIdEES1_IS3_SaIS3_EEEEbRKNS_17__normal_iteratorIT_T0_EESD_"
 "_ZN9__gnu_cxxleIPdSt6vectorIdSaIdEEEEbRKNS_17__normal_iteratorIT_T0_EESA_"
 "_ZN9__gnu_cxxltIPdSt6vectorIdSaIdEEEEbRKNS_17__normal_iteratorIT_T0_EESA_"
 "_ZN9__gnu_cxxmiIPdSt6vectorIdSaIdEEEENS_17__normal_iteratorIT_T0_E15difference_typeERKS8_SB_"
 "_ZN9__gnu_cxxmiIPSt6vectorIdSaIdEES1_IS3_SaIS3_EEEENS_17__normal_iteratorIT_T0_E15difference_typeERKSA_SD_"
 "_ZN9__gnu_cxxneIPdSt6vectorIdSaIdEEEEbRKNS_17__normal_iteratorIT_T0_EESA_"
 "_ZN9__gnu_cxxneIPiSt6vectorIiSaIiEEEEbRKNS_17__normal_iteratorIT_T0_EESA_"
 "_ZN9__gnu_cxxneIPKdSt6vectorIdSaIdEEEEbRKNS_17__normal_iteratorIT_T0_EESB_"
 "_ZN9__gnu_cxxneIPKiSt6vectorIiSaIiEEEEbRKNS_17__normal_iteratorIT_T0_EESB_"
 "_ZN9__gnu_cxxneIPKSt6vectorIdSaIdEES1_IS3_SaIS3_EEEEbRKNS_17__normal_iteratorIT_T0_EESD_"
 "_ZN9__gnu_cxxneIPSt6vectorIdSaIdEES1_IS3_SaIS3_EEEEbRKNS_17__normal_iteratorIT_T0_EESC_"
 "_ZNK9__gnu_cxx16__aligned_bufferIiE6_M_ptrEv"
 "_ZNK9__gnu_cxx16__aligned_bufferIiE7_M_addrEv"
 "_ZNK9__gnu_cxx16__aligned_bufferISt4pairIKdiEE6_M_ptrEv"
 "_ZNK9__gnu_cxx16__aligned_bufferISt4pairIKdiEE7_M_addrEv"
 "_ZNK9__gnu_cxx16__aligned_bufferISt4pairIKNSt7__cxx1112basic_stringIcSt11char_traitsIcESaIcEEEiEE6_M_ptrEv"
 "_ZNK9__gnu_cxx16__aligned_bufferISt4pairIKNSt7__cxx1112basic_stringIcSt11char_traitsIcESaIcEEEiEE7_M_addrEv"
 "_ZNK9__gnu_cxx17__normal_iteratorIPdSt6vectorIdSaIdEEE4baseEv"
 "_ZNK9__gnu_cxx17__normal_iteratorIPdSt6vectorIdSaIdEEEdeEv"
 "_ZNK9__gnu_cxx17__normal_iteratorIPdSt6vectorIdSaIdEEEmiEx"
 "_ZNK9__gnu_cxx17__normal_iteratorIPdSt6vectorIdSaIdEEEplEx"
 "_ZNK9__gnu_cxx17__normal_iteratorIPiSt6vectorIiSaIiEEE4baseEv"
 "_ZNK9__gnu_cxx17__normal_iteratorIPiSt6vectorIiSaIiEEEdeEv"
 "_ZNK9__gnu_cxx17__normal_iteratorIPKdSt6vectorIdSaIdEEE4baseEv"
 "_ZNK9__gnu_cxx17__normal_iteratorIPKdSt6vectorIdSaIdEEEdeEv"
 "_ZNK9__gnu_cxx17__normal_iteratorIPKiSt6vectorIiSaIiEEE4baseEv"
 "_ZNK9__gnu_cxx17__normal_iteratorIPKiSt6vectorIiSaIiEEEdeEv"
 "_ZNK9__gnu_cxx17__normal_iteratorIPKSt6vectorIdSaIdEES1_IS3_SaIS3_EEE4baseEv"
 "_ZNK9__gnu_cxx17__normal_iteratorIPKSt6vectorIdSaIdEES1_IS3_SaIS3_EEEdeEv"
 "_ZNK9__gnu_cxx17__normal_iteratorIPSt6vectorIdSaIdEES1_IS3_SaIS3_EEE4baseEv"
 "_ZNK9__gnu_cxx17__normal_iteratorIPSt6vectorIdSaIdEES1_IS3_SaIS3_EEEdeEv"
 "_ZNK9__gnu_cxx17__normal_iteratorIPSt6vectorIdSaIdEES1_IS3_SaIS3_EEEmiEx"
 "_ZNK9__gnu_cxx17__normal_iteratorIPSt6vectorIdSaIdEES1_IS3_SaIS3_EEEplEx"
 "_ZNK9__gnu_cxx5__ops14_Iter_less_valclINS_17__normal_iteratorIPdSt6vectorIdSaIdEEEEdEEbT_RT0_"
 "_ZNK9__gnu_cxx5__ops14_Val_less_iterclIdNS_17__normal_iteratorIPdSt6vectorIdSaIdEEEEEEbRT_T0_"
 "_ZNK9__gnu_cxx5__ops15_Iter_less_iterclINS_17__normal_iteratorIPdSt6vectorIdSaIdEEEES8_EEbT_T0_"
 "_ZNKSt10_HashtableIdSt4pairIKdiESaIS2_ENSt8__detail10_Select1stESt8equal_toIdESt4hashIdENS4_18_Mod_range_hashingENS4_20_Default_ranged_hashENS4_20_Prime_rehash_policyENS4_17_Hashtable_traitsILb0ELb0ELb1EEEE12_M_find_nodeEyRS1_y"
 "_ZNKSt10_HashtableIdSt4pairIKdiESaIS2_ENSt8__detail10_Select1stESt8equal_toIdESt4hashIdENS4_18_Mod_range_hashingENS4_20_Default_ranged_hashENS4_20_Prime_rehash_policyENS4_17_Hashtable_traitsILb0ELb0ELb1EEEE15_M_bucket_indexERKNS4_16_Hash_node_valueIS2_Lb0EEE"
 "_ZNKSt10_HashtableIdSt4pairIKdiESaIS2_ENSt8__detail10_Select1stESt8equal_toIdESt4hashIdENS4_18_Mod_range_hashingENS4_20_Default_ranged_hashENS4_20_Prime_rehash_policyENS4_17_Hashtable_traitsILb0ELb0ELb1EEEE15_M_bucket_indexEy"
 "_ZNKSt10_HashtableIdSt4pairIKdiESaIS2_ENSt8__detail10_Select1stESt8equal_toIdESt4hashIdENS4_18_Mod_range_hashingENS4_20_Default_ranged_hashENS4_20_Prime_rehash_policyENS4_17_Hashtable_traitsILb0ELb0ELb1EEEE19_M_find_before_nodeEyRS1_y"
 "_ZNKSt10_HashtableIdSt4pairIKdiESaIS2_ENSt8__detail10_Select1stESt8equal_toIdESt4hashIdENS4_18_Mod_range_hashingENS4_20_Default_ranged_hashENS4_20_Prime_rehash_policyENS4_17_Hashtable_traitsILb0ELb0ELb1EEEE21_M_uses_single_bucketEPPNS4_15_Hash_node_baseE"
 "_ZNKSt10_HashtableIdSt4pairIKdiESaIS2_ENSt8__detail10_Select1stESt8equal_toIdESt4hashIdENS4_18_Mod_range_hashingENS4_20_Default_ranged_hashENS4_20_Prime_rehash_policyENS4_17_Hashtable_traitsILb0ELb0ELb1EEEE8_M_beginEv"
 "_ZNKSt10_HashtableIiiSaIiENSt8__detail9_IdentityESt8equal_toIiESt4hashIiENS1_18_Mod_range_hashingENS1_20_Default_ranged_hashENS1_20_Prime_rehash_policyENS1_17_Hashtable_traitsILb0ELb1ELb1EEEE15_M_bucket_indexERKNS1_16_Hash_node_valueIiLb0EEE"
 "_ZNKSt10_HashtableIiiSaIiENSt8__detail9_IdentityESt8equal_toIiESt4hashIiENS1_18_Mod_range_hashingENS1_20_Default_ranged_hashENS1_20_Prime_rehash_policyENS1_17_Hashtable_traitsILb0ELb1ELb1EEEE15_M_bucket_indexEy"
 "_ZNKSt10_HashtableIiiSaIiENSt8__detail9_IdentityESt8equal_toIiESt4hashIiENS1_18_Mod_range_hashingENS1_20_Default_ranged_hashENS1_20_Prime_rehash_policyENS1_17_Hashtable_traitsILb0ELb1ELb1EEEE15_M_find_node_trIiEEPNS1_10_Hash_nodeIiLb0EEEyRKT_y"
 "_ZNKSt10_HashtableIiiSaIiENSt8__detail9_IdentityESt8equal_toIiESt4hashIiENS1_18_Mod_range_hashingENS1_20_Default_ranged_hashENS1_20_Prime_rehash_policyENS1_17_Hashtable_traitsILb0ELb1ELb1EEEE21_M_uses_single_bucketEPPNS1_15_Hash_node_baseE"
 "_ZNKSt10_HashtableIiiSaIiENSt8__detail9_IdentityESt8equal_toIiESt4hashIiENS1_18_Mod_range_hashingENS1_20_Default_ranged_hashENS1_20_Prime_rehash_policyENS1_17_Hashtable_traitsILb0ELb1ELb1EEEE22_M_find_before_node_trIiEEPNS1_15_Hash_node_baseEyRKT_y"
 "_ZNKSt10_HashtableIiiSaIiENSt8__detail9_IdentityESt8equal_toIiESt4hashIiENS1_18_Mod_range_hashingENS1_20_Default_ranged_hashENS1_20_Prime_rehash_policyENS1_17_Hashtable_traitsILb0ELb1ELb1EEEE4sizeEv"
 "_ZNKSt10_HashtableIiiSaIiENSt8__detail9_IdentityESt8equal_toIiESt4hashIiENS1_18_Mod_range_hashingENS1_20_Default_ranged_hashENS1_20_Prime_rehash_policyENS1_17_Hashtable_traitsILb0ELb1ELb1EEEE8_M_beginEv"
 "_ZNKSt10_HashtableINSt7__cxx1112basic_stringIcSt11char_traitsIcESaIcEEESt4pairIKS5_iESaIS8_ENSt8__detail10_Select1stESt8equal_toIS5_ESt4hashIS5_ENSA_18_Mod_range_hashingENSA_20_Default_ranged_hashENSA_20_Prime_rehash_policyENSA_17_Hashtable_traitsILb1ELb0ELb1EEEE12_M_find_nodeEyRS7_y"
 "_ZNKSt10_HashtableINSt7__cxx1112basic_stringIcSt11char_traitsIcESaIcEEESt4pairIKS5_iESaIS8_ENSt8__detail10_Select1stESt8equal_toIS5_ESt4hashIS5_ENSA_18_Mod_range_hashingENSA_20_Default_ranged_hashENSA_20_Prime_rehash_policyENSA_17_Hashtable_traitsILb1ELb0ELb1EEEE15_M_bucket_indexERKNSA_16_Hash_node_valueIS8_Lb1EEE"
 "_ZNKSt10_HashtableINSt7__cxx1112basic_stringIcSt11char_traitsIcESaIcEEESt4pairIKS5_iESaIS8_ENSt8__detail10_Select1stESt8equal_toIS5_ESt4hashIS5_ENSA_18_Mod_range_hashingENSA_20_Default_ranged_hashENSA_20_Prime_rehash_policyENSA_17_Hashtable_traitsILb1ELb0ELb1EEEE15_M_bucket_indexEy"
 "_ZNKSt10_HashtableINSt7__cxx1112basic_stringIcSt11char_traitsIcESaIcEEESt4pairIKS5_iESaIS8_ENSt8__detail10_Select1stESt8equal_toIS5_ESt4hashIS5_ENSA_18_Mod_range_hashingENSA_20_Default_ranged_hashENSA_20_Prime_rehash_policyENSA_17_Hashtable_traitsILb1ELb0ELb1EEEE19_M_find_before_nodeEyRS7_y"
 "_ZNKSt10_HashtableINSt7__cxx1112basic_stringIcSt11char_traitsIcESaIcEEESt4pairIKS5_iESaIS8_ENSt8__detail10_Select1stESt8equal_toIS5_ESt4hashIS5_ENSA_18_Mod_range_hashingENSA_20_Default_ranged_hashENSA_20_Prime_rehash_policyENSA_17_Hashtable_traitsILb1ELb0ELb1EEEE21_M_uses_single_bucketEPPNSA_15_Hash_node_baseE"
 "_ZNKSt10_HashtableINSt7__cxx1112basic_stringIcSt11char_traitsIcESaIcEEESt4pairIKS5_iESaIS8_ENSt8__detail10_Select1stESt8equal_toIS5_ESt4hashIS5_ENSA_18_Mod_range_hashingENSA_20_Default_ranged_hashENSA_20_Prime_rehash_policyENSA_17_Hashtable_traitsILb1ELb0ELb1EEEE8_M_beginEv"
 "_ZNKSt12_Vector_baseIdSaIdEE19_M_get_Tp_allocatorEv"
 "_ZNKSt12_Vector_baseISt6vectorIdSaIdEESaIS2_EE19_M_get_Tp_allocatorEv"
 "_ZNKSt15__str_hash_baseIcSaIcENSt7__cxx1112basic_stringIcSt11char_traitsIcES0_EEEclERKS5_"
 "_ZNKSt4hashIdEclEd"
 "_ZNKSt4hashIiEclEi"
 "_ZNKSt6vectorIdSaIdEE12_M_check_lenEyPKc"
 "_ZNKSt6vectorIdSaIdEE3endEv"
 "_ZNKSt6vectorIdSaIdEE4sizeEv"
 "_ZNKSt6vectorIdSaIdEE5beginEv"
 "_ZNKSt6vectorIdSaIdEE8capacityEv"
 "_ZNKSt6vectorIdSaIdEE8max_sizeEv"
 "_ZNKSt6vectorIdSaIdEEixEy"
 "_ZNKSt6vectorIiSaIiEE3endEv"
 "_ZNKSt6vectorIiSaIiEE4sizeEv"
 "_ZNKSt6vectorIiSaIiEE5beginEv"
 "_ZNKSt6vectorIiSaIiEEixEy"
 "_ZNKSt6vectorIS_IdSaIdEESaIS1_EE12_M_check_lenEyPKc"
 "_ZNKSt6vectorIS_IdSaIdEESaIS1_EE3endEv"
 "_ZNKSt6vectorIS_IdSaIdEESaIS1_EE4sizeEv"
 "_ZNKSt6vectorIS_IdSaIdEESaIS1_EE5beginEv"
 "_ZNKSt6vectorIS_IdSaIdEESaIS1_EE5emptyEv"
 "_ZNKSt6vectorIS_IdSaIdEESaIS1_EE8capacityEv"
 "_ZNKSt6vectorIS_IdSaIdEESaIS1_EE8max_sizeEv"
 "_ZNKSt6vectorIS_IdSaIdEESaIS1_EEixEy"
 "_ZNKSt8__detail10_AllocNodeISaINS_10_Hash_nodeIiLb0EEEEEclIJRKiEEEPS2_DpOT_"
 "_ZNKSt8__detail10_Hash_nodeIiLb0EE7_M_nextEv"
 "_ZNKSt8__detail10_Hash_nodeISt4pairIKdiELb0EE7_M_nextEv"
 "_ZNKSt8__detail10_Hash_nodeISt4pairIKNSt7__cxx1112basic_stringIcSt11char_traitsIcESaIcEEEiELb1EE7_M_nextEv"
 "_ZNKSt8__detail10_Select1stclIRKSt4pairIKdiEEEONS0_10__1st_typeIT_E4typeEOS8_"
 "_ZNKSt8__detail10_Select1stclIRKSt4pairIKNSt7__cxx1112basic_stringIcSt11char_traitsIcESaIcEEEiEEEONS0_10__1st_typeIT_E4typeEOSE_"
 "_ZNKSt8__detail14_Node_iteratorIiLb1ELb0EEdeEv"
 "_ZNKSt8__detail14_Node_iteratorISt4pairIKdiELb0ELb0EEdeEv"
 "_ZNKSt8__detail14_Node_iteratorISt4pairIKdiELb0ELb0EEptEv"
 "_ZNKSt8__detail14_Node_iteratorISt4pairIKNSt7__cxx1112basic_stringIcSt11char_traitsIcESaIcEEEiELb0ELb1EEdeEv"
 "_ZNKSt8__detail14_Node_iteratorISt4pairIKNSt7__cxx1112basic_stringIcSt11char_traitsIcESaIcEEEiELb0ELb1EEptEv"
 "_ZNKSt8__detail15_Hash_code_baseIdSt4pairIKdiENS_10_Select1stESt4hashIdENS_18_Mod_range_hashingENS_20_Default_ranged_hashELb0EE12_M_hash_codeERS2_"
 "_ZNKSt8__detail15_Hash_code_baseIdSt4pairIKdiENS_10_Select1stESt4hashIdENS_18_Mod_range_hashingENS_20_Default_ranged_hashELb0EE13_M_store_codeERNS_21_Hash_node_code_cacheILb0EEEy"
 "_ZNKSt8__detail15_Hash_code_baseIdSt4pairIKdiENS_10_Select1stESt4hashIdENS_18_Mod_range_hashingENS_20_Default_ranged_hashELb0EE15_M_bucket_indexERKNS_16_Hash_node_valueIS3_Lb0EEEy"
 "_ZNKSt8__detail15_Hash_code_baseIdSt4pairIKdiENS_10_Select1stESt4hashIdENS_18_Mod_range_hashingENS_20_Default_ranged_hashELb0EE15_M_bucket_indexEyy"
 "_ZNKSt8__detail15_Hash_code_baseIdSt4pairIKdiENS_10_Select1stESt4hashIdENS_18_Mod_range_hashingENS_20_Default_ranged_hashELb0EE7_M_hashEv"
 "_ZNKSt8__detail15_Hash_code_baseIiiNS_9_IdentityESt4hashIiENS_18_Mod_range_hashingENS_20_Default_ranged_hashELb0EE12_M_hash_codeERKi"
 "_ZNKSt8__detail15_Hash_code_baseIiiNS_9_IdentityESt4hashIiENS_18_Mod_range_hashingENS_20_Default_ranged_hashELb0EE13_M_store_codeERNS_21_Hash_node_code_cacheILb0EEEy"
 "_ZNKSt8__detail15_Hash_code_baseIiiNS_9_IdentityESt4hashIiENS_18_Mod_range_hashingENS_20_Default_ranged_hashELb0EE15_M_bucket_indexERKNS_16_Hash_node_valueIiLb0EEEy"
 "_ZNKSt8__detail15_Hash_code_baseIiiNS_9_IdentityESt4hashIiENS_18_Mod_range_hashingENS_20_Default_ranged_hashELb0EE15_M_bucket_indexEyy"
 "_ZNKSt8__detail15_Hash_code_baseIiiNS_9_IdentityESt4hashIiENS_18_Mod_range_hashingENS_20_Default_ranged_hashELb0EE15_M_hash_code_trIiEEyRKT_"
 "_ZNKSt8__detail15_Hash_code_baseIiiNS_9_IdentityESt4hashIiENS_18_Mod_range_hashingENS_20_Default_ranged_hashELb0EE7_M_hashEv"
 "_ZNKSt8__detail15_Hash_code_baseINSt7__cxx1112basic_stringIcSt11char_traitsIcESaIcEEESt4pairIKS6_iENS_10_Select1stESt4hashIS6_ENS_18_Mod_range_hashingENS_20_Default_ranged_hashELb1EE12_M_hash_codeERS8_"
 "_ZNKSt8__detail15_Hash_code_baseINSt7__cxx1112basic_stringIcSt11char_traitsIcESaIcEEESt4pairIKS6_iENS_10_Select1stESt4hashIS6_ENS_18_Mod_range_hashingENS_20_Default_ranged_hashELb1EE13_M_store_codeERNS_21_Hash_node_code_cacheILb1EEEy"
 "_ZNKSt8__detail15_Hash_code_baseINSt7__cxx1112basic_stringIcSt11char_traitsIcESaIcEEESt4pairIKS6_iENS_10_Select1stESt4hashIS6_ENS_18_Mod_range_hashingENS_20_Default_ranged_hashELb1EE15_M_bucket_indexERKNS_16_Hash_node_valueIS9_Lb1EEEy"
 "_ZNKSt8__detail15_Hash_code_baseINSt7__cxx1112basic_stringIcSt11char_traitsIcESaIcEEESt4pairIKS6_iENS_10_Select1stESt4hashIS6_ENS_18_Mod_range_hashingENS_20_Default_ranged_hashELb1EE15_M_bucket_indexEyy"
 "_ZNKSt8__detail15_Hash_code_baseINSt7__cxx1112basic_stringIcSt11char_traitsIcESaIcEEESt4pairIKS6_iENS_10_Select1stESt4hashIS6_ENS_18_Mod_range_hashingENS_20_Default_ranged_hashELb1EE7_M_hashEv"
 "_ZNKSt8__detail15_Hashtable_baseIdSt4pairIKdiENS_10_Select1stESt8equal_toIdESt4hashIdENS_18_Mod_range_hashingENS_20_Default_ranged_hashENS_17_Hashtable_traitsILb0ELb0ELb1EEEE13_M_key_equalsERS2_RKNS_16_Hash_node_valueIS3_Lb0EEE"
 "_ZNKSt8__detail15_Hashtable_baseIdSt4pairIKdiENS_10_Select1stESt8equal_toIdESt4hashIdENS_18_Mod_range_hashingENS_20_Default_ranged_hashENS_17_Hashtable_traitsILb0ELb0ELb1EEEE5_M_eqEv"
 "_ZNKSt8__detail15_Hashtable_baseIdSt4pairIKdiENS_10_Select1stESt8equal_toIdESt4hashIdENS_18_Mod_range_hashingENS_20_Default_ranged_hashENS_17_Hashtable_traitsILb0ELb0ELb1EEEE9_M_equalsERS2_yRKNS_16_Hash_node_valueIS3_Lb0EEE"
 "_ZNKSt8__detail15_Hashtable_baseIiiNS_9_IdentityESt8equal_toIiESt4hashIiENS_18_Mod_range_hashingENS_20_Default_ranged_hashENS_17_Hashtable_traitsILb0ELb1ELb1EEEE12_M_equals_trIiEEbRKT_yRKNS_16_Hash_node_valueIiLb0EEE"
 "_ZNKSt8__detail15_Hashtable_baseIiiNS_9_IdentityESt8equal_toIiESt4hashIiENS_18_Mod_range_hashingENS_20_Default_ranged_hashENS_17_Hashtable_traitsILb0ELb1ELb1EEEE16_M_key_equals_trIiEEbRKT_RKNS_16_Hash_node_valueIiLb0EEE"
 "_ZNKSt8__detail15_Hashtable_baseIiiNS_9_IdentityESt8equal_toIiESt4hashIiENS_18_Mod_range_hashingENS_20_Default_ranged_hashENS_17_Hashtable_traitsILb0ELb1ELb1EEEE5_M_eqEv"
 "_ZNKSt8__detail15_Hashtable_baseINSt7__cxx1112basic_stringIcSt11char_traitsIcESaIcEEESt4pairIKS6_iENS_10_Select1stESt8equal_toIS6_ESt4hashIS6_ENS_18_Mod_range_hashingENS_20_Default_ranged_hashENS_17_Hashtable_traitsILb1ELb0ELb1EEEE13_M_key_equalsERS8_RKNS_16_Hash_node_valueIS9_Lb1EEE"
 "_ZNKSt8__detail15_Hashtable_baseINSt7__cxx1112basic_stringIcSt11char_traitsIcESaIcEEESt4pairIKS6_iENS_10_Select1stESt8equal_toIS6_ESt4hashIS6_ENS_18_Mod_range_hashingENS_20_Default_ranged_hashENS_17_Hashtable_traitsILb1ELb0ELb1EEEE5_M_eqEv"
 "_ZNKSt8__detail15_Hashtable_baseINSt7__cxx1112basic_stringIcSt11char_traitsIcESaIcEEESt4pairIKS6_iENS_10_Select1stESt8equal_toIS6_ESt4hashIS6_ENS_18_Mod_range_hashingENS_20_Default_ranged_hashENS_17_Hashtable_traitsILb1ELb0ELb1EEEE9_M_equalsERS8_yRKNS_16_Hash_node_valueIS9_Lb1EEE"
 "_ZNKSt8__detail18_Mod_range_hashingclEyy"
 "_ZNKSt8__detail20_Prime_rehash_policy8_M_stateEv"
 "_ZNKSt8__detail21_Hashtable_ebo_helperILi0ESt8equal_toIdELb1EE7_M_cgetEv"
 "_ZNKSt8__detail21_Hashtable_ebo_helperILi0ESt8equal_toIiELb1EE7_M_cgetEv"
 "_ZNKSt8__detail21_Hashtable_ebo_helperILi0ESt8equal_toINSt7__cxx1112basic_stringIcSt11char_traitsIcESaIcEEEELb1EE7_M_cgetEv"
 "_ZNKSt8__detail21_Hashtable_ebo_helperILi1ESt4hashIdELb1EE7_M_cgetEv"
 "_ZNKSt8__detail21_Hashtable_ebo_helperILi1ESt4hashIiELb1EE7_M_cgetEv"
 "_ZNKSt8__detail21_Hashtable_ebo_helperILi1ESt4hashINSt7__cxx1112basic_stringIcSt11char_traitsIcESaIcEEEELb1EE7_M_cgetEv"
 "_ZNKSt8__detail9_IdentityclIRKiEEOT_S5_"
 "_ZNKSt8equal_toIdEclERKdS2_"
 "_ZNKSt8equal_toIiEclERKiS2_"
 "_ZNKSt8equal_toINSt7__cxx1112basic_stringIcSt11char_traitsIcESaIcEEEEclERKS5_S8_"
 "_ZNSt10_Hash_impl4hashEPKvyy"
 "_ZNSt10_Hash_impl4hashIdEEyRKT_"
 "_ZNSt10_HashtableIdSt4pairIKdiESaIS2_ENSt8__detail10_Select1stESt8equal_toIdESt4hashIdENS4_18_Mod_range_hashingENS4_20_Default_ranged_hashENS4_20_Prime_rehash_policyENS4_17_Hashtable_traitsILb0ELb0ELb1EEEE12_Scoped_nodeC1IJRKSt21piecewise_construct_tSt5tupleIJRS1_EESL_IJEEEEEPNS4_16_Hashtable_allocISaINS4_10_Hash_nodeIS2_Lb0EEEEEEDpOT_"
 "_ZNSt10_HashtableIdSt4pairIKdiESaIS2_ENSt8__detail10_Select1stESt8equal_toIdESt4hashIdENS4_18_Mod_range_hashingENS4_20_Default_ranged_hashENS4_20_Prime_rehash_policyENS4_17_Hashtable_traitsILb0ELb0ELb1EEEE12_Scoped_nodeD1Ev"
 "_ZNSt10_HashtableIdSt4pairIKdiESaIS2_ENSt8__detail10_Select1stESt8equal_toIdESt4hashIdENS4_18_Mod_range_hashingENS4_20_Default_ranged_hashENS4_20_Prime_rehash_policyENS4_17_Hashtable_traitsILb0ELb0ELb1EEEE19_M_allocate_bucketsEy"
 "_ZNSt10_HashtableIdSt4pairIKdiESaIS2_ENSt8__detail10_Select1stESt8equal_toIdESt4hashIdENS4_18_Mod_range_hashingENS4_20_Default_ranged_hashENS4_20_Prime_rehash_policyENS4_17_Hashtable_traitsILb0ELb0ELb1EEEE21_M_deallocate_bucketsEPPNS4_15_Hash_node_baseEy"
 "_ZNSt10_HashtableIdSt4pairIKdiESaIS2_ENSt8__detail10_Select1stESt8equal_toIdESt4hashIdENS4_18_Mod_range_hashingENS4_20_Default_ranged_hashENS4_20_Prime_rehash_policyENS4_17_Hashtable_traitsILb0ELb0ELb1EEEE21_M_deallocate_bucketsEv"
 "_ZNSt10_HashtableIdSt4pairIKdiESaIS2_ENSt8__detail10_Select1stESt8equal_toIdESt4hashIdENS4_18_Mod_range_hashingENS4_20_Default_ranged_hashENS4_20_Prime_rehash_policyENS4_17_Hashtable_traitsILb0ELb0ELb1EEEE21_M_insert_unique_nodeEyyPNS4_10_Hash_nodeIS2_Lb0EEEy"
 "_ZNSt10_HashtableIdSt4pairIKdiESaIS2_ENSt8__detail10_Select1stESt8equal_toIdESt4hashIdENS4_18_Mod_range_hashingENS4_20_Default_ranged_hashENS4_20_Prime_rehash_policyENS4_17_Hashtable_traitsILb0ELb0ELb1EEEE22_M_insert_bucket_beginEyPNS4_10_Hash_nodeIS2_Lb0EEE"
 "_ZNSt10_HashtableIdSt4pairIKdiESaIS2_ENSt8__detail10_Select1stESt8equal_toIdESt4hashIdENS4_18_Mod_range_hashingENS4_20_Default_ranged_hashENS4_20_Prime_rehash_policyENS4_17_Hashtable_traitsILb0ELb0ELb1EEEE3endEv"
 "_ZNSt10_HashtableIdSt4pairIKdiESaIS2_ENSt8__detail10_Select1stESt8equal_toIdESt4hashIdENS4_18_Mod_range_hashingENS4_20_Default_ranged_hashENS4_20_Prime_rehash_policyENS4_17_Hashtable_traitsILb0ELb0ELb1EEEE5beginEv"
 "_ZNSt10_HashtableIdSt4pairIKdiESaIS2_ENSt8__detail10_Select1stESt8equal_toIdESt4hashIdENS4_18_Mod_range_hashingENS4_20_Default_ranged_hashENS4_20_Prime_rehash_policyENS4_17_Hashtable_traitsILb0ELb0ELb1EEEE5clearEv"
 "_ZNSt10_HashtableIdSt4pairIKdiESaIS2_ENSt8__detail10_Select1stESt8equal_toIdESt4hashIdENS4_18_Mod_range_hashingENS4_20_Default_ranged_hashENS4_20_Prime_rehash_policyENS4_17_Hashtable_traitsILb0ELb0ELb1EEEE9_M_rehashEySt17integral_constantIbLb1EE"
 "_ZNSt10_HashtableIdSt4pairIKdiESaIS2_ENSt8__detail10_Select1stESt8equal_toIdESt4hashIdENS4_18_Mod_range_hashingENS4_20_Default_ranged_hashENS4_20_Prime_rehash_policyENS4_17_Hashtable_traitsILb0ELb0ELb1EEEEC1Ev"
 "_ZNSt10_HashtableIdSt4pairIKdiESaIS2_ENSt8__detail10_Select1stESt8equal_toIdESt4hashIdENS4_18_Mod_range_hashingENS4_20_Default_ranged_hashENS4_20_Prime_rehash_policyENS4_17_Hashtable_traitsILb0ELb0ELb1EEEED1Ev"
 "_ZNSt10_HashtableIiiSaIiENSt8__detail9_IdentityESt8equal_toIiESt4hashIiENS1_18_Mod_range_hashingENS1_20_Default_ranged_hashENS1_20_Prime_rehash_policyENS1_17_Hashtable_traitsILb0ELb1ELb1EEEE12_Scoped_nodeC1EPNS1_10_Hash_nodeIiLb0EEEPNS1_16_Hashtable_allocISaISF_EEE"
 "_ZNSt10_HashtableIiiSaIiENSt8__detail9_IdentityESt8equal_toIiESt4hashIiENS1_18_Mod_range_hashingENS1_20_Default_ranged_hashENS1_20_Prime_rehash_policyENS1_17_Hashtable_traitsILb0ELb1ELb1EEEE12_Scoped_nodeD1Ev"
 "_ZNSt10_HashtableIiiSaIiENSt8__detail9_IdentityESt8equal_toIiESt4hashIiENS1_18_Mod_range_hashingENS1_20_Default_ranged_hashENS1_20_Prime_rehash_policyENS1_17_Hashtable_traitsILb0ELb1ELb1EEEE16_M_insert_uniqueIRKiSF_NS1_10_AllocNodeISaINS1_10_Hash_nodeIiLb0EEEEEEEESt4pairINS1_14_Node_iteratorIiLb1ELb0EEEbEOT_OT0_RKT1_"
 "_ZNSt10_HashtableIiiSaIiENSt8__detail9_IdentityESt8equal_toIiESt4hashIiENS1_18_Mod_range_hashingENS1_20_Default_ranged_hashENS1_20_Prime_rehash_policyENS1_17_Hashtable_traitsILb0ELb1ELb1EEEE19_M_allocate_bucketsEy"
 "_ZNSt10_HashtableIiiSaIiENSt8__detail9_IdentityESt8equal_toIiESt4hashIiENS1_18_Mod_range_hashingENS1_20_Default_ranged_hashENS1_20_Prime_rehash_policyENS1_17_Hashtable_traitsILb0ELb1ELb1EEEE20_M_insert_unique_auxIRKiNS1_10_AllocNodeISaINS1_10_Hash_nodeIiLb0EEEEEEEESt4pairINS1_14_Node_iteratorIiLb1ELb0EEEbEOT_RKT0_"
 "_ZNSt10_HashtableIiiSaIiENSt8__detail9_IdentityESt8equal_toIiESt4hashIiENS1_18_Mod_range_hashingENS1_20_Default_ranged_hashENS1_20_Prime_rehash_policyENS1_17_Hashtable_traitsILb0ELb1ELb1EEEE21_M_deallocate_bucketsEPPNS1_15_Hash_node_baseEy"
 "_ZNSt10_HashtableIiiSaIiENSt8__detail9_IdentityESt8equal_toIiESt4hashIiENS1_18_Mod_range_hashingENS1_20_Default_ranged_hashENS1_20_Prime_rehash_policyENS1_17_Hashtable_traitsILb0ELb1ELb1EEEE21_M_deallocate_bucketsEv"
 "_ZNSt10_HashtableIiiSaIiENSt8__detail9_IdentityESt8equal_toIiESt4hashIiENS1_18_Mod_range_hashingENS1_20_Default_ranged_hashENS1_20_Prime_rehash_policyENS1_17_Hashtable_traitsILb0ELb1ELb1EEEE21_M_insert_unique_nodeEyyPNS1_10_Hash_nodeIiLb0EEEy"
 "_ZNSt10_HashtableIiiSaIiENSt8__detail9_IdentityESt8equal_toIiESt4hashIiENS1_18_Mod_range_hashingENS1_20_Default_ranged_hashENS1_20_Prime_rehash_policyENS1_17_Hashtable_traitsILb0ELb1ELb1EEEE22__small_size_thresholdEv"
 "_ZNSt10_HashtableIiiSaIiENSt8__detail9_IdentityESt8equal_toIiESt4hashIiENS1_18_Mod_range_hashingENS1_20_Default_ranged_hashENS1_20_Prime_rehash_policyENS1_17_Hashtable_traitsILb0ELb1ELb1EEEE22_M_insert_bucket_beginEyPNS1_10_Hash_nodeIiLb0EEE"
 "_ZNSt10_HashtableIiiSaIiENSt8__detail9_IdentityESt8equal_toIiESt4hashIiENS1_18_Mod_range_hashingENS1_20_Default_ranged_hashENS1_20_Prime_rehash_policyENS1_17_Hashtable_traitsILb0ELb1ELb1EEEE3endEv"
 "_ZNSt10_HashtableIiiSaIiENSt8__detail9_IdentityESt8equal_toIiESt4hashIiENS1_18_Mod_range_hashingENS1_20_Default_ranged_hashENS1_20_Prime_rehash_policyENS1_17_Hashtable_traitsILb0ELb1ELb1EEEE5beginEv"
 "_ZNSt10_HashtableIiiSaIiENSt8__detail9_IdentityESt8equal_toIiESt4hashIiENS1_18_Mod_range_hashingENS1_20_Default_ranged_hashENS1_20_Prime_rehash_policyENS1_17_Hashtable_traitsILb0ELb1ELb1EEEE5clearEv"
 "_ZNSt10_HashtableIiiSaIiENSt8__detail9_IdentityESt8equal_toIiESt4hashIiENS1_18_Mod_range_hashingENS1_20_Default_ranged_hashENS1_20_Prime_rehash_policyENS1_17_Hashtable_traitsILb0ELb1ELb1EEEE9_M_insertIRKiNS1_10_AllocNodeISaINS1_10_Hash_nodeIiLb0EEEEEEEESt4pairINS1_14_Node_iteratorIiLb1ELb0EEEbEOT_RKT0_St17integral_constantIbLb1EE"
 "_ZNSt10_HashtableIiiSaIiENSt8__detail9_IdentityESt8equal_toIiESt4hashIiENS1_18_Mod_range_hashingENS1_20_Default_ranged_hashENS1_20_Prime_rehash_policyENS1_17_Hashtable_traitsILb0ELb1ELb1EEEE9_M_rehashEySt17integral_constantIbLb1EE"
 "_ZNSt10_HashtableIiiSaIiENSt8__detail9_IdentityESt8equal_toIiESt4hashIiENS1_18_Mod_range_hashingENS1_20_Default_ranged_hashENS1_20_Prime_rehash_policyENS1_17_Hashtable_traitsILb0ELb1ELb1EEEEC1Ev"
 "_ZNSt10_HashtableIiiSaIiENSt8__detail9_IdentityESt8equal_toIiESt4hashIiENS1_18_Mod_range_hashingENS1_20_Default_ranged_hashENS1_20_Prime_rehash_policyENS1_17_Hashtable_traitsILb0ELb1ELb1EEEED1Ev"
 "_ZNSt10_HashtableINSt7__cxx1112basic_stringIcSt11char_traitsIcESaIcEEESt4pairIKS5_iESaIS8_ENSt8__detail10_Select1stESt8equal_toIS5_ESt4hashIS5_ENSA_18_Mod_range_hashingENSA_20_Default_ranged_hashENSA_20_Prime_rehash_policyENSA_17_Hashtable_traitsILb1ELb0ELb1EEEE12_Scoped_nodeC1IJRKSt21piecewise_construct_tSt5tupleIJRS7_EESR_IJEEEEEPNSA_16_Hashtable_allocISaINSA_10_Hash_nodeIS8_Lb1EEEEEEDpOT_"
 "_ZNSt10_HashtableINSt7__cxx1112basic_stringIcSt11char_traitsIcESaIcEEESt4pairIKS5_iESaIS8_ENSt8__detail10_Select1stESt8equal_toIS5_ESt4hashIS5_ENSA_18_Mod_range_hashingENSA_20_Default_ranged_hashENSA_20_Prime_rehash_policyENSA_17_Hashtable_traitsILb1ELb0ELb1EEEE12_Scoped_nodeD1Ev"
 "_ZNSt10_HashtableINSt7__cxx1112basic_stringIcSt11char_traitsIcESaIcEEESt4pairIKS5_iESaIS8_ENSt8__detail10_Select1stESt8equal_toIS5_ESt4hashIS5_ENSA_18_Mod_range_hashingENSA_20_Default_ranged_hashENSA_20_Prime_rehash_policyENSA_17_Hashtable_traitsILb1ELb0ELb1EEEE19_M_allocate_bucketsEy"
 "_ZNSt10_HashtableINSt7__cxx1112basic_stringIcSt11char_traitsIcESaIcEEESt4pairIKS5_iESaIS8_ENSt8__detail10_Select1stESt8equal_toIS5_ESt4hashIS5_ENSA_18_Mod_range_hashingENSA_20_Default_ranged_hashENSA_20_Prime_rehash_policyENSA_17_Hashtable_traitsILb1ELb0ELb1EEEE21_M_deallocate_bucketsEPPNSA_15_Hash_node_baseEy"
 "_ZNSt10_HashtableINSt7__cxx1112basic_stringIcSt11char_traitsIcESaIcEEESt4pairIKS5_iESaIS8_ENSt8__detail10_Select1stESt8equal_toIS5_ESt4hashIS5_ENSA_18_Mod_range_hashingENSA_20_Default_ranged_hashENSA_20_Prime_rehash_policyENSA_17_Hashtable_traitsILb1ELb0ELb1EEEE21_M_deallocate_bucketsEv"
 "_ZNSt10_HashtableINSt7__cxx1112basic_stringIcSt11char_traitsIcESaIcEEESt4pairIKS5_iESaIS8_ENSt8__detail10_Select1stESt8equal_toIS5_ESt4hashIS5_ENSA_18_Mod_range_hashingENSA_20_Default_ranged_hashENSA_20_Prime_rehash_policyENSA_17_Hashtable_traitsILb1ELb0ELb1EEEE21_M_insert_unique_nodeEyyPNSA_10_Hash_nodeIS8_Lb1EEEy"
 "_ZNSt10_HashtableINSt7__cxx1112basic_stringIcSt11char_traitsIcESaIcEEESt4pairIKS5_iESaIS8_ENSt8__detail10_Select1stESt8equal_toIS5_ESt4hashIS5_ENSA_18_Mod_range_hashingENSA_20_Default_ranged_hashENSA_20_Prime_rehash_policyENSA_17_Hashtable_traitsILb1ELb0ELb1EEEE22_M_insert_bucket_beginEyPNSA_10_Hash_nodeIS8_Lb1EEE"
 "_ZNSt10_HashtableINSt7__cxx1112basic_stringIcSt11char_traitsIcESaIcEEESt4pairIKS5_iESaIS8_ENSt8__detail10_Select1stESt8equal_toIS5_ESt4hashIS5_ENSA_18_Mod_range_hashingENSA_20_Default_ranged_hashENSA_20_Prime_rehash_policyENSA_17_Hashtable_traitsILb1ELb0ELb1EEEE3endEv"
 "_ZNSt10_HashtableINSt7__cxx1112basic_stringIcSt11char_traitsIcESaIcEEESt4pairIKS5_iESaIS8_ENSt8__detail10_Select1stESt8equal_toIS5_ESt4hashIS5_ENSA_18_Mod_range_hashingENSA_20_Default_ranged_hashENSA_20_Prime_rehash_policyENSA_17_Hashtable_traitsILb1ELb0ELb1EEEE5beginEv"
 "_ZNSt10_HashtableINSt7__cxx1112basic_stringIcSt11char_traitsIcESaIcEEESt4pairIKS5_iESaIS8_ENSt8__detail10_Select1stESt8equal_toIS5_ESt4hashIS5_ENSA_18_Mod_range_hashingENSA_20_Default_ranged_hashENSA_20_Prime_rehash_policyENSA_17_Hashtable_traitsILb1ELb0ELb1EEEE5clearEv"
 "_ZNSt10_HashtableINSt7__cxx1112basic_stringIcSt11char_traitsIcESaIcEEESt4pairIKS5_iESaIS8_ENSt8__detail10_Select1stESt8equal_toIS5_ESt4hashIS5_ENSA_18_Mod_range_hashingENSA_20_Default_ranged_hashENSA_20_Prime_rehash_policyENSA_17_Hashtable_traitsILb1ELb0ELb1EEEE9_M_rehashEySt17integral_constantIbLb1EE"
 "_ZNSt10_HashtableINSt7__cxx1112basic_stringIcSt11char_traitsIcESaIcEEESt4pairIKS5_iESaIS8_ENSt8__detail10_Select1stESt8equal_toIS5_ESt4hashIS5_ENSA_18_Mod_range_hashingENSA_20_Default_ranged_hashENSA_20_Prime_rehash_policyENSA_17_Hashtable_traitsILb1ELb0ELb1EEEEC1Ev"
 "_ZNSt10_HashtableINSt7__cxx1112basic_stringIcSt11char_traitsIcESaIcEEESt4pairIKS5_iESaIS8_ENSt8__detail10_Select1stESt8equal_toIS5_ESt4hashIS5_ENSA_18_Mod_range_hashingENSA_20_Default_ranged_hashENSA_20_Prime_rehash_policyENSA_17_Hashtable_traitsILb1ELb0ELb1EEEED1Ev"
 "_ZNSt10_Head_baseILy0ERKdLb0EE7_M_headERS2_"
 "_ZNSt10_Head_baseILy0ERKdLb0EEC2ES1_"
 "_ZNSt10_Head_baseILy0ERKNSt7__cxx1112basic_stringIcSt11char_traitsIcESaIcEEELb0EE7_M_headERS8_"
 "_ZNSt10_Head_baseILy0ERKNSt7__cxx1112basic_stringIcSt11char_traitsIcESaIcEEELb0EEC2ES7_"
 "_ZNSt11__copy_moveILb0ELb0ESt20forward_iterator_tagE8__copy_mINSt8__detail14_Node_iteratorIiLb1ELb0EEEPiEET0_T_S8_S7_"
 "_ZNSt11__copy_moveILb0ELb0ESt26random_access_iterator_tagE12__assign_oneIddEEvPT_PT0_"
 "_ZNSt11__copy_moveILb0ELb0ESt26random_access_iterator_tagE12__assign_oneIdKdEEvPT_PT0_"
 "_ZNSt11__copy_moveILb0ELb0ESt26random_access_iterator_tagE8__copy_mIPKSt6vectorIdSaIdEEPS5_EET0_T_SA_S9_"
 "_ZNSt11__copy_moveILb0ELb0ESt26random_access_iterator_tagE8__copy_mIPSt6vectorIdSaIdEES6_EET0_T_S8_S7_"
 "_ZNSt11__copy_moveILb0ELb1ESt26random_access_iterator_tagE8__copy_mIddEEPT0_PT_S6_S4_"
 "_ZNSt11__copy_moveILb0ELb1ESt26random_access_iterator_tagE8__copy_mIKddEEPT0_PT_S7_S5_"
 "_ZNSt11__copy_moveILb1ELb0ESt26random_access_iterator_tagE12__assign_oneIddEEvPT_PT0_"
 "_ZNSt11_Tuple_implILy0EJRKdEE7_M_headERS2_"
 "_ZNSt11_Tuple_implILy0EJRKdEEC2EOS2_"
 "_ZNSt11_Tuple_implILy0EJRKdEEC2ES1_"
 "_ZNSt11_Tuple_implILy0EJRKNSt7__cxx1112basic_stringIcSt11char_traitsIcESaIcEEEEE7_M_headERS8_"
 "_ZNSt11_Tuple_implILy0EJRKNSt7__cxx1112basic_stringIcSt11char_traitsIcESaIcEEEEEC2EOS8_"
 "_ZNSt11_Tuple_implILy0EJRKNSt7__cxx1112basic_stringIcSt11char_traitsIcESaIcEEEEEC2ES7_"
 "_ZNSt11char_traitsIcE2ltERKcS2_"
 "_ZNSt11char_traitsIcE7compareEPKcS2_y"
 "_ZNSt12_Destroy_auxILb0EE9__destroyIN9__gnu_cxx17__normal_iteratorIPSt6vectorIdSaIdEES4_IS6_SaIS6_EEEEEEvT_SB_"
 "_ZNSt12_Destroy_auxILb0EE9__destroyIPSt6vectorIdSaIdEEEEvT_S6_"
 "_ZNSt12_Destroy_auxILb1EE9__destroyIN9__gnu_cxx17__normal_iteratorIPdSt6vectorIdSaIdEEEEEEvT_S9_"
 "_ZNSt12_Destroy_auxILb1EE9__destroyIPdEEvT_S3_"
 "_ZNSt12_Destroy_auxILb1EE9__destroyIPiEEvT_S3_"
 "_ZNSt12_Vector_baseIdSaIdEE11_M_allocateEy"
 "_ZNSt12_Vector_baseIdSaIdEE12_Vector_implC1EOS2_"
 "_ZNSt12_Vector_baseIdSaIdEE12_Vector_implC1ERKS0_"
 "_ZNSt12_Vector_baseIdSaIdEE12_Vector_implC1Ev"
 "_ZNSt12_Vector_baseIdSaIdEE12_Vector_implD1Ev"
 "_ZNSt12_Vector_baseIdSaIdEE13_M_deallocateEPdy"
 "_ZNSt12_Vector_baseIdSaIdEE17_M_create_storageEy"
 "_ZNSt12_Vector_baseIdSaIdEE17_Vector_impl_dataC2EOS2_"
 "_ZNSt12_Vector_baseIdSaIdEE17_Vector_impl_dataC2Ev"
 "_ZNSt12_Vector_baseIdSaIdEE19_M_get_Tp_allocatorEv"
 "_ZNSt12_Vector_baseIdSaIdEEC2EOS1_"
 "_ZNSt12_Vector_baseIdSaIdEEC2Ev"
 "_ZNSt12_Vector_baseIdSaIdEEC2EyRKS0_"
 "_ZNSt12_Vector_baseIdSaIdEED2Ev"
 "_ZNSt12_Vector_baseIiSaIiEE11_M_allocateEy"
 "_ZNSt12_Vector_baseIiSaIiEE12_Vector_implC1ERKS0_"
 "_ZNSt12_Vector_baseIiSaIiEE12_Vector_implD1Ev"
 "_ZNSt12_Vector_baseIiSaIiEE13_M_deallocateEPiy"
 "_ZNSt12_Vector_baseIiSaIiEE17_Vector_impl_dataC2Ev"
 "_ZNSt12_Vector_baseIiSaIiEE19_M_get_Tp_allocatorEv"
 "_ZNSt12_Vector_baseIiSaIiEEC2ERKS0_"
 "_ZNSt12_Vector_baseIiSaIiEED2Ev"
 "_ZNSt12_Vector_baseISt6vectorIdSaIdEESaIS2_EE11_M_allocateEy"
 "_ZNSt12_Vector_baseISt6vectorIdSaIdEESaIS2_EE12_Vector_implC1ERKS3_"
 "_ZNSt12_Vector_baseISt6vectorIdSaIdEESaIS2_EE12_Vector_implC1Ev"
 "_ZNSt12_Vector_baseISt6vectorIdSaIdEESaIS2_EE12_Vector_implD1Ev"
 "_ZNSt12_Vector_baseISt6vectorIdSaIdEESaIS2_EE13_M_deallocateEPS2_y"
 "_ZNSt12_Vector_baseISt6vectorIdSaIdEESaIS2_EE17_M_create_storageEy"
 "_ZNSt12_Vector_baseISt6vectorIdSaIdEESaIS2_EE17_Vector_impl_dataC2Ev"
 "_ZNSt12_Vector_baseISt6vectorIdSaIdEESaIS2_EE19_M_get_Tp_allocatorEv"
 "_ZNSt12_Vector_baseISt6vectorIdSaIdEESaIS2_EEC2Ev"
 "_ZNSt12_Vector_baseISt6vectorIdSaIdEESaIS2_EEC2EyRKS3_"
 "_ZNSt12_Vector_baseISt6vectorIdSaIdEESaIS2_EED2Ev"
 "_ZNSt13unordered_mapIdiSt4hashIdESt8equal_toIdESaISt4pairIKdiEEE3endEv"
 "_ZNSt13unordered_mapIdiSt4hashIdESt8equal_toIdESaISt4pairIKdiEEE5beginEv"
 "_ZNSt13unordered_mapIdiSt4hashIdESt8equal_toIdESaISt4pairIKdiEEEC1Ev"
 "_ZNSt13unordered_mapIdiSt4hashIdESt8equal_toIdESaISt4pairIKdiEEED1Ev"
 "_ZNSt13unordered_mapIdiSt4hashIdESt8equal_toIdESaISt4pairIKdiEEEixERS5_"
 "_ZNSt13unordered_mapINSt7__cxx1112basic_stringIcSt11char_traitsIcESaIcEEEiSt4hashIS5_ESt8equal_toIS5_ESaISt4pairIKS5_iEEE3endEv"
 "_ZNSt13unordered_mapINSt7__cxx1112basic_stringIcSt11char_traitsIcESaIcEEEiSt4hashIS5_ESt8equal_toIS5_ESaISt4pairIKS5_iEEE5beginEv"
 "_ZNSt13unordered_mapINSt7__cxx1112basic_stringIcSt11char_traitsIcESaIcEEEiSt4hashIS5_ESt8equal_toIS5_ESaISt4pairIKS5_iEEEC1Ev"
 "_ZNSt13unordered_mapINSt7__cxx1112basic_stringIcSt11char_traitsIcESaIcEEEiSt4hashIS5_ESt8equal_toIS5_ESaISt4pairIKS5_iEEED1Ev"
 "_ZNSt13unordered_mapINSt7__cxx1112basic_stringIcSt11char_traitsIcESaIcEEEiSt4hashIS5_ESt8equal_toIS5_ESaISt4pairIKS5_iEEEixERSB_"
 "_ZNSt13unordered_setIiSt4hashIiESt8equal_toIiESaIiEE3endEv"
 "_ZNSt13unordered_setIiSt4hashIiESt8equal_toIiESaIiEE5beginEv"
 "_ZNSt13unordered_setIiSt4hashIiESt8equal_toIiESaIiEE6insertIN9__gnu_cxx17__normal_iteratorIPKiSt6vectorIiS4_EEEEEvT_SE_"
 "_ZNSt13unordered_setIiSt4hashIiESt8equal_toIiESaIiEEC1Ev"
 "_ZNSt13unordered_setIiSt4hashIiESt8equal_toIiESaIiEED1Ev"
 "_ZNSt14numeric_limitsIdE9quiet_NaNEv"
 "_ZNSt15__new_allocatorIcED2Ev"
 "_ZNSt15__new_allocatorIdE10deallocateEPdy"
 "_ZNSt15__new_allocatorIdE8allocateEyPKv"
 "_ZNSt15__new_allocatorIdED2Ev"
 "_ZNSt15__new_allocatorIiE10deallocateEPiy"
 "_ZNSt15__new_allocatorIiE8allocateEyPKv"
 "_ZNSt15__new_allocatorIiED2Ev"
 "_ZNSt15__new_allocatorINSt8__detail10_Hash_nodeIiLb0EEEE10deallocateEPS2_y"
 "_ZNSt15__new_allocatorINSt8__detail10_Hash_nodeIiLb0EEEE8allocateEyPKv"
 "_ZNSt15__new_allocatorINSt8__detail10_Hash_nodeIiLb0EEEED2Ev"
 "_ZNSt15__new_allocatorINSt8__detail10_Hash_nodeISt4pairIKdiELb0EEEE10deallocateEPS5_y"
 "_ZNSt15__new_allocatorINSt8__detail10_Hash_nodeISt4pairIKdiELb0EEEE8allocateEyPKv"
 "_ZNSt15__new_allocatorINSt8__detail10_Hash_nodeISt4pairIKdiELb0EEEED2Ev"
 "_ZNSt15__new_allocatorINSt8__detail10_Hash_nodeISt4pairIKNSt7__cxx1112basic_stringIcSt11char_traitsIcESaIcEEEiELb1EEEE10deallocateEPSB_y"
 "_ZNSt15__new_allocatorINSt8__detail10_Hash_nodeISt4pairIKNSt7__cxx1112basic_stringIcSt11char_traitsIcESaIcEEEiELb1EEEE8allocateEyPKv"
 "_ZNSt15__new_allocatorINSt8__detail10_Hash_nodeISt4pairIKNSt7__cxx1112basic_stringIcSt11char_traitsIcESaIcEEEiELb1EEEED2Ev"
 "_ZNSt15__new_allocatorIPNSt8__detail15_Hash_node_baseEE10deallocateEPS2_y"
 "_ZNSt15__new_allocatorIPNSt8__detail15_Hash_node_baseEE8allocateEyPKv"
 "_ZNSt15__new_allocatorIPNSt8__detail15_Hash_node_baseEED2Ev"
 "_ZNSt15__new_allocatorISt6vectorIdSaIdEEE10deallocateEPS2_y"
 "_ZNSt15__new_allocatorISt6vectorIdSaIdEEE8allocateEyPKv"
 "_ZNSt15__new_allocatorISt6vectorIdSaIdEEED2Ev"
 "_ZNSt19__ptr_traits_ptr_toIPNSt8__detail10_Hash_nodeIiLb0EEES2_Lb0EE10pointer_toERS2_"
 "_ZNSt19__ptr_traits_ptr_toIPNSt8__detail10_Hash_nodeISt4pairIKdiELb0EEES5_Lb0EE10pointer_toERS5_"
 "_ZNSt19__ptr_traits_ptr_toIPNSt8__detail10_Hash_nodeISt4pairIKNSt7__cxx1112basic_stringIcSt11char_traitsIcESaIcEEEiELb1EEESB_Lb0EE10pointer_toERSB_"
 "_ZNSt19__ptr_traits_ptr_toIPPNSt8__detail15_Hash_node_baseES2_Lb0EE10pointer_toERS2_"
 "_ZNSt20__copy_move_backwardILb1ELb1ESt26random_access_iterator_tagE13__copy_move_bIddEEPT0_PT_S6_S4_"
 "_ZNSt20__uninitialized_copyILb0EE13__uninit_copyIN9__gnu_cxx17__normal_iteratorIPKSt6vectorIdSaIdEES4_IS6_SaIS6_EEEEPS6_EET0_T_SE_SD_"
 "_ZNSt20__uninitialized_copyILb0EE13__uninit_copyIPSt6vectorIdSaIdEES5_EET0_T_S7_S6_"
 "_ZNSt20__uninitialized_copyILb1EE13__uninit_copyIN9__gnu_cxx17__normal_iteratorIPKdSt6vectorIdSaIdEEEEPdEET0_T_SC_SB_"
 "_ZNSt20__uninitialized_copyILb1EE13__uninit_copyINSt8__detail14_Node_iteratorIiLb1ELb0EEEPiEET0_T_S7_S6_"
 "_ZNSt20__uninitialized_copyILb1EE13__uninit_copyIPdS2_EET0_T_S4_S3_"
 "_ZNSt22__uninitialized_fill_nILb0EE15__uninit_fill_nIPSt6vectorIdSaIdEEyS4_EET_S6_T0_RKT1_"
 "_ZNSt27__uninitialized_default_n_1ILb1EE18__uninit_default_nIPdyEET_S3_T0_"
 "_ZNSt4pairIKdiEC1IJRS0_EJEEESt21piecewise_construct_tSt5tupleIJDpT_EES5_IJDpT0_EE"
 "_ZNSt4pairIKdiEC1IJRS0_EJLy0EEJEJEEERSt5tupleIJDpT_EERS4_IJDpT1_EESt12_Index_tupleIJXspT0_EEESD_IJXspT2_EEE"
 "_ZNSt4pairIKNSt7__cxx1112basic_stringIcSt11char_traitsIcESaIcEEEiEC1IJRS6_EJEEESt21piecewise_construct_tSt5tupleIJDpT_EESB_IJDpT0_EE"
 "_ZNSt4pairIKNSt7__cxx1112basic_stringIcSt11char_traitsIcESaIcEEEiEC1IJRS6_EJLy0EEJEJEEERSt5tupleIJDpT_EERSA_IJDpT1_EESt12_Index_tupleIJXspT0_EEESJ_IJXspT2_EEE"
 "_ZNSt4pairIKNSt7__cxx1112basic_stringIcSt11char_traitsIcESaIcEEEiED1Ev"
 "_ZNSt4pairINSt8__detail14_Node_iteratorIiLb1ELb0EEEbEC1IRS2_bLb1EEEOT_OT0_"
 "_ZNSt4pairINSt8__detail14_Node_iteratorIiLb1ELb0EEEbEC1IS2_bLb1EEEOT_OT0_"
 "_ZNSt5tupleIJRKdEEC1EOS2_"
 "_ZNSt5tupleIJRKdEEC1ILb1ELb1EEES1_"
 "_ZNSt5tupleIJRKNSt7__cxx1112basic_stringIcSt11char_traitsIcESaIcEEEEEC1EOS8_"
 "_ZNSt5tupleIJRKNSt7__cxx1112basic_stringIcSt11char_traitsIcESaIcEEEEEC1ILb1ELb1EEES7_"
 "_ZNSt6vectorIdSaIdEE11_S_max_sizeERKS0_"
 "_ZNSt6vectorIdSaIdEE11_S_relocateEPdS2_S2_RS0_"
 "_ZNSt6vectorIdSaIdEE15_M_erase_at_endEPd"
 "_ZNSt6vectorIdSaIdEE17_M_realloc_appendIJRKdEEEvDpOT_"
 "_ZNSt6vectorIdSaIdEE17_S_check_init_lenEyRKS0_"
 "_ZNSt6vectorIdSaIdEE20_M_allocate_and_copyIN9__gnu_cxx17__normal_iteratorIPKdS1_EEEEPdyT_S9_"
 "_ZNSt6vectorIdSaIdEE21_M_default_initializeEy"
 "_ZNSt6vectorIdSaIdEE3endEv"
 "_ZNSt6vectorIdSaIdEE5beginEv"
 "_ZNSt6vectorIdSaIdEE5clearEv"
 "_ZNSt6vectorIdSaIdEE7reserveEy"
 "_ZNSt6vectorIdSaIdEE9push_backERKd"
 "_ZNSt6vectorIdSaIdEEaSERKS1_"
 "_ZNSt6vectorIdSaIdEEC1EOS1_"
 "_ZNSt6vectorIdSaIdEEC1ERKS1_"
 "_ZNSt6vectorIdSaIdEEC1Ev"
 "_ZNSt6vectorIdSaIdEEC1EyRKS0_"
 "_ZNSt6vectorIdSaIdEED1Ev"
 "_ZNSt6vectorIdSaIdEEixEy"
 "_ZNSt6vectorIiSaIiEE11_S_max_sizeERKS0_"
 "_ZNSt6vectorIiSaIiEE17_S_check_init_lenEyRKS0_"
 "_ZNSt6vectorIiSaIiEE19_M_range_initializeINSt8__detail14_Node_iteratorIiLb1ELb0EEEEEvT_S6_St20forward_iterator_tag"
 "_ZNSt6vectorIiSaIiEE21_M_range_initialize_nINSt8__detail14_Node_iteratorIiLb1ELb0EEEEEvT_S6_y"
 "_ZNSt6vectorIiSaIiEE3endEv"
 "_ZNSt6vectorIiSaIiEE5beginEv"
 "_ZNSt6vectorIiSaIiEEC1INSt8__detail14_Node_iteratorIiLb1ELb0EEEvEET_S6_RKS0_"
 "_ZNSt6vectorIiSaIiEED1Ev"
 "_ZNSt6vectorIiSaIiEEixEy"
 "_ZNSt6vectorIS_IdSaIdEESaIS1_EE11_S_max_sizeERKS2_"
 "_ZNSt6vectorIS_IdSaIdEESaIS1_EE11_S_relocateEPS1_S4_S4_RS2_"
 "_ZNSt6vectorIS_IdSaIdEESaIS1_EE12emplace_backIJS1_EEERS1_DpOT_"
 "_ZNSt6vectorIS_IdSaIdEESaIS1_EE15_M_erase_at_endEPS1_"
 "_ZNSt6vectorIS_IdSaIdEESaIS1_EE17_M_realloc_appendIJS1_EEEvDpOT_"
 "_ZNSt6vectorIS_IdSaIdEESaIS1_EE17_S_check_init_lenEyRKS2_"
 "_ZNSt6vectorIS_IdSaIdEESaIS1_EE18_M_fill_initializeEyRKS1_"
 "_ZNSt6vectorIS_IdSaIdEESaIS1_EE20_M_allocate_and_copyIN9__gnu_cxx17__normal_iteratorIPKS1_S3_EEEEPS1_yT_SB_"
 "_ZNSt6vectorIS_IdSaIdEESaIS1_EE3endEv"
 "_ZNSt6vectorIS_IdSaIdEESaIS1_EE4backEv"
 "_ZNSt6vectorIS_IdSaIdEESaIS1_EE5beginEv"
 "_ZNSt6vectorIS_IdSaIdEESaIS1_EE5clearEv"
 "_ZNSt6vectorIS_IdSaIdEESaIS1_EE7reserveEy"
 "_ZNSt6vectorIS_IdSaIdEESaIS1_EE9push_backEOS1_"
 "_ZNSt6vectorIS_IdSaIdEESaIS1_EEaSERKS3_"
 "_ZNSt6vectorIS_IdSaIdEESaIS1_EEC1Ev"
 "_ZNSt6vectorIS_IdSaIdEESaIS1_EEC1EyRKS1_RKS2_"
 "_ZNSt6vectorIS_IdSaIdEESaIS1_EED1Ev"
 "_ZNSt6vectorIS_IdSaIdEESaIS1_EEixEy"
 "_ZNSt7__cxx1112basic_stringIcSt11char_traitsIcESaIcEE12_Alloc_hiderD1Ev"
 "_ZNSt7__cxx1112basic_stringIcSt11char_traitsIcESaIcEE12_M_constructIPcEEvT_S7_St20forward_iterator_tag"
 "_ZNSt7__cxx1112basic_stringIcSt11char_traitsIcESaIcEEC1IPcvEET_S7_RKS3_"
 "_ZNSt7__cxx119to_stringEd"
 "_ZNSt8__detail10_AllocNodeISaINS_10_Hash_nodeIiLb0EEEEEC1ERNS_16_Hashtable_allocIS3_EE"
 "_ZNSt8__detail10_Hash_nodeIiLb0EEC1Ev"
 "_ZNSt8__detail10_Hash_nodeISt4pairIKdiELb0EEC1Ev"
 "_ZNSt8__detail10_Hash_nodeISt4pairIKNSt7__cxx1112basic_stringIcSt11char_traitsIcESaIcEEEiELb1EEC1Ev"
 "_ZNSt8__detail12_Insert_baseIiiSaIiENS_9_IdentityESt8equal_toIiESt4hashIiENS_18_Mod_range_hashingENS_20_Default_ranged_hashENS_20_Prime_rehash_policyENS_17_Hashtable_traitsILb0ELb1ELb1EEEE15_M_insert_rangeIN9__gnu_cxx17__normal_iteratorIPKiSt6vectorIiS1_EEENS_10_AllocNodeISaINS_10_Hash_nodeIiLb0EEEEEEEEvT_SQ_RKT0_St17integral_constantIbLb1EE"
 "_ZNSt8__detail12_Insert_baseIiiSaIiENS_9_IdentityESt8equal_toIiESt4hashIiENS_18_Mod_range_hashingENS_20_Default_ranged_hashENS_20_Prime_rehash_policyENS_17_Hashtable_traitsILb0ELb1ELb1EEEE20_M_conjure_hashtableEv"
 "_ZNSt8__detail12_Insert_baseIiiSaIiENS_9_IdentityESt8equal_toIiESt4hashIiENS_18_Mod_range_hashingENS_20_Default_ranged_hashENS_20_Prime_rehash_policyENS_17_Hashtable_traitsILb0ELb1ELb1EEEE6insertIN9__gnu_cxx17__normal_iteratorIPKiSt6vectorIiS1_EEEEEvT_SL_"
 "_ZNSt8__detail12_NodeBuilderINS_9_IdentityEE8_S_buildIRKiS5_NS_10_AllocNodeISaINS_10_Hash_nodeIiLb0EEEEEEEENT1_10__node_ptrEOT_OT0_RKSB_"
 "_ZNSt8__detail14_Node_iteratorIiLb1ELb0EEC1EPNS_10_Hash_nodeIiLb0EEE"
 "_ZNSt8__detail14_Node_iteratorIiLb1ELb0EEppEv"
 "_ZNSt8__detail14_Node_iteratorISt4pairIKdiELb0ELb0EEC1EPNS_10_Hash_nodeIS3_Lb0EEE"
 "_ZNSt8__detail14_Node_iteratorISt4pairIKdiELb0ELb0EEppEv"
 "_ZNSt8__detail14_Node_iteratorISt4pairIKNSt7__cxx1112basic_stringIcSt11char_traitsIcESaIcEEEiELb0ELb1EEC1EPNS_10_Hash_nodeIS9_Lb1EEE"
 "_ZNSt8__detail14_Node_iteratorISt4pairIKNSt7__cxx1112basic_stringIcSt11char_traitsIcESaIcEEEiELb0ELb1EEppEv"
 "_ZNSt8__detail15_Hash_code_baseIdSt4pairIKdiENS_10_Select1stESt4hashIdENS_18_Mod_range_hashingENS_20_Default_ranged_hashELb0EEC2Ev"
 "_ZNSt8__detail15_Hash_code_baseIiiNS_9_IdentityESt4hashIiENS_18_Mod_range_hashingENS_20_Default_ranged_hashELb0EEC2Ev"
 "_ZNSt8__detail15_Hash_code_baseINSt7__cxx1112basic_stringIcSt11char_traitsIcESaIcEEESt4pairIKS6_iENS_10_Select1stESt4hashIS6_ENS_18_Mod_range_hashingENS_20_Default_ranged_hashELb1EEC2Ev"
 "_ZNSt8__detail15_Hash_node_baseC1Ev"
 "_ZNSt8__detail15_Hash_node_baseC2Ev"
 "_ZNSt8__detail15_Hashtable_baseIdSt4pairIKdiENS_10_Select1stESt8equal_toIdESt4hashIdENS_18_Mod_range_hashingENS_20_Default_ranged_hashENS_17_Hashtable_traitsILb0ELb0ELb1EEEE9_S_equalsEyRKNS_21_Hash_node_code_cacheILb0EEE"
 "_ZNSt8__detail15_Hashtable_baseIdSt4pairIKdiENS_10_Select1stESt8equal_toIdESt4hashIdENS_18_Mod_range_hashingENS_20_Default_ranged_hashENS_17_Hashtable_traitsILb0ELb0ELb1EEEEC2Ev"
 "_ZNSt8__detail15_Hashtable_baseIiiNS_9_IdentityESt8equal_toIiESt4hashIiENS_18_Mod_range_hashingENS_20_Default_ranged_hashENS_17_Hashtable_traitsILb0ELb1ELb1EEEE9_S_equalsEyRKNS_21_Hash_node_code_cacheILb0EEE"
 "_ZNSt8__detail15_Hashtable_baseIiiNS_9_IdentityESt8equal_toIiESt4hashIiENS_18_Mod_range_hashingENS_20_Default_ranged_hashENS_17_Hashtable_traitsILb0ELb1ELb1EEEEC2Ev"
 "_ZNSt8__detail15_Hashtable_baseINSt7__cxx1112basic_stringIcSt11char_traitsIcESaIcEEESt4pairIKS6_iENS_10_Select1stESt8equal_toIS6_ESt4hashIS6_ENS_18_Mod_range_hashingENS_20_Default_ranged_hashENS_17_Hashtable_traitsILb1ELb0ELb1EEEE9_S_equalsEyRKNS_21_Hash_node_code_cacheILb1EEE"
 "_ZNSt8__detail15_Hashtable_baseINSt7__cxx1112basic_stringIcSt11char_traitsIcESaIcEEESt4pairIKS6_iENS_10_Select1stESt8equal_toIS6_ESt4hashIS6_ENS_18_Mod_range_hashingENS_20_Default_ranged_hashENS_17_Hashtable_traitsILb1ELb0ELb1EEEEC2Ev"
 "_ZNSt8__detail16_Hashtable_allocISaINS_10_Hash_nodeIiLb0EEEEE16_M_allocate_nodeIJRKiEEEPS2_DpOT_"
 "_ZNSt8__detail16_Hashtable_allocISaINS_10_Hash_nodeIiLb0EEEEE17_M_node_allocatorEv"
 "_ZNSt8__detail16_Hashtable_allocISaINS_10_Hash_nodeIiLb0EEEEE18_M_deallocate_nodeEPS2_"
 "_ZNSt8__detail16_Hashtable_allocISaINS_10_Hash_nodeIiLb0EEEEE19_M_allocate_bucketsEy"
 "_ZNSt8__detail16_Hashtable_allocISaINS_10_Hash_nodeIiLb0EEEEE19_M_deallocate_nodesEPS2_"
 "_ZNSt8__detail16_Hashtable_allocISaINS_10_Hash_nodeIiLb0EEEEE21_M_deallocate_bucketsEPPNS_15_Hash_node_baseEy"
 "_ZNSt8__detail16_Hashtable_allocISaINS_10_Hash_nodeIiLb0EEEEE22_M_deallocate_node_ptrEPS2_"
 "_ZNSt8__detail16_Hashtable_allocISaINS_10_Hash_nodeIiLb0EEEEEC2Ev"
 "_ZNSt8__detail16_Hashtable_allocISaINS_10_Hash_nodeIiLb0EEEEED2Ev"
 "_ZNSt8__detail16_Hashtable_allocISaINS_10_Hash_nodeISt4pairIKdiELb0EEEEE16_M_allocate_nodeIJRKSt21piecewise_construct_tSt5tupleIJRS3_EESC_IJEEEEEPS5_DpOT_"
 "_ZNSt8__detail16_Hashtable_allocISaINS_10_Hash_nodeISt4pairIKdiELb0EEEEE17_M_node_allocatorEv"
 "_ZNSt8__detail16_Hashtable_allocISaINS_10_Hash_nodeISt4pairIKdiELb0EEEEE18_M_deallocate_nodeEPS5_"
 "_ZNSt8__detail16_Hashtable_allocISaINS_10_Hash_nodeISt4pairIKdiELb0EEEEE19_M_allocate_bucketsEy"
 "_ZNSt8__detail16_Hashtable_allocISaINS_10_Hash_nodeISt4pairIKdiELb0EEEEE19_M_deallocate_nodesEPS5_"
 "_ZNSt8__detail16_Hashtable_allocISaINS_10_Hash_nodeISt4pairIKdiELb0EEEEE21_M_deallocate_bucketsEPPNS_15_Hash_node_baseEy"
 "_ZNSt8__detail16_Hashtable_allocISaINS_10_Hash_nodeISt4pairIKdiELb0EEEEE22_M_deallocate_node_ptrEPS5_"
 "_ZNSt8__detail16_Hashtable_allocISaINS_10_Hash_nodeISt4pairIKdiELb0EEEEEC2Ev"
 "_ZNSt8__detail16_Hashtable_allocISaINS_10_Hash_nodeISt4pairIKdiELb0EEEEED2Ev"
 "_ZNSt8__detail16_Hashtable_allocISaINS_10_Hash_nodeISt4pairIKNSt7__cxx1112basic_stringIcSt11char_traitsIcESaIcEEEiELb1EEEEE16_M_allocate_nodeIJRKSt21piecewise_construct_tSt5tupleIJRS9_EESI_IJEEEEEPSB_DpOT_"
 "_ZNSt8__detail16_Hashtable_allocISaINS_10_Hash_nodeISt4pairIKNSt7__cxx1112basic_stringIcSt11char_traitsIcESaIcEEEiELb1EEEEE17_M_node_allocatorEv"
 "_ZNSt8__detail16_Hashtable_allocISaINS_10_Hash_nodeISt4pairIKNSt7__cxx1112basic_stringIcSt11char_traitsIcESaIcEEEiELb1EEEEE18_M_deallocate_nodeEPSB_"
 "_ZNSt8__detail16_Hashtable_allocISaINS_10_Hash_nodeISt4pairIKNSt7__cxx1112basic_stringIcSt11char_traitsIcESaIcEEEiELb1EEEEE19_M_allocate_bucketsEy"
 "_ZNSt8__detail16_Hashtable_allocISaINS_10_Hash_nodeISt4pairIKNSt7__cxx1112basic_stringIcSt11char_traitsIcESaIcEEEiELb1EEEEE19_M_deallocate_nodesEPSB_"
 "_ZNSt8__detail16_Hashtable_allocISaINS_10_Hash_nodeISt4pairIKNSt7__cxx1112basic_stringIcSt11char_traitsIcESaIcEEEiELb1EEEEE21_M_deallocate_bucketsEPPNS_15_Hash_node_baseEy"
 "_ZNSt8__detail16_Hashtable_allocISaINS_10_Hash_nodeISt4pairIKNSt7__cxx1112basic_stringIcSt11char_traitsIcESaIcEEEiELb1EEEEE22_M_deallocate_node_ptrEPSB_"
 "_ZNSt8__detail16_Hashtable_allocISaINS_10_Hash_nodeISt4pairIKNSt7__cxx1112basic_stringIcSt11char_traitsIcESaIcEEEiELb1EEEEEC2Ev"
 "_ZNSt8__detail16_Hashtable_allocISaINS_10_Hash_nodeISt4pairIKNSt7__cxx1112basic_stringIcSt11char_traitsIcESaIcEEEiELb1EEEEED2Ev"
 "_ZNSt8__detail17_RehashStateGuardINS_20_Prime_rehash_policyEEC1ERS1_"
 "_ZNSt8__detail17_RehashStateGuardINS_20_Prime_rehash_policyEED1Ev"
 "_ZNSt8__detail19_Node_iterator_baseIiLb0EE7_M_incrEv"
 "_ZNSt8__detail19_Node_iterator_baseIiLb0EEC2EPNS_10_Hash_nodeIiLb0EEE"
 "_ZNSt8__detail19_Node_iterator_baseISt4pairIKdiELb0EE7_M_incrEv"
 "_ZNSt8__detail19_Node_iterator_baseISt4pairIKdiELb0EEC2EPNS_10_Hash_nodeIS3_Lb0EEE"
 "_ZNSt8__detail19_Node_iterator_baseISt4pairIKNSt7__cxx1112basic_stringIcSt11char_traitsIcESaIcEEEiELb1EE7_M_incrEv"
 "_ZNSt8__detail19_Node_iterator_baseISt4pairIKNSt7__cxx1112basic_stringIcSt11char_traitsIcESaIcEEEiELb1EEC2EPNS_10_Hash_nodeIS9_Lb1EEE"
 "_ZNSt8__detail20_Prime_rehash_policy8_M_resetEy"
 "_ZNSt8__detail20_Prime_rehash_policyC1Ef"
 "_ZNSt8__detail21_Hashtable_ebo_helperILi0ESaINS_10_Hash_nodeIiLb0EEEELb1EE6_M_getEv"
 "_ZNSt8__detail21_Hashtable_ebo_helperILi0ESaINS_10_Hash_nodeIiLb0EEEELb1EEC2Ev"
 "_ZNSt8__detail21_Hashtable_ebo_helperILi0ESaINS_10_Hash_nodeIiLb0EEEELb1EED2Ev"
 "_ZNSt8__detail21_Hashtable_ebo_helperILi0ESaINS_10_Hash_nodeISt4pairIKdiELb0EEEELb1EE6_M_getEv"
 "_ZNSt8__detail21_Hashtable_ebo_helperILi0ESaINS_10_Hash_nodeISt4pairIKdiELb0EEEELb1EEC2Ev"
 "_ZNSt8__detail21_Hashtable_ebo_helperILi0ESaINS_10_Hash_nodeISt4pairIKdiELb0EEEELb1EED2Ev"
 "_ZNSt8__detail21_Hashtable_ebo_helperILi0ESaINS_10_Hash_nodeISt4pairIKNSt7__cxx1112basic_stringIcSt11char_traitsIcESaIcEEEiELb1EEEELb1EE6_M_getEv"
 "_ZNSt8__detail21_Hashtable_ebo_helperILi0ESaINS_10_Hash_nodeISt4pairIKNSt7__cxx1112basic_stringIcSt11char_traitsIcESaIcEEEiELb1EEEELb1EEC2Ev"
 "_ZNSt8__detail21_Hashtable_ebo_helperILi0ESaINS_10_Hash_nodeISt4pairIKNSt7__cxx1112basic_stringIcSt11char_traitsIcESaIcEEEiELb1EEEELb1EED2Ev"
 "_ZNSt8__detail21_Hashtable_ebo_helperILi0ESt8equal_toIdELb1EEC2Ev"
 "_ZNSt8__detail21_Hashtable_ebo_helperILi0ESt8equal_toIiELb1EEC2Ev"
 "_ZNSt8__detail21_Hashtable_ebo_helperILi0ESt8equal_toINSt7__cxx1112basic_stringIcSt11char_traitsIcESaIcEEEELb1EEC2Ev"
 "_ZNSt8__detail21_Hashtable_ebo_helperILi1ESt4hashIdELb1EEC2Ev"
 "_ZNSt8__detail21_Hashtable_ebo_helperILi1ESt4hashIiELb1EEC2Ev"
 "_ZNSt8__detail21_Hashtable_ebo_helperILi1ESt4hashINSt7__cxx1112basic_stringIcSt11char_traitsIcESaIcEEEELb1EEC2Ev"
 "_ZNSt8__detail22_Hashtable_hash_traitsISt4hashIiEE22__small_size_thresholdEv"
 "_ZNSt8__detail9_Map_baseIdSt4pairIKdiESaIS3_ENS_10_Select1stESt8equal_toIdESt4hashIdENS_18_Mod_range_hashingENS_20_Default_ranged_hashENS_20_Prime_rehash_policyENS_17_Hashtable_traitsILb0ELb0ELb1EEELb1EEixERS2_"
 "_ZNSt8__detail9_Map_baseINSt7__cxx1112basic_stringIcSt11char_traitsIcESaIcEEESt4pairIKS6_iESaIS9_ENS_10_Select1stESt8equal_toIS6_ESt4hashIS6_ENS_18_Mod_range_hashingENS_20_Default_ranged_hashENS_20_Prime_rehash_policyENS_17_Hashtable_traitsILb1ELb0ELb1EEELb1EEixERS8_"
 "_ZNSt8__detaileqERKNS_14_Node_iteratorIiLb1ELb0EEES3_"
 "_ZNSt8__detaileqERKNS_14_Node_iteratorISt4pairIKdiELb0ELb0EEES6_"
 "_ZNSt8__detaileqERKNS_14_Node_iteratorISt4pairIKNSt7__cxx1112basic_stringIcSt11char_traitsIcESaIcEEEiELb0ELb1EEESC_"
 "_ZNSt8__detaileqERKNS_19_Node_iterator_baseIiLb0EEES3_"
 "_ZNSt8__detaileqERKNS_19_Node_iterator_baseISt4pairIKdiELb0EEES6_"
 "_ZNSt8__detaileqERKNS_19_Node_iterator_baseISt4pairIKNSt7__cxx1112basic_stringIcSt11char_traitsIcESaIcEEEiELb1EEESC_"
 "_ZNSt8__detailneERKNS_14_Node_iteratorIiLb1ELb0EEES3_"
 "_ZNSt8__detailneERKNS_14_Node_iteratorISt4pairIKdiELb0ELb0EEES6_"
 "_ZNSt8__detailneERKNS_14_Node_iteratorISt4pairIKNSt7__cxx1112basic_stringIcSt11char_traitsIcESaIcEEEiELb0ELb1EEESC_"
 "_ZnwyPv"
 "_ZSt10__distanceINSt8__detail14_Node_iteratorIiLb1ELb0EEEENSt15iterator_traitsIT_E15difference_typeES4_S4_St18input_iterator_tag"
 "_ZSt10__fill_n_aIPdydET_S1_T0_RKT1_St26random_access_iterator_tag"
 "_ZSt10__pop_heapIN9__gnu_cxx17__normal_iteratorIPdSt6vectorIdSaIdEEEENS0_5__ops15_Iter_less_iterEEvT_S9_S9_RT0_"
 "_ZSt10_ConstructIdJEEvPT_DpOT0_"
 "_ZSt10_ConstructISt6vectorIdSaIdEEJRKS2_EEvPT_DpOT0_"
 "_ZSt10_ConstructISt6vectorIdSaIdEEJRS2_EEvPT_DpOT0_"
 "_ZSt11__addressofIdEPT_RS0_"
 "_ZSt11__addressofIKSt6vectorIdSaIdEEEPT_RS4_"
 "_ZSt11__addressofIKSt6vectorIS0_IdSaIdEESaIS2_EEEPT_RS6_"
 "_ZSt11__addressofINSt8__detail10_Hash_nodeIiLb0EEEEPT_RS3_"
 "_ZSt11__addressofINSt8__detail10_Hash_nodeISt4pairIKdiELb0EEEEPT_RS6_"
 "_ZSt11__addressofINSt8__detail10_Hash_nodeISt4pairIKNSt7__cxx1112basic_stringIcSt11char_traitsIcESaIcEEEiELb1EEEEPT_RSC_"
 "_ZSt11__addressofINSt8__detail20_Prime_rehash_policyEEPT_RS2_"
 "_ZSt11__addressofIPNSt8__detail15_Hash_node_baseEEPT_RS3_"
 "_ZSt11__addressofISt6vectorIdSaIdEEEPT_RS3_"
 "_ZSt11__bit_widthIyEiT_"
 "_ZSt11__make_heapIN9__gnu_cxx17__normal_iteratorIPdSt6vectorIdSaIdEEEENS0_5__ops15_Iter_less_iterEEvT_S9_RT0_"
 "_ZSt11__push_heapIN9__gnu_cxx17__normal_iteratorIPdSt6vectorIdSaIdEEEExdNS0_5__ops14_Iter_less_valEEvT_T0_SA_T1_RT2_"
 "_ZSt11max_elementIN9__gnu_cxx17__normal_iteratorIPdSt6vectorIdSaIdEEEEET_S7_S7_"
 "_ZSt11nth_elementIN9__gnu_cxx17__normal_iteratorIPdSt6vectorIdSaIdEEEEEvT_S7_S7_"
 "_ZSt12__get_helperILy0ERKdJEERT0_RSt11_Tuple_implIXT_EJS2_DpT1_EE"
 "_ZSt12__get_helperILy0ERKNSt7__cxx1112basic_stringIcSt11char_traitsIcESaIcEEEJEERT0_RSt11_Tuple_implIXT_EJS8_DpT1_EE"
 "_ZSt12__miter_baseIN9__gnu_cxx17__normal_iteratorIPdSt6vectorIdSaIdEEEEET_S7_"
 "_ZSt12__miter_baseIN9__gnu_cxx17__normal_iteratorIPKdSt6vectorIdSaIdEEEEET_S8_"
 "_ZSt12__miter_baseIN9__gnu_cxx17__normal_iteratorIPKSt6vectorIdSaIdEES2_IS4_SaIS4_EEEEET_SA_"
 "_ZSt12__miter_baseINSt8__detail14_Node_iteratorIiLb1ELb0EEEET_S3_"
 "_ZSt12__miter_baseIPdET_S1_"
 "_ZSt12__miter_baseIPSt6vectorIdSaIdEEET_S4_"
 "_ZSt12__niter_baseINSt8__detail14_Node_iteratorIiLb1ELb0EEEET_S3_"
 "_ZSt12__niter_baseIPdET_S1_"
 "_ZSt12__niter_baseIPdSt6vectorIdSaIdEEET_N9__gnu_cxx17__normal_iteratorIS4_T0_EE"
 "_ZSt12__niter_baseIPiET_S1_"
 "_ZSt12__niter_baseIPKdSt6vectorIdSaIdEEET_N9__gnu_cxx17__normal_iteratorIS5_T0_EE"
 "_ZSt12__niter_baseIPKSt6vectorIdSaIdEES0_IS2_SaIS2_EEET_N9__gnu_cxx17__normal_iteratorIS7_T0_EE"
 "_ZSt12__niter_baseIPSt6vectorIdSaIdEEET_S4_"
 "_ZSt12__niter_baseIPSt6vectorIdSaIdEES0_IS2_SaIS2_EEET_N9__gnu_cxx17__normal_iteratorIS6_T0_EE"
 "_ZSt12__niter_wrapIN9__gnu_cxx17__normal_iteratorIPdSt6vectorIdSaIdEEEES2_ET_S7_T0_"
 "_ZSt12__niter_wrapIN9__gnu_cxx17__normal_iteratorIPSt6vectorIdSaIdEES2_IS4_SaIS4_EEEES5_ET_S9_T0_"
 "_ZSt12__niter_wrapIPdET_RKS1_S1_"
 "_ZSt12__niter_wrapIPiET_RKS1_S1_"
 "_ZSt12__niter_wrapIPSt6vectorIdSaIdEEET_RKS4_S4_"
 "_ZSt12__relocate_aIPdS0_SaIdEET0_T_S3_S2_RT1_"
 "_ZSt12__relocate_aIPSt6vectorIdSaIdEES3_SaIS2_EET0_T_S6_S5_RT1_"
 "_ZSt12__to_addressIdEPT_S1_"
 "_ZSt12__to_addressINSt8__detail10_Hash_nodeIiLb0EEEEPT_S4_"
 "_ZSt12__to_addressINSt8__detail10_Hash_nodeISt4pairIKdiELb0EEEEPT_S7_"
 "_ZSt12__to_addressINSt8__detail10_Hash_nodeISt4pairIKNSt7__cxx1112basic_stringIcSt11char_traitsIcESaIcEEEiELb1EEEEPT_SD_"
 "_ZSt12__to_addressIPNSt8__detail15_Hash_node_baseEEPT_S4_"
 "_ZSt12__to_addressISt6vectorIdSaIdEEEPT_S4_"
 "_ZSt13__adjust_heapIN9__gnu_cxx17__normal_iteratorIPdSt6vectorIdSaIdEEEExdNS0_5__ops15_Iter_less_iterEEvT_T0_SA_T1_T2_"
 "_ZSt13__copy_move_aILb0EN9__gnu_cxx17__normal_iteratorIPKdSt6vectorIdSaIdEEEENS1_IPdS6_EEET1_T0_SB_SA_"
 "_ZSt13__copy_move_aILb0EN9__gnu_cxx17__normal_iteratorIPKdSt6vectorIdSaIdEEEEPdET1_T0_SA_S9_"
 "_ZSt13__copy_move_aILb0EN9__gnu_cxx17__normal_iteratorIPKSt6vectorIdSaIdEES2_IS4_SaIS4_EEEENS1_IPS4_S8_EEET1_T0_SD_SC_"
 "_ZSt13__copy_move_aILb0ENSt8__detail14_Node_iteratorIiLb1ELb0EEEPiET1_T0_S5_S4_"
 "_ZSt13__copy_move_aILb0EPdS0_ET1_T0_S2_S1_"
 "_ZSt13__copy_move_aILb0EPSt6vectorIdSaIdEES3_ET1_T0_S5_S4_"
 "_ZSt13__countl_zeroIyEiT_"
 "_ZSt13__heap_selectIN9__gnu_cxx17__normal_iteratorIPdSt6vectorIdSaIdEEEENS0_5__ops15_Iter_less_iterEEvT_S9_S9_T0_"
 "_ZSt13__introselectIN9__gnu_cxx17__normal_iteratorIPdSt6vectorIdSaIdEEEExNS0_5__ops15_Iter_less_iterEEvT_S9_S9_T0_T1_"
 "_ZSt13__max_elementIN9__gnu_cxx17__normal_iteratorIPdSt6vectorIdSaIdEEEENS0_5__ops15_Iter_less_iterEET_S9_S9_T0_"
 "_ZSt13move_backwardIN9__gnu_cxx17__normal_iteratorIPdSt6vectorIdSaIdEEEES6_ET0_T_S8_S7_"
 "_ZSt14__copy_move_a1ILb0ENSt8__detail14_Node_iteratorIiLb1ELb0EEEPiET1_T0_S5_S4_"
 "_ZSt14__copy_move_a1ILb0EPdS0_ET1_T0_S2_S1_"
 "_ZSt14__copy_move_a1ILb0EPKdPdET1_T0_S4_S3_"
 "_ZSt14__copy_move_a1ILb0EPKSt6vectorIdSaIdEEPS2_ET1_T0_S7_S6_"
 "_ZSt14__copy_move_a1ILb0EPSt6vectorIdSaIdEES3_ET1_T0_S5_S4_"
 "_ZSt14__copy_move_a2ILb0ENSt8__detail14_Node_iteratorIiLb1ELb0EEEPiET1_T0_S5_S4_"
 "_ZSt14__copy_move_a2ILb0EPdS0_ET1_T0_S2_S1_"
 "_ZSt14__copy_move_a2ILb0EPKdPdET1_T0_S4_S3_"
 "_ZSt14__copy_move_a2ILb0EPKSt6vectorIdSaIdEEPS2_ET1_T0_S7_S6_"
 "_ZSt14__copy_move_a2ILb0EPSt6vectorIdSaIdEES3_ET1_T0_S5_S4_"
 "_ZSt14__relocate_a_1IddENSt9enable_ifIXsrSt24__is_bitwise_relocatableIT_vE5valueEPS2_E4typeES4_S4_S4_RSaIT0_E"
 "_ZSt14__relocate_a_1IPSt6vectorIdSaIdEES3_SaIS2_EET0_T_S6_S5_RT1_"
 "_ZSt16__do_uninit_copyIN9__gnu_cxx17__normal_iteratorIPKSt6vectorIdSaIdEES2_IS4_SaIS4_EEEEPS4_ET0_T_SC_SB_"
 "_ZSt16__do_uninit_copyIPSt6vectorIdSaIdEES3_ET0_T_S5_S4_"
 "_ZSt16__insertion_sortIN9__gnu_cxx17__normal_iteratorIPdSt6vectorIdSaIdEEEENS0_5__ops15_Iter_less_iterEEvT_S9_T0_"
 "_ZSt17__size_to_integery"
 "_ZSt18__do_uninit_fill_nIPSt6vectorIdSaIdEEyS2_ET_S4_T0_RKT1_"
 "_ZSt18uninitialized_copyIN9__gnu_cxx17__normal_iteratorIPKdSt6vectorIdSaIdEEEEPdET0_T_SA_S9_"
 "_ZSt18uninitialized_copyIN9__gnu_cxx17__normal_iteratorIPKSt6vectorIdSaIdEES2_IS4_SaIS4_EEEEPS4_ET0_T_SC_SB_"
 "_ZSt18uninitialized_copyINSt8__detail14_Node_iteratorIiLb1ELb0EEEPiET0_T_S5_S4_"
 "_ZSt18uninitialized_copyIPdS0_ET0_T_S2_S1_"
 "_ZSt18uninitialized_copyIPSt6vectorIdSaIdEES3_ET0_T_S5_S4_"
 "_ZSt19__relocate_object_aISt6vectorIdSaIdEES2_SaIS2_EEvPT_PT0_RT1_"
 "_ZSt19piecewise_construct"
 "_ZSt20uninitialized_fill_nIPSt6vectorIdSaIdEEyS2_ET_S4_T0_RKT1_"
 "_ZSt21__unguarded_partitionIN9__gnu_cxx17__normal_iteratorIPdSt6vectorIdSaIdEEEENS0_5__ops15_Iter_less_iterEET_S9_S9_S9_T0_"
 "_ZSt22__copy_move_backward_aILb1EN9__gnu_cxx17__normal_iteratorIPdSt6vectorIdSaIdEEEES6_ET1_T0_S8_S7_"
 "_ZSt22__move_median_to_firstIN9__gnu_cxx17__normal_iteratorIPdSt6vectorIdSaIdEEEENS0_5__ops15_Iter_less_iterEEvT_S9_S9_S9_T0_"
 "_ZSt22__uninitialized_copy_aIN9__gnu_cxx17__normal_iteratorIPKdSt6vectorIdSaIdEEEEPddET0_T_SA_S9_RSaIT1_E"
 "_ZSt22__uninitialized_copy_aIN9__gnu_cxx17__normal_iteratorIPKSt6vectorIdSaIdEES2_IS4_SaIS4_EEEEPS4_S4_ET0_T_SC_SB_RSaIT1_E"
 "_ZSt22__uninitialized_copy_aINSt8__detail14_Node_iteratorIiLb1ELb0EEEPiiET0_T_S5_S4_RSaIT1_E"
 "_ZSt22__uninitialized_copy_aIPdS0_dET0_T_S2_S1_RSaIT1_E"
 "_ZSt22__uninitialized_copy_aIPSt6vectorIdSaIdEES3_S2_ET0_T_S5_S4_RSaIT1_E"
 "_ZSt23__copy_move_backward_a1ILb1EPdS0_ET1_T0_S2_S1_"
 "_ZSt23__copy_move_backward_a2ILb1EPdS0_ET1_T0_S2_S1_"
 "_ZSt24__uninitialized_fill_n_aIPSt6vectorIdSaIdEEyS2_S2_ET_S4_T0_RKT1_RSaIT2_E"
 "_ZSt25__unguarded_linear_insertIN9__gnu_cxx17__normal_iteratorIPdSt6vectorIdSaIdEEEENS0_5__ops14_Val_less_iterEEvT_T0_"
 "_ZSt25__uninitialized_default_nIPdyET_S1_T0_"
 "_ZSt27__unguarded_partition_pivotIN9__gnu_cxx17__normal_iteratorIPdSt6vectorIdSaIdEEEENS0_5__ops15_Iter_less_iterEET_S9_S9_T0_"
 "_ZSt27__uninitialized_default_n_aIPdydET_S1_T0_RSaIT1_E"
 "_ZSt3getILy0EJRKdEERNSt13tuple_elementIXT_ESt5tupleIJDpT0_EEE4typeERS6_"
 "_ZSt3getILy0EJRKNSt7__cxx1112basic_stringIcSt11char_traitsIcESaIcEEEEERNSt13tuple_elementIXT_ESt5tupleIJDpT0_EEE4typeERSC_"
 "_ZSt3maxIdERKT_S2_S2_"
 "_ZSt3maxIyERKT_S2_S2_"
 "_ZSt3minIyERKT_S2_S2_"
 "_ZSt4__lgIxET_S0_"
 "_ZSt4copyIN9__gnu_cxx17__normal_iteratorIPKdSt6vectorIdSaIdEEEENS1_IPdS6_EEET0_T_SB_SA_"
 "_ZSt4copyIN9__gnu_cxx17__normal_iteratorIPKdSt6vectorIdSaIdEEEEPdET0_T_SA_S9_"
 "_ZSt4copyIN9__gnu_cxx17__normal_iteratorIPKSt6vectorIdSaIdEES2_IS4_SaIS4_EEEENS1_IPS4_S8_EEET0_T_SD_SC_"
 "_ZSt4copyINSt8__detail14_Node_iteratorIiLb1ELb0EEEPiET0_T_S5_S4_"
 "_ZSt4copyIPdS0_ET0_T_S2_S1_"
 "_ZSt4copyIPSt6vectorIdSaIdEES3_ET0_T_S5_S4_"
 "_ZSt4moveIRdEONSt16remove_referenceIT_E4typeEOS2_"
 "_ZSt4moveIRN9__gnu_cxx5__ops15_Iter_less_iterEEONSt16remove_referenceIT_E4typeEOS5_"
 "_ZSt4moveIRNSt12_Vector_baseIdSaIdEE12_Vector_implEEONSt16remove_referenceIT_E4typeEOS6_"
 "_ZSt4moveIRNSt7__cxx1112basic_stringIcSt11char_traitsIcESaIcEEEEONSt16remove_referenceIT_E4typeEOS8_"
 "_ZSt4moveIRNSt8__detail14_Node_iteratorIiLb1ELb0EEEEONSt16remove_referenceIT_E4typeEOS5_"
 "_ZSt4moveIRSt6vectorIdSaIdEEEONSt16remove_referenceIT_E4typeEOS5_"
 "_ZSt4swapIdENSt9enable_ifIXsrSt6__and_IJSt6__not_ISt15__is_tuple_likeIT_EESt21is_move_constructibleIS4_ESt18is_move_assignableIS4_EEE5valueEvE4typeERS4_SE_"
 "_ZSt5isnand"
 "_ZSt6fill_nIPdydET_S1_T0_RKT1_"
 "_ZSt7forwardIbEOT_RNSt16remove_referenceIS0_E4typeE"
 "_ZSt7forwardINSt8__detail14_Node_iteratorIiLb1ELb0EEEEOT_RNSt16remove_referenceIS3_E4typeE"
 "_ZSt7forwardIRKdEOT_RNSt16remove_referenceIS2_E4typeE"
 "_ZSt7forwardIRKiEOT_RNSt16remove_referenceIS2_E4typeE"
 "_ZSt7forwardIRKNSt7__cxx1112basic_stringIcSt11char_traitsIcESaIcEEEEOT_RNSt16remove_referenceIS8_E4typeE"
 "_ZSt7forwardIRKSt21piecewise_construct_tEOT_RNSt16remove_referenceIS3_E4typeE"
 "_ZSt7forwardIRKSt4pairIKdiEEOT_RNSt16remove_referenceIS5_E4typeE"
 "_ZSt7forwardIRKSt4pairIKNSt7__cxx1112basic_stringIcSt11char_traitsIcESaIcEEEiEEOT_RNSt16remove_referenceISB_E4typeE"
 "_ZSt7forwardIRKSt6vectorIdSaIdEEEOT_RNSt16remove_referenceIS5_E4typeE"
 "_ZSt7forwardIRNSt8__detail14_Node_iteratorIiLb1ELb0EEEEOT_RNSt16remove_referenceIS4_E4typeE"
 "_ZSt7forwardIRSt6vectorIdSaIdEEEOT_RNSt16remove_referenceIS4_E4typeE"
 "_ZSt7forwardISt5tupleIJEEEOT_RNSt16remove_referenceIS2_E4typeE"
